ccopy_reg
_reconstructor
p0
(cBoard
Board
p1
c__builtin__
object
p2
Ntp3
Rp4
(dp5
S'biome'
p6
cBiomes
Snow
p7
sS'sy'
p8
I12
sS'sx'
p9
I12
sS'rscale'
p10
I64
sS'ascale'
p11
I4
sS't'
p12
(lp13
(lp14
(lp15
a(lp16
a(lp17
a(lp18
a(lp19
a(lp20
a(lp21
g0
(cTiles
Snow
p22
g2
Ntp23
Rp24
(dp25
S'y'
p26
I6
sS'x'
p27
I0
sS'corners'
p28
(I1
I0
I4
I2
tp29
sbaa(lp30
g0
(g22
g2
Ntp31
Rp32
(dp33
g26
I7
sg27
I0
sg28
(I4
I3
I4
I4
tp34
sbaa(lp35
g0
(g22
g2
Ntp36
Rp37
(dp38
g26
I8
sg27
I0
sg28
(I4
I4
I4
I4
tp39
sbaa(lp40
g0
(g22
g2
Ntp41
Rp42
(dp43
g26
I9
sg27
I0
sg28
(I4
I4
I4
I4
tp44
sbaa(lp45
g0
(g22
g2
Ntp46
Rp47
(dp48
g26
I10
sg27
I0
sg28
(I4
I4
I4
I4
tp49
sbaa(lp50
g0
(g22
g2
Ntp51
Rp52
(dp53
g26
I11
sg27
I0
sg28
(I4
I4
I4
I4
tp54
sbaaa(lp55
(lp56
a(lp57
a(lp58
a(lp59
a(lp60
a(lp61
g0
(cSnake
IronSnakeHead
p62
g2
Ntp63
Rp64
(dp65
g26
I5
sg27
I1
sS'gshape'
p66
g0
(cSnake
IronSnake
p67
g2
Ntp68
Rp69
(dp70
S'iid'
p71
I0
sS'tiles'
p72
(lp73
g0
(cSnake
IronSnakeSeg
p74
g2
Ntp75
Rp76
(dp77
S'i'
p78
I8
sg66
g69
sS'snake'
p79
g69
sS'fdir'
p80
I3
sg26
I6
sg27
I2
sS'bdir'
p81
Nsbag0
(g74
g2
Ntp82
Rp83
(dp84
g78
I3
sg66
g69
sg79
g69
sg80
I0
sg26
I6
sg27
I1
sg81
I1
sbag64
asbsg79
g69
sS'd'
p85
I0
sbaa(lp86
g83
aa(lp87
g0
(g22
g2
Ntp88
Rp89
(dp90
g26
I7
sg27
I1
sg28
(I1
I1
I4
I4
tp91
sbaa(lp92
g0
(g22
g2
Ntp93
Rp94
(dp95
g26
I8
sg27
I1
sg28
(I4
I4
I4
I4
tp96
sbaa(lp97
g0
(g22
g2
Ntp98
Rp99
(dp100
g26
I9
sg27
I1
sg28
(I4
I4
I4
I4
tp101
sbaa(lp102
g0
(g22
g2
Ntp103
Rp104
(dp105
g26
I10
sg27
I1
sg28
(I4
I4
I4
I4
tp106
sbaa(lp107
g0
(g22
g2
Ntp108
Rp109
(dp110
g26
I11
sg27
I1
sg28
(I4
I4
I4
I4
tp111
sbaaa(lp112
(lp113
a(lp114
a(lp115
a(lp116
a(lp117
a(lp118
a(lp119
g76
aa(lp120
g0
(g22
g2
Ntp121
Rp122
(dp123
g26
I7
sg27
I2
sg28
(I1
I1
I4
I4
tp124
sbaa(lp125
g0
(g22
g2
Ntp126
Rp127
(dp128
g26
I8
sg27
I2
sg28
(I4
I4
I4
I4
tp129
sbaa(lp130
g0
(g22
g2
Ntp131
Rp132
(dp133
g26
I9
sg27
I2
sg28
(I4
I4
I4
I4
tp134
sbaa(lp135
g0
(g22
g2
Ntp136
Rp137
(dp138
g26
I10
sg27
I2
sg28
(I4
I4
I4
I4
tp139
sbaa(lp140
g0
(g22
g2
Ntp141
Rp142
(dp143
g26
I11
sg27
I2
sg28
(I4
I4
I4
I4
tp144
sbaaa(lp145
(lp146
a(lp147
a(lp148
a(lp149
a(lp150
a(lp151
g0
(cInteractives
Penguin
p152
g2
Ntp153
Rp154
(dp155
g26
I5
sg27
I3
sg66
g0
(cTiles
GravShape
p156
g2
Ntp157
Rp158
(dp159
g72
(lp160
g154
asbsbaa(lp161
g0
(g22
g2
Ntp162
Rp163
(dp164
g26
I6
sg27
I3
sg28
(I0
I1
I2
I4
tp165
sbaa(lp166
g0
(g22
g2
Ntp167
Rp168
(dp169
g26
I7
sg27
I3
sg28
(I3
I4
I4
I4
tp170
sbaa(lp171
g0
(g22
g2
Ntp172
Rp173
(dp174
g26
I8
sg27
I3
sg28
(I4
I4
I4
I3
tp175
sbaa(lp176
g0
(g22
g2
Ntp177
Rp178
(dp179
g26
I9
sg27
I3
sg28
(I4
I2
I4
I2
tp180
sbaa(lp181
g0
(g22
g2
Ntp182
Rp183
(dp184
g26
I10
sg27
I3
sg28
(I4
I2
I4
I2
tp185
sbaa(lp186
g0
(g22
g2
Ntp187
Rp188
(dp189
g26
I11
sg27
I3
sg28
(I4
I2
I4
I2
tp190
sbaaa(lp191
(lp192
a(lp193
a(lp194
a(lp195
a(lp196
a(lp197
a(lp198
g0
(g22
g2
Ntp199
Rp200
(dp201
g26
I6
sg27
I4
sg28
(I1
I0
I4
I2
tp202
sbaa(lp203
g0
(g22
g2
Ntp204
Rp205
(dp206
g26
I7
sg27
I4
sg28
(I4
I2
I4
I2
tp207
sbaa(lp208
g0
(g22
g2
Ntp209
Rp210
(dp211
g26
I8
sg27
I4
sg28
(I4
I2
I1
I0
tp212
sbaa(lp213
a(lp214
a(lp215
aa(lp216
(lp217
a(lp218
a(lp219
a(lp220
a(lp221
a(lp222
a(lp223
a(lp224
a(lp225
a(lp226
a(lp227
a(lp228
aa(lp229
(lp230
a(lp231
a(lp232
a(lp233
a(lp234
a(lp235
a(lp236
a(lp237
a(lp238
a(lp239
a(lp240
a(lp241
aa(lp242
(lp243
a(lp244
a(lp245
a(lp246
a(lp247
a(lp248
a(lp249
a(lp250
a(lp251
a(lp252
a(lp253
a(lp254
aa(lp255
(lp256
a(lp257
a(lp258
g0
(g22
g2
Ntp259
Rp260
(dp261
g26
I2
sg27
I8
sg28
(I0
I1
I2
I3
tp262
sbaa(lp263
g0
(g22
g2
Ntp264
Rp265
(dp266
g26
I3
sg27
I8
sg28
(I2
I2
I0
I0
tp267
sbaa(lp268
a(lp269
a(lp270
g0
(g22
g2
Ntp271
Rp272
(dp273
g26
I6
sg27
I8
sg28
(I0
I1
I2
I4
tp274
sbaa(lp275
g0
(g22
g2
Ntp276
Rp277
(dp278
g26
I7
sg27
I8
sg28
(I2
I4
I2
I4
tp279
sbaa(lp280
g0
(g22
g2
Ntp281
Rp282
(dp283
g26
I8
sg27
I8
sg28
(I2
I4
I2
I4
tp284
sbaa(lp285
g0
(g22
g2
Ntp286
Rp287
(dp288
g26
I9
sg27
I8
sg28
(I2
I4
I0
I1
tp289
sbaa(lp290
a(lp291
aa(lp292
(lp293
g0
(cInteractives
SpikyThud
p294
g2
Ntp295
Rp296
(dp297
g26
I0
sg27
I9
sg66
g0
(g156
g2
Ntp298
Rp299
(dp300
g72
(lp301
g296
asbsbaa(lp302
g0
(g22
g2
Ntp303
Rp304
(dp305
g26
I1
sg27
I9
sg28
(I0
I1
I2
I4
tp306
sbaa(lp307
g0
(g22
g2
Ntp308
Rp309
(dp310
g26
I2
sg27
I9
sg28
(I3
I4
I1
I1
tp311
sbaa(lp312
a(lp313
a(lp314
a(lp315
g0
(g22
g2
Ntp316
Rp317
(dp318
g26
I6
sg27
I9
sg28
(I1
I1
I4
I4
tp319
sbaa(lp320
g0
(g22
g2
Ntp321
Rp322
(dp323
g26
I7
sg27
I9
sg28
(I4
I4
I4
I4
tp324
sbaa(lp325
g0
(g22
g2
Ntp326
Rp327
(dp328
g26
I8
sg27
I9
sg28
(I4
I4
I4
I4
tp329
sbaa(lp330
g0
(g22
g2
Ntp331
Rp332
(dp333
g26
I9
sg27
I9
sg28
(I4
I4
I3
I4
tp334
sbaa(lp335
g0
(g22
g2
Ntp336
Rp337
(dp338
g26
I10
sg27
I9
sg28
(I2
I4
I0
I1
tp339
sbaa(lp340
aa(lp341
(lp342
g0
(g22
g2
Ntp343
Rp344
(dp345
g26
I0
sg27
I10
sg28
(I2
I4
I2
I4
tp346
sbaa(lp347
g0
(g22
g2
Ntp348
Rp349
(dp350
g26
I1
sg27
I10
sg28
(I3
I4
I4
I4
tp351
sbaa(lp352
g0
(g22
g2
Ntp353
Rp354
(dp355
g26
I2
sg27
I10
sg28
(I4
I4
I1
I1
tp356
sbaa(lp357
a(lp358
g0
(cTiles
Portal
p359
g2
Ntp360
Rp361
(dp362
g26
I4
sg27
I10
sg78
I01
sbaa(lp363
a(lp364
g0
(g22
g2
Ntp365
Rp366
(dp367
g26
I6
sg27
I10
sg28
(I1
I1
I4
I4
tp368
sbaa(lp369
g0
(g22
g2
Ntp370
Rp371
(dp372
g26
I7
sg27
I10
sg28
(I4
I4
I4
I4
tp373
sbaa(lp374
g0
(g22
g2
Ntp375
Rp376
(dp377
g26
I8
sg27
I10
sg28
(I4
I4
I4
I4
tp378
sbaa(lp379
g0
(g22
g2
Ntp380
Rp381
(dp382
g26
I9
sg27
I10
sg28
(I4
I4
I4
I4
tp383
sbaa(lp384
g0
(g22
g2
Ntp385
Rp386
(dp387
g26
I10
sg27
I10
sg28
(I4
I4
I1
I1
tp388
sbaa(lp389
aa(lp390
(lp391
g0
(g22
g2
Ntp392
Rp393
(dp394
g26
I0
sg27
I11
sg28
(I4
I4
I4
I4
tp395
sbaa(lp396
g0
(g22
g2
Ntp397
Rp398
(dp399
g26
I1
sg27
I11
sg28
(I4
I4
I4
I4
tp400
sbaa(lp401
g0
(g22
g2
Ntp402
Rp403
(dp404
g26
I2
sg27
I11
sg28
(I4
I4
I1
I1
tp405
sbaa(lp406
a(lp407
a(lp408
a(lp409
g0
(g22
g2
Ntp410
Rp411
(dp412
g26
I6
sg27
I11
sg28
(I1
I1
I4
I4
tp413
sbaa(lp414
g0
(g22
g2
Ntp415
Rp416
(dp417
g26
I7
sg27
I11
sg28
(I4
I4
I4
I4
tp418
sbaa(lp419
g0
(g22
g2
Ntp420
Rp421
(dp422
g26
I8
sg27
I11
sg28
(I4
I4
I4
I4
tp423
sbaa(lp424
g0
(g22
g2
Ntp425
Rp426
(dp427
g26
I9
sg27
I11
sg28
(I4
I4
I4
I4
tp428
sbaa(lp429
g0
(g22
g2
Ntp430
Rp431
(dp432
g26
I10
sg27
I11
sg28
(I4
I4
I3
I4
tp433
sbaa(lp434
g0
(g22
g2
Ntp435
Rp436
(dp437
g26
I11
sg27
I11
sg28
(I2
I4
I2
I4
tp438
sbaaasS'iscale'
p439
I3
sb.