ccopy_reg
_reconstructor
p0
(cBoard
Board
p1
c__builtin__
object
p2
Ntp3
Rp4
(dp5
S'biome'
p6
cBiomes
Special
p7
sS'sy'
p8
I13
sS'sx'
p9
I12
sS'rscale'
p10
I64
sS'ascale'
p11
I4
sS't'
p12
(lp13
(lp14
(lp15
a(lp16
a(lp17
a(lp18
a(lp19
a(lp20
a(lp21
a(lp22
a(lp23
a(lp24
a(lp25
a(lp26
a(lp27
aa(lp28
(lp29
a(lp30
g0
(cTiles
Hex
p31
g2
Ntp32
Rp33
(dp34
S'y'
p35
I1
sS'x'
p36
I1
sS'col'
p37
I0
sS'corners'
p38
(I0
I1
I2
I3
tp39
sbaa(lp40
g0
(g31
g2
Ntp41
Rp42
(dp43
g35
I2
sg36
I1
sg37
I0
sg38
(I2
I2
I2
I2
tp44
sbaa(lp45
g0
(g31
g2
Ntp46
Rp47
(dp48
g35
I3
sg36
I1
sg37
I0
sg38
(I2
I3
I2
I3
tp49
sbaa(lp50
g0
(g31
g2
Ntp51
Rp52
(dp53
g35
I4
sg36
I1
sg37
I0
sg38
(I2
I2
I2
I2
tp54
sbaa(lp55
g0
(g31
g2
Ntp56
Rp57
(dp58
g35
I5
sg36
I1
sg37
I0
sg38
(I2
I2
I2
I2
tp59
sbaa(lp60
g0
(g31
g2
Ntp61
Rp62
(dp63
g35
I6
sg36
I1
sg37
I0
sg38
(I2
I2
I2
I2
tp64
sbaa(lp65
g0
(g31
g2
Ntp66
Rp67
(dp68
g35
I7
sg36
I1
sg37
I0
sg38
(I2
I2
I2
I2
tp69
sbaa(lp70
g0
(g31
g2
Ntp71
Rp72
(dp73
g35
I8
sg36
I1
sg37
I0
sg38
(I2
I2
I2
I2
tp74
sbaa(lp75
g0
(g31
g2
Ntp76
Rp77
(dp78
g35
I9
sg36
I1
sg37
I0
sg38
(I2
I2
I2
I2
tp79
sbaa(lp80
g0
(g31
g2
Ntp81
Rp82
(dp83
g35
I10
sg36
I1
sg37
I0
sg38
(I2
I3
I2
I4
tp84
sbaa(lp85
g0
(g31
g2
Ntp86
Rp87
(dp88
g35
I11
sg36
I1
sg37
I0
sg38
(I2
I4
I0
I1
tp89
sbaa(lp90
aa(lp91
(lp92
a(lp93
g0
(g31
g2
Ntp94
Rp95
(dp96
g35
I1
sg36
I2
sg37
I0
sg38
(I1
I1
I1
I1
tp97
sbaa(lp98
g0
(cTiles
Portal
p99
g2
Ntp100
Rp101
(dp102
g35
I2
sg36
I2
sS'i'
p103
I01
sbaa(lp104
g0
(g31
g2
Ntp105
Rp106
(dp107
g35
I3
sg36
I2
sg37
I0
sg38
(I1
I1
I1
I1
tp108
sbaa(lp109
a(lp110
g0
(cTiles
Fruit
p111
g2
Ntp112
Rp113
(dp114
g35
I5
sg36
I2
sS'iid'
p115
I0
sbaa(lp116
a(lp117
a(lp118
a(lp119
a(lp120
g0
(g31
g2
Ntp121
Rp122
(dp123
g35
I10
sg36
I2
sg37
I0
sg38
(I1
I0
I4
I2
tp124
sbaa(lp125
g0
(g31
g2
Ntp126
Rp127
(dp128
g35
I11
sg36
I2
sg37
I0
sg38
(I4
I3
I1
I1
tp129
sbaa(lp130
aa(lp131
(lp132
a(lp133
g0
(g31
g2
Ntp134
Rp135
(dp136
g35
I1
sg36
I3
sg37
I0
sg38
(I1
I1
I1
I1
tp137
sbaa(lp138
g0
(cSnake
SnakeSeg
p139
g2
Ntp140
Rp141
(dp142
g103
I2
sS'gshape'
p143
g0
(cSnake
Snake
p144
g2
Ntp145
Rp146
(dp147
g115
I1
sS'tiles'
p148
(lp149
g141
ag0
(g139
g2
Ntp150
Rp151
(dp152
g103
I10
sg143
g146
sS'snake'
p153
g146
sS'fdir'
p154
I1
sg35
I2
sg36
I4
sS'bdir'
p155
I3
sbag0
(g139
g2
Ntp156
Rp157
(dp158
g103
I10
sg143
g146
sg153
g146
sg154
I1
sg35
I2
sg36
I5
sg155
I3
sbag0
(g139
g2
Ntp159
Rp160
(dp161
g103
I10
sg143
g146
sg153
g146
sg154
I1
sg35
I2
sg36
I6
sg155
I3
sbag0
(g139
g2
Ntp162
Rp163
(dp164
g103
I10
sg143
g146
sg153
g146
sg154
I1
sg35
I2
sg36
I7
sg155
I3
sbag0
(cSnake
SnakeHead
p165
g2
Ntp166
Rp167
(dp168
g35
I2
sg36
I8
sg143
g146
sg153
g146
sS'd'
p169
I1
sbasbsg153
g146
sg154
I1
sg35
I2
sg36
I3
sg155
Nsbaa(lp170
g0
(g31
g2
Ntp171
Rp172
(dp173
g35
I3
sg36
I3
sg37
I0
sg38
(I1
I1
I1
I1
tp174
sbaa(lp175
g0
(g111
g2
Ntp176
Rp177
(dp178
g35
I4
sg36
I3
sg115
I1
sbaa(lp179
g0
(g31
g2
Ntp180
Rp181
(dp182
g35
I5
sg36
I3
sg37
I0
sg38
(I0
I0
I0
I0
tp183
sbaa(lp184
g0
(g111
g2
Ntp185
Rp186
(dp187
g35
I6
sg36
I3
sg115
I2
sbaa(lp188
g0
(g31
g2
Ntp189
Rp190
(dp191
g35
I7
sg36
I3
sg37
I0
sg38
(I0
I1
I0
I1
tp192
sbaa(lp193
a(lp194
g0
(g111
g2
Ntp195
Rp196
(dp197
g35
I9
sg36
I3
sg115
I16
sbaa(lp198
a(lp199
g0
(g31
g2
Ntp200
Rp201
(dp202
g35
I11
sg36
I3
sg37
I0
sg38
(I1
I1
I1
I1
tp203
sbaa(lp204
aa(lp205
(lp206
a(lp207
g0
(g31
g2
Ntp208
Rp209
(dp210
g35
I1
sg36
I4
sg37
I0
sg38
(I1
I1
I1
I1
tp211
sbaa(lp212
g151
aa(lp213
g0
(g31
g2
Ntp214
Rp215
(dp216
g35
I3
sg36
I4
sg37
I0
sg38
(I1
I1
I1
I1
tp217
sbaa(lp218
g0
(g111
g2
Ntp219
Rp220
(dp221
g35
I4
sg36
I4
sg115
I4
sbaa(lp222
a(lp223
g0
(g111
g2
Ntp224
Rp225
(dp226
g35
I6
sg36
I4
sg115
I3
sbaa(lp227
g0
(g31
g2
Ntp228
Rp229
(dp230
g35
I7
sg36
I4
sg37
I0
sg38
(I1
I0
I1
I0
tp231
sbaa(lp232
g0
(g111
g2
Ntp233
Rp234
(dp235
g35
I8
sg36
I4
sg115
I15
sbaa(lp236
g0
(g31
g2
Ntp237
Rp238
(dp239
g35
I9
sg36
I4
sg37
I0
sg38
(I0
I0
I0
I0
tp240
sbaa(lp241
g0
(g111
g2
Ntp242
Rp243
(dp244
g35
I10
sg36
I4
sg115
I17
sbaa(lp245
g0
(g31
g2
Ntp246
Rp247
(dp248
g35
I11
sg36
I4
sg37
I0
sg38
(I1
I1
I1
I1
tp249
sbaa(lp250
aa(lp251
(lp252
a(lp253
g0
(g31
g2
Ntp254
Rp255
(dp256
g35
I1
sg36
I5
sg37
I0
sg38
(I1
I1
I1
I1
tp257
sbaa(lp258
g157
aa(lp259
g0
(g31
g2
Ntp260
Rp261
(dp262
g35
I3
sg36
I5
sg37
I0
sg38
(I1
I1
I1
I1
tp263
sbaa(lp264
a(lp265
g0
(g31
g2
Ntp266
Rp267
(dp268
g35
I5
sg36
I5
sg37
I0
sg38
(I0
I1
I0
I1
tp269
sbaa(lp270
a(lp271
g0
(g111
g2
Ntp272
Rp273
(dp274
g35
I7
sg36
I5
sg115
I8
sbaa(lp275
a(lp276
g0
(g111
g2
Ntp277
Rp278
(dp279
g35
I9
sg36
I5
sg115
I14
sbaa(lp280
a(lp281
g0
(g31
g2
Ntp282
Rp283
(dp284
g35
I11
sg36
I5
sg37
I0
sg38
(I1
I1
I1
I1
tp285
sbaa(lp286
aa(lp287
(lp288
a(lp289
g0
(g31
g2
Ntp290
Rp291
(dp292
g35
I1
sg36
I6
sg37
I0
sg38
(I1
I1
I1
I1
tp293
sbaa(lp294
g160
aa(lp295
g0
(g31
g2
Ntp296
Rp297
(dp298
g35
I3
sg36
I6
sg37
I0
sg38
(I1
I1
I1
I1
tp299
sbaa(lp300
g0
(g111
g2
Ntp301
Rp302
(dp303
g35
I4
sg36
I6
sg115
I5
sbaa(lp304
g0
(g31
g2
Ntp305
Rp306
(dp307
g35
I5
sg36
I6
sg37
I0
sg38
(I1
I0
I1
I0
tp308
sbaa(lp309
g0
(g111
g2
Ntp310
Rp311
(dp312
g35
I6
sg36
I6
sg115
I6
sbaa(lp313
g0
(g31
g2
Ntp314
Rp315
(dp316
g35
I7
sg36
I6
sg37
I0
sg38
(I0
I0
I0
I0
tp317
sbaa(lp318
g0
(g111
g2
Ntp319
Rp320
(dp321
g35
I8
sg36
I6
sg115
I7
sbaa(lp322
g0
(g31
g2
Ntp323
Rp324
(dp325
g35
I9
sg36
I6
sg37
I0
sg38
(I0
I0
I0
I0
tp326
sbaa(lp327
g0
(g111
g2
Ntp328
Rp329
(dp330
g35
I10
sg36
I6
sg115
I18
sbaa(lp331
g0
(g31
g2
Ntp332
Rp333
(dp334
g35
I11
sg36
I6
sg37
I0
sg38
(I1
I1
I1
I1
tp335
sbaa(lp336
aa(lp337
(lp338
a(lp339
g0
(g31
g2
Ntp340
Rp341
(dp342
g35
I1
sg36
I7
sg37
I0
sg38
(I1
I1
I1
I1
tp343
sbaa(lp344
g163
aa(lp345
g0
(g31
g2
Ntp346
Rp347
(dp348
g35
I3
sg36
I7
sg37
I0
sg38
(I1
I1
I1
I1
tp349
sbaa(lp350
a(lp351
g0
(g111
g2
Ntp352
Rp353
(dp354
g35
I5
sg36
I7
sg115
I10
sbaa(lp355
a(lp356
g0
(g111
g2
Ntp357
Rp358
(dp359
g35
I7
sg36
I7
sg115
I9
sbaa(lp360
a(lp361
g0
(g111
g2
Ntp362
Rp363
(dp364
g35
I9
sg36
I7
sg115
I13
sbaa(lp365
a(lp366
g0
(g31
g2
Ntp367
Rp368
(dp369
g35
I11
sg36
I7
sg37
I0
sg38
(I1
I1
I1
I1
tp370
sbaa(lp371
aa(lp372
(lp373
a(lp374
g0
(g31
g2
Ntp375
Rp376
(dp377
g35
I1
sg36
I8
sg37
I0
sg38
(I1
I1
I1
I1
tp378
sbaa(lp379
g167
aa(lp380
g0
(g31
g2
Ntp381
Rp382
(dp383
g35
I3
sg36
I8
sg37
I0
sg38
(I1
I0
I1
I0
tp384
sbaa(lp385
g0
(g111
g2
Ntp386
Rp387
(dp388
g35
I4
sg36
I8
sg115
I23
sbaa(lp389
g0
(g31
g2
Ntp390
Rp391
(dp392
g35
I5
sg36
I8
sg37
I0
sg38
(I0
I0
I0
I0
tp393
sbaa(lp394
g0
(g111
g2
Ntp395
Rp396
(dp397
g35
I6
sg36
I8
sg115
I11
sbaa(lp398
g0
(g31
g2
Ntp399
Rp400
(dp401
g35
I7
sg36
I8
sg37
I0
sg38
(I0
I0
I0
I0
tp402
sbaa(lp403
g0
(g111
g2
Ntp404
Rp405
(dp406
g35
I8
sg36
I8
sg115
I12
sbaa(lp407
g0
(g31
g2
Ntp408
Rp409
(dp410
g35
I9
sg36
I8
sg37
I0
sg38
(I0
I0
I0
I0
tp411
sbaa(lp412
g0
(g111
g2
Ntp413
Rp414
(dp415
g35
I10
sg36
I8
sg115
I19
sbaa(lp416
g0
(g31
g2
Ntp417
Rp418
(dp419
g35
I11
sg36
I8
sg37
I0
sg38
(I1
I1
I1
I1
tp420
sbaa(lp421
aa(lp422
(lp423
a(lp424
g0
(g31
g2
Ntp425
Rp426
(dp427
g35
I1
sg36
I9
sg37
I0
sg38
(I1
I1
I1
I1
tp428
sbaa(lp429
a(lp430
a(lp431
a(lp432
g0
(g111
g2
Ntp433
Rp434
(dp435
g35
I5
sg36
I9
sg115
I22
sbaa(lp436
a(lp437
g0
(g111
g2
Ntp438
Rp439
(dp440
g35
I7
sg36
I9
sg115
I21
sbaa(lp441
a(lp442
g0
(g111
g2
Ntp443
Rp444
(dp445
g35
I9
sg36
I9
sg115
I20
sbaa(lp446
a(lp447
g0
(g31
g2
Ntp448
Rp449
(dp450
g35
I11
sg36
I9
sg37
I0
sg38
(I1
I1
I1
I1
tp451
sbaa(lp452
aa(lp453
(lp454
a(lp455
g0
(g31
g2
Ntp456
Rp457
(dp458
g35
I1
sg36
I10
sg37
I0
sg38
(I1
I0
I3
I2
tp459
sbaa(lp460
g0
(g31
g2
Ntp461
Rp462
(dp463
g35
I2
sg36
I10
sg37
I0
sg38
(I2
I2
I2
I2
tp464
sbaa(lp465
g0
(g31
g2
Ntp466
Rp467
(dp468
g35
I3
sg36
I10
sg37
I0
sg38
(I2
I2
I2
I2
tp469
sbaa(lp470
g0
(g31
g2
Ntp471
Rp472
(dp473
g35
I4
sg36
I10
sg37
I0
sg38
(I2
I2
I2
I2
tp474
sbaa(lp475
g0
(g31
g2
Ntp476
Rp477
(dp478
g35
I5
sg36
I10
sg37
I0
sg38
(I2
I2
I2
I2
tp479
sbaa(lp480
g0
(g31
g2
Ntp481
Rp482
(dp483
g35
I6
sg36
I10
sg37
I0
sg38
(I2
I2
I2
I2
tp484
sbaa(lp485
g0
(g31
g2
Ntp486
Rp487
(dp488
g35
I7
sg36
I10
sg37
I0
sg38
(I2
I2
I2
I2
tp489
sbaa(lp490
g0
(g31
g2
Ntp491
Rp492
(dp493
g35
I8
sg36
I10
sg37
I0
sg38
(I2
I2
I2
I2
tp494
sbaa(lp495
g0
(g31
g2
Ntp496
Rp497
(dp498
g35
I9
sg36
I10
sg37
I0
sg38
(I2
I2
I2
I2
tp499
sbaa(lp500
g0
(g31
g2
Ntp501
Rp502
(dp503
g35
I10
sg36
I10
sg37
I0
sg38
(I2
I2
I2
I2
tp504
sbaa(lp505
g0
(g31
g2
Ntp506
Rp507
(dp508
g35
I11
sg36
I10
sg37
I0
sg38
(I3
I2
I1
I0
tp509
sbaa(lp510
aa(lp511
(lp512
a(lp513
a(lp514
a(lp515
a(lp516
a(lp517
a(lp518
a(lp519
a(lp520
a(lp521
a(lp522
a(lp523
a(lp524
aasS'iscale'
p525
I3
sb.