ccopy_reg
_reconstructor
p0
(cBoard
Board
p1
c__builtin__
object
p2
Ntp3
Rp4
(dp5
S'sy'
p6
I12
sS'sx'
p7
I12
sS'rscale'
p8
I64
sS'ascale'
p9
I4
sS't'
p10
(lp11
(lp12
(lp13
g0
(cTiles
Dirt
p14
g2
Ntp15
Rp16
(dp17
S'y'
p18
I0
sS'x'
p19
I0
sS'corners'
p20
(I4
I4
I4
I4
tp21
sbaa(lp22
g0
(g14
g2
Ntp23
Rp24
(dp25
g18
I1
sg19
I0
sg20
(I4
I4
I1
I1
tp26
sbaa(lp27
a(lp28
a(lp29
a(lp30
a(lp31
a(lp32
a(lp33
g0
(g14
g2
Ntp34
Rp35
(dp36
g18
I8
sg19
I0
sg20
(I1
I0
I4
I2
tp37
sbaa(lp38
g0
(g14
g2
Ntp39
Rp40
(dp41
g18
I9
sg19
I0
sg20
(I4
I3
I4
I4
tp42
sbaa(lp43
g0
(g14
g2
Ntp44
Rp45
(dp46
g18
I10
sg19
I0
sg20
(I4
I4
I4
I4
tp47
sbaa(lp48
g0
(g14
g2
Ntp49
Rp50
(dp51
g18
I11
sg19
I0
sg20
(I4
I4
I4
I4
tp52
sbaaa(lp53
(lp54
g0
(g14
g2
Ntp55
Rp56
(dp57
g18
I0
sg19
I1
sg20
(I4
I4
I4
I3
tp58
sbaa(lp59
g0
(g14
g2
Ntp60
Rp61
(dp62
g18
I1
sg19
I1
sg20
(I4
I2
I1
I0
tp63
sbaa(lp64
a(lp65
a(lp66
a(lp67
a(lp68
a(lp69
a(lp70
a(lp71
g0
(g14
g2
Ntp72
Rp73
(dp74
g18
I9
sg19
I1
sg20
(I1
I0
I4
I2
tp75
sbaa(lp76
g0
(g14
g2
Ntp77
Rp78
(dp79
g18
I10
sg19
I1
sg20
(I4
I3
I4
I4
tp80
sbaa(lp81
g0
(g14
g2
Ntp82
Rp83
(dp84
g18
I11
sg19
I1
sg20
(I4
I4
I4
I4
tp85
sbaaa(lp86
(lp87
g0
(g14
g2
Ntp88
Rp89
(dp90
g18
I0
sg19
I2
sg20
(I4
I4
I1
I1
tp91
sbaa(lp92
g0
(cTiles
Spikes
p93
g2
Ntp94
Rp95
(dp96
g18
I1
sg19
I2
sS'i'
p97
I13
sbaa(lp98
g0
(g93
g2
Ntp99
Rp100
(dp101
g18
I2
sg19
I2
sg97
I1
sbaa(lp102
a(lp103
a(lp104
a(lp105
a(lp106
g0
(cSnake
SnakeSeg
p107
g2
Ntp108
Rp109
(dp110
S'gshape'
p111
g0
(cSnake
Snake
p112
g2
Ntp113
Rp114
(dp115
S'iid'
p116
I9
sS'tiles'
p117
(lp118
g0
(g107
g2
Ntp119
Rp120
(dp121
g111
g114
sS'snake'
p122
g114
sS'fdir'
p123
I0
sg18
I9
sg19
I2
sS'bdir'
p124
Nsbag0
(g107
g2
Ntp125
Rp126
(dp127
g111
g114
sg122
g114
sg123
I0
sg18
I8
sg19
I2
sg124
I2
sbag109
ag0
(g107
g2
Ntp128
Rp129
(dp130
g111
g114
sg122
g114
sg123
I1
sg18
I7
sg19
I3
sg124
I3
sbag0
(cSnake
SnakeHead
p131
g2
Ntp132
Rp133
(dp134
g18
I7
sg19
I4
sg111
g114
sg122
g114
sS'd'
p135
I1
sbasbsg122
g114
sg123
I1
sg18
I7
sg19
I2
sg124
I2
sbaa(lp136
g126
aa(lp137
g120
aa(lp138
g0
(g14
g2
Ntp139
Rp140
(dp141
g18
I10
sg19
I2
sg20
(I1
I1
I4
I4
tp142
sbaa(lp143
g0
(g14
g2
Ntp144
Rp145
(dp146
g18
I11
sg19
I2
sg20
(I4
I4
I4
I4
tp147
sbaaa(lp148
(lp149
g0
(g14
g2
Ntp150
Rp151
(dp152
g18
I0
sg19
I3
sg20
(I4
I4
I1
I1
tp153
sbaa(lp154
a(lp155
a(lp156
a(lp157
a(lp158
a(lp159
a(lp160
g129
aa(lp161
g0
(g14
g2
Ntp162
Rp163
(dp164
g18
I8
sg19
I3
sg20
(I0
I1
I2
I4
tp165
sbaa(lp166
g0
(g14
g2
Ntp167
Rp168
(dp169
g18
I9
sg19
I3
sg20
(I2
I4
I2
I4
tp170
sbaa(lp171
g0
(g14
g2
Ntp172
Rp173
(dp174
g18
I10
sg19
I3
sg20
(I3
I4
I4
I4
tp175
sbaa(lp176
g0
(g14
g2
Ntp177
Rp178
(dp179
g18
I11
sg19
I3
sg20
(I4
I4
I4
I4
tp180
sbaaa(lp181
(lp182
g0
(g14
g2
Ntp183
Rp184
(dp185
g18
I0
sg19
I4
sg20
(I4
I4
I1
I1
tp186
sbaa(lp187
g0
(g93
g2
Ntp188
Rp189
(dp190
g18
I1
sg19
I4
sg97
I3
sbaa(lp191
a(lp192
a(lp193
a(lp194
a(lp195
a(lp196
g133
aa(lp197
g0
(g14
g2
Ntp198
Rp199
(dp200
g18
I8
sg19
I4
sg20
(I1
I0
I4
I2
tp201
sbaa(lp202
g0
(g14
g2
Ntp203
Rp204
(dp205
g18
I9
sg19
I4
sg20
(I4
I3
I4
I4
tp206
sbaa(lp207
g0
(g14
g2
Ntp208
Rp209
(dp210
g18
I10
sg19
I4
sg20
(I4
I4
I4
I4
tp211
sbaa(lp212
g0
(g14
g2
Ntp213
Rp214
(dp215
g18
I11
sg19
I4
sg20
(I4
I4
I4
I4
tp216
sbaaa(lp217
(lp218
g0
(g14
g2
Ntp219
Rp220
(dp221
g18
I0
sg19
I5
sg20
(I4
I4
I1
I1
tp222
sbaa(lp223
g0
(g93
g2
Ntp224
Rp225
(dp226
g18
I1
sg19
I5
sg97
I11
sbaa(lp227
a(lp228
g0
(cTiles
Portal
p229
g2
Ntp230
Rp231
(dp232
g18
I3
sg19
I5
sg97
I01
sbaa(lp233
a(lp234
a(lp235
a(lp236
a(lp237
g0
(cInteractives
XButton
p238
g2
Ntp239
Rp240
(dp241
g18
I8
sg19
I5
sS'col'
p242
I0
sbaa(lp243
g0
(g14
g2
Ntp244
Rp245
(dp246
g18
I9
sg19
I5
sg20
(I1
I1
I4
I4
tp247
sbaa(lp248
g0
(g14
g2
Ntp249
Rp250
(dp251
g18
I10
sg19
I5
sg20
(I4
I4
I4
I4
tp252
sbaa(lp253
g0
(g14
g2
Ntp254
Rp255
(dp256
g18
I11
sg19
I5
sg20
(I4
I4
I4
I4
tp257
sbaaa(lp258
(lp259
g0
(g14
g2
Ntp260
Rp261
(dp262
g18
I0
sg19
I6
sg20
(I4
I2
I3
I2
tp263
sbaa(lp264
g0
(g14
g2
Ntp265
Rp266
(dp267
g18
I1
sg19
I6
sg20
(I2
I2
I0
I0
tp268
sbaa(lp269
a(lp270
a(lp271
a(lp272
a(lp273
a(lp274
g0
(g131
g2
Ntp275
Rp276
(dp277
g18
I7
sg19
I6
sg111
g0
(g112
g2
Ntp278
Rp279
(dp280
g116
I7
sg117
(lp281
g0
(g107
g2
Ntp282
Rp283
(dp284
g111
g279
sg122
g279
sg123
I3
sg18
I7
sg19
I8
sg124
Nsbag0
(g107
g2
Ntp285
Rp286
(dp287
g111
g279
sg122
g279
sg123
I3
sg18
I7
sg19
I7
sg124
I1
sbag276
asbsg122
g279
sg135
I3
sbaa(lp288
g0
(g14
g2
Ntp289
Rp290
(dp291
g18
I8
sg19
I6
sg20
(I0
I1
I2
I4
tp292
sbaa(lp293
g0
(g14
g2
Ntp294
Rp295
(dp296
g18
I9
sg19
I6
sg20
(I3
I4
I4
I4
tp297
sbaa(lp298
g0
(g14
g2
Ntp299
Rp300
(dp301
g18
I10
sg19
I6
sg20
(I4
I4
I4
I4
tp302
sbaa(lp303
g0
(g14
g2
Ntp304
Rp305
(dp306
g18
I11
sg19
I6
sg20
(I4
I4
I4
I4
tp307
sbaaa(lp308
(lp309
g0
(cTiles
Diamond
p310
g2
Ntp311
Rp312
(dp313
g18
I0
sg19
I7
sg111
g0
(cTiles
GravShape
p314
g2
Ntp315
Rp316
(dp317
g117
(lp318
g312
asbsbaa(lp319
g0
(cInteractives
XBlock
p320
g2
Ntp321
Rp322
(dp323
g18
I1
sg19
I7
sS'active'
p324
I1
sg242
I0
sbaa(lp325
a(lp326
a(lp327
a(lp328
a(lp329
a(lp330
g286
aa(lp331
g0
(g14
g2
Ntp332
Rp333
(dp334
g18
I8
sg19
I7
sg20
(I1
I0
I4
I2
tp335
sbaa(lp336
g0
(g14
g2
Ntp337
Rp338
(dp339
g18
I9
sg19
I7
sg20
(I4
I3
I4
I4
tp340
sbaa(lp341
g0
(g14
g2
Ntp342
Rp343
(dp344
g18
I10
sg19
I7
sg20
(I4
I4
I4
I4
tp345
sbaa(lp346
g0
(g14
g2
Ntp347
Rp348
(dp349
g18
I11
sg19
I7
sg20
(I4
I4
I4
I4
tp350
sbaaa(lp351
(lp352
g0
(g14
g2
Ntp353
Rp354
(dp355
g18
I0
sg19
I8
sg20
(I2
I4
I2
I3
tp356
sbaa(lp357
g0
(g14
g2
Ntp358
Rp359
(dp360
g18
I1
sg19
I8
sg20
(I2
I2
I0
I0
tp361
sbaa(lp362
a(lp363
a(lp364
a(lp365
a(lp366
a(lp367
g283
aa(lp368
a(lp369
g0
(g14
g2
Ntp370
Rp371
(dp372
g18
I9
sg19
I8
sg20
(I1
I0
I4
I2
tp373
sbaa(lp374
g0
(g14
g2
Ntp375
Rp376
(dp377
g18
I10
sg19
I8
sg20
(I4
I3
I4
I4
tp378
sbaa(lp379
g0
(g14
g2
Ntp380
Rp381
(dp382
g18
I11
sg19
I8
sg20
(I4
I4
I4
I4
tp383
sbaaa(lp384
(lp385
g0
(g14
g2
Ntp386
Rp387
(dp388
g18
I0
sg19
I9
sg20
(I4
I4
I1
I1
tp389
sbaa(lp390
g0
(g93
g2
Ntp391
Rp392
(dp393
g18
I1
sg19
I9
sg97
I9
sbaa(lp394
a(lp395
a(lp396
a(lp397
a(lp398
a(lp399
a(lp400
a(lp401
a(lp402
g0
(g14
g2
Ntp403
Rp404
(dp405
g18
I10
sg19
I9
sg20
(I1
I1
I4
I4
tp406
sbaa(lp407
g0
(g14
g2
Ntp408
Rp409
(dp410
g18
I11
sg19
I9
sg20
(I4
I4
I4
I4
tp411
sbaaa(lp412
(lp413
g0
(g14
g2
Ntp414
Rp415
(dp416
g18
I0
sg19
I10
sg20
(I4
I4
I1
I1
tp417
sbaa(lp418
a(lp419
a(lp420
a(lp421
a(lp422
a(lp423
a(lp424
a(lp425
a(lp426
g0
(g14
g2
Ntp427
Rp428
(dp429
g18
I9
sg19
I10
sg20
(I0
I1
I2
I4
tp430
sbaa(lp431
g0
(g14
g2
Ntp432
Rp433
(dp434
g18
I10
sg19
I10
sg20
(I3
I4
I4
I4
tp435
sbaa(lp436
g0
(g14
g2
Ntp437
Rp438
(dp439
g18
I11
sg19
I10
sg20
(I4
I4
I4
I4
tp440
sbaaa(lp441
(lp442
g0
(g14
g2
Ntp443
Rp444
(dp445
g18
I0
sg19
I11
sg20
(I4
I4
I3
I4
tp446
sbaa(lp447
g0
(g14
g2
Ntp448
Rp449
(dp450
g18
I1
sg19
I11
sg20
(I2
I4
I0
I1
tp451
sbaa(lp452
g0
(g93
g2
Ntp453
Rp454
(dp455
g18
I2
sg19
I11
sg97
I1
sbaa(lp456
a(lp457
a(lp458
a(lp459
a(lp460
a(lp461
g0
(g14
g2
Ntp462
Rp463
(dp464
g18
I8
sg19
I11
sg20
(I0
I1
I2
I4
tp465
sbaa(lp466
g0
(g14
g2
Ntp467
Rp468
(dp469
g18
I9
sg19
I11
sg20
(I3
I4
I4
I4
tp470
sbaa(lp471
g0
(g14
g2
Ntp472
Rp473
(dp474
g18
I10
sg19
I11
sg20
(I4
I4
I4
I4
tp475
sbaa(lp476
g0
(g14
g2
Ntp477
Rp478
(dp479
g18
I11
sg19
I11
sg20
(I4
I4
I4
I4
tp480
sbaaasS'iscale'
p481
I3
sb.