ccopy_reg
_reconstructor
p0
(cBoard
Board
p1
c__builtin__
object
p2
Ntp3
Rp4
(dp5
S'sy'
p6
I9
sS'sx'
p7
I22
sS'rscale'
p8
I64
sS'ascale'
p9
I4
sS't'
p10
(lp11
(lp12
(lp13
g0
(cTiles
Dirt
p14
g2
Ntp15
Rp16
(dp17
S'y'
p18
I0
sS'x'
p19
I0
sS'corners'
p20
(I4
I4
I4
I4
tp21
sbaa(lp22
g0
(g14
g2
Ntp23
Rp24
(dp25
g18
I1
sg19
I0
sg20
(I4
I4
I1
I1
tp26
sbaa(lp27
a(lp28
a(lp29
a(lp30
a(lp31
a(lp32
g0
(cSnake
SnakeSeg
p33
g2
Ntp34
Rp35
(dp36
S'gshape'
p37
g0
(cSnake
Snake
p38
g2
Ntp39
Rp40
(dp41
S'iid'
p42
I0
sS'tiles'
p43
(lp44
g35
ag0
(g33
g2
Ntp45
Rp46
(dp47
g37
g40
sS'snake'
p48
g40
sS'fdir'
p49
I1
sg18
I7
sg19
I1
sS'bdir'
p50
I3
sbag0
(cSnake
SnakeHead
p51
g2
Ntp52
Rp53
(dp54
g18
I7
sg19
I2
sg37
g40
sg48
g40
sS'd'
p55
I1
sbasbsg48
g40
sg49
I1
sg18
I7
sg19
I0
sg50
Nsbaa(lp56
g0
(g14
g2
Ntp57
Rp58
(dp59
g18
I8
sg19
I0
sg20
(I1
I1
I4
I4
tp60
sbaaa(lp61
(lp62
g0
(g14
g2
Ntp63
Rp64
(dp65
g18
I0
sg19
I1
sg20
(I4
I4
I4
I3
tp66
sbaa(lp67
g0
(g14
g2
Ntp68
Rp69
(dp70
g18
I1
sg19
I1
sg20
(I4
I2
I1
I0
tp71
sbaa(lp72
a(lp73
a(lp74
a(lp75
a(lp76
a(lp77
g46
aa(lp78
g0
(g14
g2
Ntp79
Rp80
(dp81
g18
I8
sg19
I1
sg20
(I1
I1
I4
I4
tp82
sbaaa(lp83
(lp84
g0
(g14
g2
Ntp85
Rp86
(dp87
g18
I0
sg19
I2
sg20
(I4
I2
I1
I0
tp88
sbaa(lp89
a(lp90
a(lp91
a(lp92
a(lp93
a(lp94
a(lp95
g53
aa(lp96
g0
(g14
g2
Ntp97
Rp98
(dp99
g18
I8
sg19
I2
sg20
(I1
I1
I4
I4
tp100
sbaaa(lp101
(lp102
a(lp103
a(lp104
a(lp105
a(lp106
a(lp107
a(lp108
a(lp109
g0
(g14
g2
Ntp110
Rp111
(dp112
g18
I7
sg19
I3
sg20
(I0
I1
I2
I4
tp113
sbaa(lp114
g0
(g14
g2
Ntp115
Rp116
(dp117
g18
I8
sg19
I3
sg20
(I3
I4
I4
I4
tp118
sbaaa(lp119
(lp120
a(lp121
a(lp122
a(lp123
a(lp124
a(lp125
a(lp126
g0
(g14
g2
Ntp127
Rp128
(dp129
g18
I6
sg19
I4
sg20
(I0
I1
I2
I4
tp130
sbaa(lp131
g0
(g14
g2
Ntp132
Rp133
(dp134
g18
I7
sg19
I4
sg20
(I3
I4
I4
I4
tp135
sbaa(lp136
g0
(g14
g2
Ntp137
Rp138
(dp139
g18
I8
sg19
I4
sg20
(I4
I4
I4
I4
tp140
sbaaa(lp141
(lp142
a(lp143
a(lp144
a(lp145
a(lp146
a(lp147
g0
(cTiles
Fruit
p148
g2
Ntp149
Rp150
(dp151
g18
I5
sg19
I5
sg42
I1
sbaa(lp152
g0
(g14
g2
Ntp153
Rp154
(dp155
g18
I6
sg19
I5
sg20
(I1
I0
I4
I2
tp156
sbaa(lp157
g0
(g14
g2
Ntp158
Rp159
(dp160
g18
I7
sg19
I5
sg20
(I4
I3
I4
I4
tp161
sbaa(lp162
g0
(g14
g2
Ntp163
Rp164
(dp165
g18
I8
sg19
I5
sg20
(I4
I4
I4
I4
tp166
sbaaa(lp167
(lp168
a(lp169
a(lp170
a(lp171
a(lp172
a(lp173
a(lp174
a(lp175
g0
(g14
g2
Ntp176
Rp177
(dp178
g18
I7
sg19
I6
sg20
(I1
I1
I4
I4
tp179
sbaa(lp180
g0
(g14
g2
Ntp181
Rp182
(dp183
g18
I8
sg19
I6
sg20
(I4
I4
I4
I4
tp184
sbaaa(lp185
(lp186
a(lp187
a(lp188
a(lp189
a(lp190
a(lp191
a(lp192
a(lp193
g0
(g14
g2
Ntp194
Rp195
(dp196
g18
I7
sg19
I7
sg20
(I1
I1
I4
I4
tp197
sbaa(lp198
g0
(g14
g2
Ntp199
Rp200
(dp201
g18
I8
sg19
I7
sg20
(I4
I4
I4
I4
tp202
sbaaa(lp203
(lp204
a(lp205
a(lp206
a(lp207
a(lp208
a(lp209
a(lp210
g0
(cTiles
Spikes
p211
g2
Ntp212
Rp213
(dp214
g18
I6
sg19
I8
sS'i'
p215
I4
sbaa(lp216
g0
(g14
g2
Ntp217
Rp218
(dp219
g18
I7
sg19
I8
sg20
(I1
I1
I4
I4
tp220
sbaa(lp221
g0
(g14
g2
Ntp222
Rp223
(dp224
g18
I8
sg19
I8
sg20
(I4
I4
I4
I4
tp225
sbaaa(lp226
(lp227
a(lp228
a(lp229
a(lp230
a(lp231
a(lp232
a(lp233
a(lp234
g0
(g14
g2
Ntp235
Rp236
(dp237
g18
I7
sg19
I9
sg20
(I1
I1
I4
I4
tp238
sbaa(lp239
g0
(g14
g2
Ntp240
Rp241
(dp242
g18
I8
sg19
I9
sg20
(I4
I4
I4
I4
tp243
sbaaa(lp244
(lp245
a(lp246
a(lp247
g0
(g148
g2
Ntp248
Rp249
(dp250
g18
I2
sg19
I10
sg42
I2
sbaa(lp251
a(lp252
a(lp253
a(lp254
a(lp255
g0
(g14
g2
Ntp256
Rp257
(dp258
g18
I7
sg19
I10
sg20
(I1
I1
I4
I4
tp259
sbaa(lp260
g0
(g14
g2
Ntp261
Rp262
(dp263
g18
I8
sg19
I10
sg20
(I4
I4
I4
I4
tp264
sbaaa(lp265
(lp266
a(lp267
a(lp268
a(lp269
a(lp270
a(lp271
a(lp272
a(lp273
g0
(g14
g2
Ntp274
Rp275
(dp276
g18
I7
sg19
I11
sg20
(I1
I1
I4
I4
tp277
sbaa(lp278
g0
(g14
g2
Ntp279
Rp280
(dp281
g18
I8
sg19
I11
sg20
(I4
I4
I4
I4
tp282
sbaaa(lp283
(lp284
a(lp285
a(lp286
a(lp287
a(lp288
a(lp289
a(lp290
a(lp291
g0
(g14
g2
Ntp292
Rp293
(dp294
g18
I7
sg19
I12
sg20
(I1
I1
I4
I4
tp295
sbaa(lp296
g0
(g14
g2
Ntp297
Rp298
(dp299
g18
I8
sg19
I12
sg20
(I4
I4
I4
I4
tp300
sbaaa(lp301
(lp302
a(lp303
a(lp304
a(lp305
g0
(g14
g2
Ntp306
Rp307
(dp308
g18
I3
sg19
I13
sg20
(I0
I0
I2
I2
tp309
sbaa(lp310
g0
(g14
g2
Ntp311
Rp312
(dp313
g18
I4
sg19
I13
sg20
(I2
I2
I2
I2
tp314
sbaa(lp315
g0
(g14
g2
Ntp316
Rp317
(dp318
g18
I5
sg19
I13
sg20
(I2
I2
I2
I2
tp319
sbaa(lp320
g0
(g14
g2
Ntp321
Rp322
(dp323
g18
I6
sg19
I13
sg20
(I2
I2
I2
I2
tp324
sbaa(lp325
g0
(g14
g2
Ntp326
Rp327
(dp328
g18
I7
sg19
I13
sg20
(I3
I3
I4
I4
tp329
sbaa(lp330
g0
(g14
g2
Ntp331
Rp332
(dp333
g18
I8
sg19
I13
sg20
(I4
I4
I4
I4
tp334
sbaaa(lp335
(lp336
a(lp337
a(lp338
a(lp339
a(lp340
a(lp341
a(lp342
a(lp343
g0
(g14
g2
Ntp344
Rp345
(dp346
g18
I7
sg19
I14
sg20
(I1
I1
I4
I4
tp347
sbaa(lp348
g0
(g14
g2
Ntp349
Rp350
(dp351
g18
I8
sg19
I14
sg20
(I4
I4
I4
I4
tp352
sbaaa(lp353
(lp354
a(lp355
a(lp356
a(lp357
g0
(g211
g2
Ntp358
Rp359
(dp360
g18
I3
sg19
I15
sg215
I6
sbaa(lp361
g0
(g14
g2
Ntp362
Rp363
(dp364
g18
I4
sg19
I15
sg20
(I0
I1
I2
I3
tp365
sbaa(lp366
g0
(g14
g2
Ntp367
Rp368
(dp369
g18
I5
sg19
I15
sg20
(I2
I2
I0
I0
tp370
sbaa(lp371
a(lp372
g0
(g14
g2
Ntp373
Rp374
(dp375
g18
I7
sg19
I15
sg20
(I1
I1
I4
I4
tp376
sbaa(lp377
g0
(g14
g2
Ntp378
Rp379
(dp380
g18
I8
sg19
I15
sg20
(I4
I4
I4
I4
tp381
sbaaa(lp382
(lp383
a(lp384
a(lp385
a(lp386
g0
(g211
g2
Ntp387
Rp388
(dp389
g18
I3
sg19
I16
sg215
I14
sbaa(lp390
g0
(g14
g2
Ntp391
Rp392
(dp393
g18
I4
sg19
I16
sg20
(I1
I1
I1
I1
tp394
sbaa(lp395
a(lp396
a(lp397
g0
(g14
g2
Ntp398
Rp399
(dp400
g18
I7
sg19
I16
sg20
(I1
I1
I4
I4
tp401
sbaa(lp402
g0
(g14
g2
Ntp403
Rp404
(dp405
g18
I8
sg19
I16
sg20
(I4
I4
I4
I4
tp406
sbaaa(lp407
(lp408
a(lp409
a(lp410
a(lp411
g0
(g211
g2
Ntp412
Rp413
(dp414
g18
I3
sg19
I17
sg215
I14
sbaa(lp415
g0
(g14
g2
Ntp416
Rp417
(dp418
g18
I4
sg19
I17
sg20
(I1
I1
I1
I1
tp419
sbaa(lp420
a(lp421
a(lp422
g0
(g14
g2
Ntp423
Rp424
(dp425
g18
I7
sg19
I17
sg20
(I1
I1
I4
I4
tp426
sbaa(lp427
g0
(g14
g2
Ntp428
Rp429
(dp430
g18
I8
sg19
I17
sg20
(I4
I4
I4
I4
tp431
sbaaa(lp432
(lp433
a(lp434
a(lp435
a(lp436
g0
(g211
g2
Ntp437
Rp438
(dp439
g18
I3
sg19
I18
sg215
I14
sbaa(lp440
g0
(g14
g2
Ntp441
Rp442
(dp443
g18
I4
sg19
I18
sg20
(I1
I1
I1
I1
tp444
sbaa(lp445
a(lp446
a(lp447
g0
(g14
g2
Ntp448
Rp449
(dp450
g18
I7
sg19
I18
sg20
(I1
I1
I4
I4
tp451
sbaa(lp452
g0
(g14
g2
Ntp453
Rp454
(dp455
g18
I8
sg19
I18
sg20
(I4
I4
I4
I4
tp456
sbaaa(lp457
(lp458
a(lp459
a(lp460
a(lp461
g0
(g14
g2
Ntp462
Rp463
(dp464
g18
I3
sg19
I19
sg20
(I0
I1
I2
I4
tp465
sbaa(lp466
g0
(g14
g2
Ntp467
Rp468
(dp469
g18
I4
sg19
I19
sg20
(I3
I4
I1
I1
tp470
sbaa(lp471
g0
(g148
g2
Ntp472
Rp473
(dp474
g18
I5
sg19
I19
sg42
I3
sbaa(lp475
a(lp476
g0
(g14
g2
Ntp477
Rp478
(dp479
g18
I7
sg19
I19
sg20
(I1
I1
I4
I4
tp480
sbaa(lp481
g0
(g14
g2
Ntp482
Rp483
(dp484
g18
I8
sg19
I19
sg20
(I4
I4
I4
I4
tp485
sbaaa(lp486
(lp487
a(lp488
a(lp489
a(lp490
g0
(g14
g2
Ntp491
Rp492
(dp493
g18
I3
sg19
I20
sg20
(I1
I1
I4
I4
tp494
sbaa(lp495
g0
(g14
g2
Ntp496
Rp497
(dp498
g18
I4
sg19
I20
sg20
(I4
I4
I3
I4
tp499
sbaa(lp500
g0
(g14
g2
Ntp501
Rp502
(dp503
g18
I5
sg19
I20
sg20
(I2
I4
I2
I4
tp504
sbaa(lp505
g0
(g14
g2
Ntp506
Rp507
(dp508
g18
I6
sg19
I20
sg20
(I2
I4
I2
I4
tp509
sbaa(lp510
g0
(g14
g2
Ntp511
Rp512
(dp513
g18
I7
sg19
I20
sg20
(I3
I4
I4
I4
tp514
sbaa(lp515
g0
(g14
g2
Ntp516
Rp517
(dp518
g18
I8
sg19
I20
sg20
(I4
I4
I4
I4
tp519
sbaaa(lp520
(lp521
a(lp522
a(lp523
g0
(cTiles
Portal
p524
g2
Ntp525
Rp526
(dp527
g18
I2
sg19
I21
sg215
I01
sbaa(lp528
g0
(g14
g2
Ntp529
Rp530
(dp531
g18
I3
sg19
I21
sg20
(I1
I1
I4
I4
tp532
sbaa(lp533
g0
(g14
g2
Ntp534
Rp535
(dp536
g18
I4
sg19
I21
sg20
(I4
I4
I4
I4
tp537
sbaa(lp538
g0
(g14
g2
Ntp539
Rp540
(dp541
g18
I5
sg19
I21
sg20
(I4
I4
I4
I4
tp542
sbaa(lp543
g0
(g14
g2
Ntp544
Rp545
(dp546
g18
I6
sg19
I21
sg20
(I4
I4
I4
I4
tp547
sbaa(lp548
g0
(g14
g2
Ntp549
Rp550
(dp551
g18
I7
sg19
I21
sg20
(I4
I4
I4
I4
tp552
sbaa(lp553
g0
(g14
g2
Ntp554
Rp555
(dp556
g18
I8
sg19
I21
sg20
(I4
I4
I4
I4
tp557
sbaaasS'iscale'
p558
I3
sb.