ccopy_reg
_reconstructor
p0
(cBoard
Board
p1
c__builtin__
object
p2
Ntp3
Rp4
(dp5
S'sy'
p6
I12
sS'sx'
p7
I9
sS'rscale'
p8
I64
sS'ascale'
p9
I4
sS't'
p10
(lp11
(lp12
(lp13
g0
(cTiles
Dirt
p14
g2
Ntp15
Rp16
(dp17
S'y'
p18
I0
sS'x'
p19
I0
sS'corners'
p20
(I4
I4
I4
I4
tp21
sbaa(lp22
g0
(g14
g2
Ntp23
Rp24
(dp25
g18
I1
sg19
I0
sg20
(I4
I4
I4
I4
tp26
sbaa(lp27
g0
(g14
g2
Ntp28
Rp29
(dp30
g18
I2
sg19
I0
sg20
(I4
I4
I4
I4
tp31
sbaa(lp32
g0
(g14
g2
Ntp33
Rp34
(dp35
g18
I3
sg19
I0
sg20
(I4
I4
I4
I4
tp36
sbaa(lp37
g0
(g14
g2
Ntp38
Rp39
(dp40
g18
I4
sg19
I0
sg20
(I4
I4
I4
I4
tp41
sbaa(lp42
g0
(g14
g2
Ntp43
Rp44
(dp45
g18
I5
sg19
I0
sg20
(I4
I4
I1
I1
tp46
sbaa(lp47
g0
(cSnake
SnakeSeg
p48
g2
Ntp49
Rp50
(dp51
S'gshape'
p52
g0
(cSnake
Snake
p53
g2
Ntp54
Rp55
(dp56
S'iid'
p57
I1
sS'tiles'
p58
(lp59
g50
ag0
(g48
g2
Ntp60
Rp61
(dp62
g52
g55
sS'snake'
p63
g55
sS'fdir'
p64
I2
sg18
I7
sg19
I0
sS'bdir'
p65
I0
sbag0
(g48
g2
Ntp66
Rp67
(dp68
g52
g55
sg63
g55
sg64
I1
sg18
I8
sg19
I0
sg65
I0
sbag0
(cSnake
SnakeHead
p69
g2
Ntp70
Rp71
(dp72
g18
I8
sg19
I1
sg52
g55
sg63
g55
sS'd'
p73
I1
sbasbsg63
g55
sg64
I2
sg18
I6
sg19
I0
sg65
Nsbaa(lp74
g61
aa(lp75
g67
aa(lp76
g0
(g14
g2
Ntp77
Rp78
(dp79
g18
I9
sg19
I0
sg20
(I1
I1
I4
I4
tp80
sbaa(lp81
g0
(g14
g2
Ntp82
Rp83
(dp84
g18
I10
sg19
I0
sg20
(I4
I4
I4
I4
tp85
sbaa(lp86
g0
(g14
g2
Ntp87
Rp88
(dp89
g18
I11
sg19
I0
sg20
(I4
I4
I4
I4
tp90
sbaaa(lp91
(lp92
g0
(g14
g2
Ntp93
Rp94
(dp95
g18
I0
sg19
I1
sg20
(I4
I2
I4
I2
tp96
sbaa(lp97
g0
(g14
g2
Ntp98
Rp99
(dp100
g18
I1
sg19
I1
sg20
(I4
I3
I4
I4
tp101
sbaa(lp102
g0
(g14
g2
Ntp103
Rp104
(dp105
g18
I2
sg19
I1
sg20
(I4
I4
I4
I4
tp106
sbaa(lp107
g0
(g14
g2
Ntp108
Rp109
(dp110
g18
I3
sg19
I1
sg20
(I4
I4
I4
I4
tp111
sbaa(lp112
g0
(g14
g2
Ntp113
Rp114
(dp115
g18
I4
sg19
I1
sg20
(I4
I4
I4
I4
tp116
sbaa(lp117
g0
(g14
g2
Ntp118
Rp119
(dp120
g18
I5
sg19
I1
sg20
(I4
I4
I1
I1
tp121
sbaa(lp122
g0
(cInteractives
XBlock
p123
g2
Ntp124
Rp125
(dp126
g18
I6
sg19
I1
sS'active'
p127
I0
sS'col'
p128
I0
sbaa(lp129
g0
(g123
g2
Ntp130
Rp131
(dp132
g18
I7
sg19
I1
sg127
I0
sg128
I0
sbaa(lp133
g71
aa(lp134
g0
(g14
g2
Ntp135
Rp136
(dp137
g18
I9
sg19
I1
sg20
(I1
I1
I4
I4
tp138
sbaa(lp139
g0
(g14
g2
Ntp140
Rp141
(dp142
g18
I10
sg19
I1
sg20
(I4
I4
I4
I4
tp143
sbaa(lp144
g0
(g14
g2
Ntp145
Rp146
(dp147
g18
I11
sg19
I1
sg20
(I4
I4
I4
I4
tp148
sbaaa(lp149
(lp150
g0
(cTiles
Spikes
p151
g2
Ntp152
Rp153
(dp154
g18
I0
sg19
I2
sS'i'
p155
I12
sbaa(lp156
g0
(g14
g2
Ntp157
Rp158
(dp159
g18
I1
sg19
I2
sg20
(I1
I0
I4
I2
tp160
sbaa(lp161
g0
(g14
g2
Ntp162
Rp163
(dp164
g18
I2
sg19
I2
sg20
(I4
I3
I4
I4
tp165
sbaa(lp166
g0
(g14
g2
Ntp167
Rp168
(dp169
g18
I3
sg19
I2
sg20
(I4
I4
I4
I4
tp170
sbaa(lp171
g0
(g14
g2
Ntp172
Rp173
(dp174
g18
I4
sg19
I2
sg20
(I4
I4
I4
I4
tp175
sbaa(lp176
g0
(g14
g2
Ntp177
Rp178
(dp179
g18
I5
sg19
I2
sg20
(I4
I4
I1
I1
tp180
sbaa(lp181
a(lp182
a(lp183
g0
(g123
g2
Ntp184
Rp185
(dp186
g18
I8
sg19
I2
sg127
I0
sg128
I0
sbaa(lp187
g0
(g14
g2
Ntp188
Rp189
(dp190
g18
I9
sg19
I2
sg20
(I1
I1
I4
I3
tp191
sbaa(lp192
g0
(g14
g2
Ntp193
Rp194
(dp195
g18
I10
sg19
I2
sg20
(I4
I2
I4
I2
tp196
sbaa(lp197
g0
(g14
g2
Ntp198
Rp199
(dp200
g18
I11
sg19
I2
sg20
(I4
I3
I4
I4
tp201
sbaaa(lp202
(lp203
a(lp204
a(lp205
g0
(g14
g2
Ntp206
Rp207
(dp208
g18
I2
sg19
I3
sg20
(I1
I1
I4
I4
tp209
sbaa(lp210
g0
(g14
g2
Ntp211
Rp212
(dp213
g18
I3
sg19
I3
sg20
(I4
I4
I4
I4
tp214
sbaa(lp215
g0
(g14
g2
Ntp216
Rp217
(dp218
g18
I4
sg19
I3
sg20
(I4
I4
I4
I4
tp219
sbaa(lp220
g0
(g14
g2
Ntp221
Rp222
(dp223
g18
I5
sg19
I3
sg20
(I4
I4
I1
I1
tp224
sbaa(lp225
g0
(g123
g2
Ntp226
Rp227
(dp228
g18
I6
sg19
I3
sg127
I1
sg128
I0
sbaa(lp229
g0
(g123
g2
Ntp230
Rp231
(dp232
g18
I7
sg19
I3
sg127
I1
sg128
I1
sbaa(lp233
a(lp234
g0
(g14
g2
Ntp235
Rp236
(dp237
g18
I9
sg19
I3
sg20
(I1
I1
I1
I1
tp238
sbaa(lp239
g0
(cInteractives
XButton
p240
g2
Ntp241
Rp242
(dp243
g18
I10
sg19
I3
sg128
I0
sbaa(lp244
g0
(g14
g2
Ntp245
Rp246
(dp247
g18
I11
sg19
I3
sg20
(I1
I1
I4
I4
tp248
sbaaa(lp249
(lp250
a(lp251
a(lp252
g0
(g14
g2
Ntp253
Rp254
(dp255
g18
I2
sg19
I4
sg20
(I1
I1
I4
I4
tp256
sbaa(lp257
g0
(g14
g2
Ntp258
Rp259
(dp260
g18
I3
sg19
I4
sg20
(I4
I4
I4
I4
tp261
sbaa(lp262
g0
(g14
g2
Ntp263
Rp264
(dp265
g18
I4
sg19
I4
sg20
(I4
I4
I4
I4
tp266
sbaa(lp267
g0
(g14
g2
Ntp268
Rp269
(dp270
g18
I5
sg19
I4
sg20
(I4
I4
I1
I1
tp271
sbaa(lp272
a(lp273
g0
(g123
g2
Ntp274
Rp275
(dp276
g18
I7
sg19
I4
sg127
I1
sg128
I0
sbaa(lp277
g0
(g123
g2
Ntp278
Rp279
(dp280
g18
I8
sg19
I4
sg127
I1
sg128
I0
sbaa(lp281
g0
(g14
g2
Ntp282
Rp283
(dp284
g18
I9
sg19
I4
sg20
(I1
I1
I3
I3
tp285
sbaa(lp286
g0
(g14
g2
Ntp287
Rp288
(dp289
g18
I10
sg19
I4
sg20
(I2
I2
I2
I2
tp290
sbaa(lp291
g0
(g14
g2
Ntp292
Rp293
(dp294
g18
I11
sg19
I4
sg20
(I3
I3
I4
I4
tp295
sbaaa(lp296
(lp297
a(lp298
g0
(g151
g2
Ntp299
Rp300
(dp301
g18
I1
sg19
I5
sg155
I6
sbaa(lp302
g0
(g14
g2
Ntp303
Rp304
(dp305
g18
I2
sg19
I5
sg20
(I1
I1
I4
I4
tp306
sbaa(lp307
g0
(g14
g2
Ntp308
Rp309
(dp310
g18
I3
sg19
I5
sg20
(I4
I4
I4
I4
tp311
sbaa(lp312
g0
(g14
g2
Ntp313
Rp314
(dp315
g18
I4
sg19
I5
sg20
(I4
I4
I4
I4
tp316
sbaa(lp317
g0
(g14
g2
Ntp318
Rp319
(dp320
g18
I5
sg19
I5
sg20
(I4
I4
I1
I1
tp321
sbaa(lp322
g0
(g123
g2
Ntp323
Rp324
(dp325
g18
I6
sg19
I5
sg127
I0
sg128
I1
sbaa(lp326
g0
(g123
g2
Ntp327
Rp328
(dp329
g18
I7
sg19
I5
sg127
I0
sg128
I1
sbaa(lp330
g0
(g123
g2
Ntp331
Rp332
(dp333
g18
I8
sg19
I5
sg127
I0
sg128
I1
sbaa(lp334
g0
(g14
g2
Ntp335
Rp336
(dp337
g18
I9
sg19
I5
sg20
(I1
I1
I1
I1
tp338
sbaa(lp339
g0
(g240
g2
Ntp340
Rp341
(dp342
g18
I10
sg19
I5
sg128
I1
sbaa(lp343
g0
(g14
g2
Ntp344
Rp345
(dp346
g18
I11
sg19
I5
sg20
(I1
I1
I4
I4
tp347
sbaaa(lp348
(lp349
a(lp350
g0
(g151
g2
Ntp351
Rp352
(dp353
g18
I1
sg19
I6
sg155
I12
sbaa(lp354
g0
(g14
g2
Ntp355
Rp356
(dp357
g18
I2
sg19
I6
sg20
(I1
I1
I4
I4
tp358
sbaa(lp359
g0
(g14
g2
Ntp360
Rp361
(dp362
g18
I3
sg19
I6
sg20
(I4
I4
I4
I4
tp363
sbaa(lp364
g0
(g14
g2
Ntp365
Rp366
(dp367
g18
I4
sg19
I6
sg20
(I4
I4
I4
I4
tp368
sbaa(lp369
g0
(g14
g2
Ntp370
Rp371
(dp372
g18
I5
sg19
I6
sg20
(I4
I4
I1
I1
tp373
sbaa(lp374
a(lp375
a(lp376
a(lp377
g0
(g14
g2
Ntp378
Rp379
(dp380
g18
I9
sg19
I6
sg20
(I1
I1
I3
I4
tp381
sbaa(lp382
g0
(g14
g2
Ntp383
Rp384
(dp385
g18
I10
sg19
I6
sg20
(I2
I4
I2
I4
tp386
sbaa(lp387
g0
(g14
g2
Ntp388
Rp389
(dp390
g18
I11
sg19
I6
sg20
(I3
I4
I4
I4
tp391
sbaaa(lp392
(lp393
a(lp394
a(lp395
g0
(g14
g2
Ntp396
Rp397
(dp398
g18
I2
sg19
I7
sg20
(I1
I1
I4
I4
tp399
sbaa(lp400
g0
(g14
g2
Ntp401
Rp402
(dp403
g18
I3
sg19
I7
sg20
(I4
I4
I4
I4
tp404
sbaa(lp405
g0
(g14
g2
Ntp406
Rp407
(dp408
g18
I4
sg19
I7
sg20
(I4
I4
I4
I4
tp409
sbaa(lp410
g0
(g14
g2
Ntp411
Rp412
(dp413
g18
I5
sg19
I7
sg20
(I4
I4
I1
I1
tp414
sbaa(lp415
a(lp416
g0
(g123
g2
Ntp417
Rp418
(dp419
g18
I7
sg19
I7
sg127
I1
sg128
I1
sbaa(lp420
g0
(g123
g2
Ntp421
Rp422
(dp423
g18
I8
sg19
I7
sg127
I1
sg128
I1
sbaa(lp424
g0
(g14
g2
Ntp425
Rp426
(dp427
g18
I9
sg19
I7
sg20
(I1
I1
I4
I4
tp428
sbaa(lp429
g0
(g14
g2
Ntp430
Rp431
(dp432
g18
I10
sg19
I7
sg20
(I4
I4
I4
I4
tp433
sbaa(lp434
g0
(g14
g2
Ntp435
Rp436
(dp437
g18
I11
sg19
I7
sg20
(I4
I4
I4
I4
tp438
sbaaa(lp439
(lp440
a(lp441
a(lp442
g0
(g14
g2
Ntp443
Rp444
(dp445
g18
I2
sg19
I8
sg20
(I1
I1
I4
I4
tp446
sbaa(lp447
g0
(g14
g2
Ntp448
Rp449
(dp450
g18
I3
sg19
I8
sg20
(I4
I4
I4
I4
tp451
sbaa(lp452
g0
(g14
g2
Ntp453
Rp454
(dp455
g18
I4
sg19
I8
sg20
(I4
I4
I4
I4
tp456
sbaa(lp457
g0
(g14
g2
Ntp458
Rp459
(dp460
g18
I5
sg19
I8
sg20
(I4
I4
I1
I1
tp461
sbaa(lp462
g0
(g123
g2
Ntp463
Rp464
(dp465
g18
I6
sg19
I8
sg127
I1
sg128
I1
sbaa(lp466
g0
(cTiles
Portal
p467
g2
Ntp468
Rp469
(dp470
g18
I7
sg19
I8
sg155
I01
sbaa(lp471
a(lp472
g0
(g14
g2
Ntp473
Rp474
(dp475
g18
I9
sg19
I8
sg20
(I1
I1
I4
I4
tp476
sbaa(lp477
g0
(g14
g2
Ntp478
Rp479
(dp480
g18
I10
sg19
I8
sg20
(I4
I4
I4
I4
tp481
sbaa(lp482
g0
(g14
g2
Ntp483
Rp484
(dp485
g18
I11
sg19
I8
sg20
(I4
I4
I4
I4
tp486
sbaaasS'iscale'
p487
I3
sb.