ccopy_reg
_reconstructor
p0
(cBoard
Board
p1
c__builtin__
object
p2
Ntp3
Rp4
(dp5
S'sy'
p6
I12
sS'sx'
p7
I12
sS'rscale'
p8
I64
sS'ascale'
p9
I4
sS't'
p10
(lp11
(lp12
(lp13
a(lp14
g0
(cInteractives
Jelly
p15
g2
Ntp16
Rp17
(dp18
S'y'
p19
I1
sS'x'
p20
I0
sS'gshape'
p21
g0
(cTiles
GravShape
p22
g2
Ntp23
Rp24
(dp25
S'tiles'
p26
(lp27
g17
asbsS'col'
p28
I0
sS'corners'
p29
(I0
I0
I0
I0
tp30
sbaa(lp31
g0
(cTiles
Snow
p32
g2
Ntp33
Rp34
(dp35
g19
I2
sg20
I0
sg29
(I1
I1
I1
I1
tp36
sbaa(lp37
a(lp38
a(lp39
g0
(cInteractives
Penguin
p40
g2
Ntp41
Rp42
(dp43
g19
I5
sg20
I0
sg21
g0
(g22
g2
Ntp44
Rp45
(dp46
g26
(lp47
g42
asbsbaa(lp48
g0
(cInteractives
XBlock
p49
g2
Ntp50
Rp51
(dp52
g19
I6
sg20
I0
sS'active'
p53
I1
sg28
I0
sbaa(lp54
g0
(cTiles
Portal
p55
g2
Ntp56
Rp57
(dp58
g19
I7
sg20
I0
sS'i'
p59
I01
sbaa(lp60
g0
(g32
g2
Ntp61
Rp62
(dp63
g19
I8
sg20
I0
sg29
(I1
I1
I1
I1
tp64
sbaa(lp65
a(lp66
a(lp67
aa(lp68
(lp69
g0
(g15
g2
Ntp70
Rp71
(dp72
g19
I0
sg20
I1
sg21
g0
(g22
g2
Ntp73
Rp74
(dp75
g26
(lp76
g71
asbsg28
I0
sg29
(I0
I0
I0
I0
tp77
sbaa(lp78
g0
(cTiles
WoodPlatform
p79
g2
Ntp80
Rp81
(dp82
g19
I1
sg20
I1
sg59
I0
sbaa(lp83
g0
(g32
g2
Ntp84
Rp85
(dp86
g19
I2
sg20
I1
sg29
(I1
I1
I1
I1
tp87
sbaa(lp88
a(lp89
a(lp90
a(lp91
g0
(g32
g2
Ntp92
Rp93
(dp94
g19
I6
sg20
I1
sg29
(I0
I1
I2
I3
tp95
sbaa(lp96
g0
(g32
g2
Ntp97
Rp98
(dp99
g19
I7
sg20
I1
sg29
(I2
I2
I2
I2
tp100
sbaa(lp101
g0
(g32
g2
Ntp102
Rp103
(dp104
g19
I8
sg20
I1
sg29
(I3
I2
I1
I0
tp105
sbaa(lp106
g0
(cTiles
Spikes
p107
g2
Ntp108
Rp109
(dp110
g19
I9
sg20
I1
sg59
I3
sbaa(lp111
a(lp112
aa(lp113
(lp114
a(lp115
g0
(g15
g2
Ntp116
Rp117
(dp118
g19
I1
sg20
I2
sg21
g0
(g22
g2
Ntp119
Rp120
(dp121
g26
(lp122
g117
asbsg28
I0
sg29
(I0
I0
I0
I0
tp123
sbaa(lp124
g0
(g32
g2
Ntp125
Rp126
(dp127
g19
I2
sg20
I2
sg29
(I1
I1
I3
I4
tp128
sbaa(lp129
g0
(g32
g2
Ntp130
Rp131
(dp132
g19
I3
sg20
I2
sg29
(I2
I4
I2
I4
tp133
sbaa(lp134
g0
(g32
g2
Ntp135
Rp136
(dp137
g19
I4
sg20
I2
sg29
(I2
I4
I0
I1
tp138
sbaa(lp139
a(lp140
g0
(g32
g2
Ntp141
Rp142
(dp143
g19
I6
sg20
I2
sg29
(I1
I1
I1
I1
tp144
sbaa(lp145
a(lp146
a(lp147
g0
(g107
g2
Ntp148
Rp149
(dp150
g19
I9
sg20
I2
sg59
I10
sbaa(lp151
a(lp152
aa(lp153
(lp154
g0
(g15
g2
Ntp155
Rp156
(dp157
g19
I0
sg20
I3
sg21
g0
(g22
g2
Ntp158
Rp159
(dp160
g26
(lp161
g156
asbsg28
I0
sg29
(I0
I0
I0
I0
tp162
sbaa(lp163
g0
(g79
g2
Ntp164
Rp165
(dp166
g19
I1
sg20
I3
sg59
I0
sbaa(lp167
g0
(g32
g2
Ntp168
Rp169
(dp170
g19
I2
sg20
I3
sg29
(I1
I0
I4
I2
tp171
sbaa(lp172
g0
(g32
g2
Ntp173
Rp174
(dp175
g19
I3
sg20
I3
sg29
(I4
I3
I4
I4
tp176
sbaa(lp177
g0
(g32
g2
Ntp178
Rp179
(dp180
g19
I4
sg20
I3
sg29
(I4
I4
I1
I1
tp181
sbaa(lp182
a(lp183
g0
(g32
g2
Ntp184
Rp185
(dp186
g19
I6
sg20
I3
sg29
(I1
I1
I1
I1
tp187
sbaa(lp188
a(lp189
a(lp190
g0
(g107
g2
Ntp191
Rp192
(dp193
g19
I9
sg20
I3
sg59
I10
sbaa(lp194
a(lp195
aa(lp196
(lp197
a(lp198
a(lp199
a(lp200
g0
(g32
g2
Ntp201
Rp202
(dp203
g19
I3
sg20
I4
sg29
(I1
I0
I4
I2
tp204
sbaa(lp205
g0
(g32
g2
Ntp206
Rp207
(dp208
g19
I4
sg20
I4
sg29
(I4
I3
I1
I1
tp209
sbaa(lp210
a(lp211
g0
(g32
g2
Ntp212
Rp213
(dp214
g19
I6
sg20
I4
sg29
(I1
I0
I1
I0
tp215
sbaa(lp216
a(lp217
a(lp218
g0
(g107
g2
Ntp219
Rp220
(dp221
g19
I9
sg20
I4
sg59
I10
sbaa(lp222
a(lp223
aa(lp224
(lp225
g0
(g15
g2
Ntp226
Rp227
(dp228
g19
I0
sg20
I5
sg21
g0
(g22
g2
Ntp229
Rp230
(dp231
g26
(lp232
g227
asbsg28
I0
sg29
(I0
I0
I0
I0
tp233
sbaa(lp234
g0
(g32
g2
Ntp235
Rp236
(dp237
g19
I1
sg20
I5
sg29
(I0
I1
I0
I1
tp238
sbaa(lp239
a(lp240
a(lp241
g0
(g32
g2
Ntp242
Rp243
(dp244
g19
I4
sg20
I5
sg29
(I1
I1
I1
I1
tp245
sbaa(lp246
a(lp247
a(lp248
a(lp249
a(lp250
g0
(g107
g2
Ntp251
Rp252
(dp253
g19
I9
sg20
I5
sg59
I10
sbaa(lp254
a(lp255
aa(lp256
(lp257
g0
(g32
g2
Ntp258
Rp259
(dp260
g19
I0
sg20
I6
sg29
(I2
I2
I2
I2
tp261
sbaa(lp262
g0
(g32
g2
Ntp263
Rp264
(dp265
g19
I1
sg20
I6
sg29
(I3
I2
I1
I0
tp266
sbaa(lp267
a(lp268
a(lp269
g0
(g32
g2
Ntp270
Rp271
(dp272
g19
I4
sg20
I6
sg29
(I1
I0
I1
I0
tp273
sbaa(lp274
a(lp275
a(lp276
a(lp277
a(lp278
g0
(g107
g2
Ntp279
Rp280
(dp281
g19
I9
sg20
I6
sg59
I10
sbaa(lp282
a(lp283
aa(lp284
(lp285
g0
(g55
g2
Ntp286
Rp287
(dp288
g19
I0
sg20
I7
sg59
I01
sbaa(lp289
a(lp290
a(lp291
a(lp292
g0
(g107
g2
Ntp293
Rp294
(dp295
g19
I4
sg20
I7
sg59
I10
sbaa(lp296
a(lp297
a(lp298
a(lp299
a(lp300
g0
(g107
g2
Ntp301
Rp302
(dp303
g19
I9
sg20
I7
sg59
I10
sbaa(lp304
a(lp305
aa(lp306
(lp307
a(lp308
a(lp309
a(lp310
g0
(cSnake
IronSnakeHead
p311
g2
Ntp312
Rp313
(dp314
g19
I3
sg20
I8
sg21
g0
(cSnake
IronSnake
p315
g2
Ntp316
Rp317
(dp318
S'iid'
p319
I1
sg26
(lp320
g0
(cSnake
IronSnakeSeg
p321
g2
Ntp322
Rp323
(dp324
g21
g317
sS'snake'
p325
g317
sS'fdir'
p326
I8
sg19
I3
sg20
I10
sS'bdir'
p327
I0
sbag0
(g321
g2
Ntp328
Rp329
(dp330
g21
g317
sg325
g317
sg326
I8
sg19
I3
sg20
I9
sg327
I2
sbag313
asbsg325
g317
sS'd'
p331
I3
sbaa(lp332
g0
(g107
g2
Ntp333
Rp334
(dp335
g19
I4
sg20
I8
sg59
I14
sbaa(lp336
g0
(cInteractives
XSwitch
p337
g2
Ntp338
Rp339
(dp340
g19
I5
sg20
I8
sS'r'
p341
I1
sg53
I01
sg28
I0
sbaa(lp342
a(lp343
a(lp344
a(lp345
g0
(g107
g2
Ntp346
Rp347
(dp348
g19
I9
sg20
I8
sg59
I10
sbaa(lp349
a(lp350
aa(lp351
(lp352
a(lp353
a(lp354
a(lp355
g329
aa(lp356
g0
(g32
g2
Ntp357
Rp358
(dp359
g19
I4
sg20
I9
sg29
(I0
I1
I2
I3
tp360
sbaa(lp361
g0
(g32
g2
Ntp362
Rp363
(dp364
g19
I5
sg20
I9
sg29
(I2
I2
I0
I0
tp365
sbaa(lp366
a(lp367
g0
(g32
g2
Ntp368
Rp369
(dp370
g19
I7
sg20
I9
sg29
(I0
I1
I2
I4
tp371
sbaa(lp372
g0
(g32
g2
Ntp373
Rp374
(dp375
g19
I8
sg20
I9
sg29
(I2
I4
I2
I4
tp376
sbaa(lp377
g0
(g32
g2
Ntp378
Rp379
(dp380
g19
I9
sg20
I9
sg29
(I2
I4
I0
I1
tp381
sbaa(lp382
a(lp383
aa(lp384
(lp385
a(lp386
a(lp387
a(lp388
g323
aa(lp389
g0
(g32
g2
Ntp390
Rp391
(dp392
g19
I4
sg20
I10
sg29
(I1
I0
I1
I0
tp393
sbaa(lp394
a(lp395
a(lp396
g0
(g32
g2
Ntp397
Rp398
(dp399
g19
I7
sg20
I10
sg29
(I1
I1
I4
I4
tp400
sbaa(lp401
g0
(g32
g2
Ntp402
Rp403
(dp404
g19
I8
sg20
I10
sg29
(I4
I4
I4
I4
tp405
sbaa(lp406
g0
(g32
g2
Ntp407
Rp408
(dp409
g19
I9
sg20
I10
sg29
(I4
I4
I3
I4
tp410
sbaa(lp411
g0
(g32
g2
Ntp412
Rp413
(dp414
g19
I10
sg20
I10
sg29
(I2
I4
I2
I4
tp415
sbaa(lp416
g0
(g32
g2
Ntp417
Rp418
(dp419
g19
I11
sg20
I10
sg29
(I2
I4
I2
I4
tp420
sbaaa(lp421
(lp422
a(lp423
a(lp424
a(lp425
a(lp426
a(lp427
a(lp428
a(lp429
g0
(g32
g2
Ntp430
Rp431
(dp432
g19
I7
sg20
I11
sg29
(I1
I1
I4
I4
tp433
sbaa(lp434
g0
(g32
g2
Ntp435
Rp436
(dp437
g19
I8
sg20
I11
sg29
(I4
I4
I4
I4
tp438
sbaa(lp439
g0
(g32
g2
Ntp440
Rp441
(dp442
g19
I9
sg20
I11
sg29
(I4
I4
I4
I4
tp443
sbaa(lp444
g0
(g32
g2
Ntp445
Rp446
(dp447
g19
I10
sg20
I11
sg29
(I4
I4
I4
I4
tp448
sbaa(lp449
g0
(g32
g2
Ntp450
Rp451
(dp452
g19
I11
sg20
I11
sg29
(I4
I4
I4
I4
tp453
sbaaasS'iscale'
p454
I3
sb.