ccopy_reg
_reconstructor
p0
(cBoard
Board
p1
c__builtin__
object
p2
Ntp3
Rp4
(dp5
S'sy'
p6
I12
sS'sx'
p7
I12
sS'rscale'
p8
I64
sS'ascale'
p9
I4
sS'music'
p10
S'Snow'
p11
sS't'
p12
(lp13
(lp14
(lp15
a(lp16
a(lp17
a(lp18
a(lp19
a(lp20
a(lp21
a(lp22
a(lp23
a(lp24
a(lp25
g0
(cTiles
Spikes
p26
g2
Ntp27
Rp28
(dp29
S'y'
p30
I10
sS'x'
p31
I0
sS'i'
p32
I6
sbaa(lp33
g0
(cTiles
Snow
p34
g2
Ntp35
Rp36
(dp37
g30
I11
sg31
I0
sS'corners'
p38
(I1
I1
I4
I4
tp39
sbaaa(lp40
(lp41
a(lp42
a(lp43
g0
(g34
g2
Ntp44
Rp45
(dp46
g30
I2
sg31
I1
sg38
(I0
I1
I2
I4
tp47
sbaa(lp48
g0
(g34
g2
Ntp49
Rp50
(dp51
g30
I3
sg31
I1
sg38
(I2
I4
I0
I1
tp52
sbaa(lp53
a(lp54
a(lp55
a(lp56
a(lp57
a(lp58
a(lp59
g0
(g26
g2
Ntp60
Rp61
(dp62
g30
I10
sg31
I1
sg32
I14
sbaa(lp63
g0
(g34
g2
Ntp64
Rp65
(dp66
g30
I11
sg31
I1
sg38
(I1
I1
I4
I4
tp67
sbaaa(lp68
(lp69
a(lp70
a(lp71
g0
(g34
g2
Ntp72
Rp73
(dp74
g30
I2
sg31
I2
sg38
(I1
I1
I4
I3
tp75
sbaa(lp76
g0
(g34
g2
Ntp77
Rp78
(dp79
g30
I3
sg31
I2
sg38
(I4
I2
I1
I0
tp80
sbaa(lp81
a(lp82
a(lp83
a(lp84
a(lp85
g0
(cInteractives
Jelly
p86
g2
Ntp87
Rp88
(dp89
g30
I8
sg31
I2
sS'gshape'
p90
g0
(cTiles
GravShape
p91
g2
Ntp92
Rp93
(dp94
S'tiles'
p95
(lp96
g88
asbsS'col'
p97
I3
sg38
(I0
I0
I0
I0
tp98
sbaa(lp99
g0
(g34
g2
Ntp100
Rp101
(dp102
g30
I9
sg31
I2
sg38
(I0
I1
I2
I4
tp103
sbaa(lp104
g0
(g34
g2
Ntp105
Rp106
(dp107
g30
I10
sg31
I2
sg38
(I2
I4
I2
I4
tp108
sbaa(lp109
g0
(g34
g2
Ntp110
Rp111
(dp112
g30
I11
sg31
I2
sg38
(I3
I4
I4
I4
tp113
sbaaa(lp114
(lp115
a(lp116
a(lp117
g0
(g34
g2
Ntp118
Rp119
(dp120
g30
I2
sg31
I3
sg38
(I1
I0
I1
I0
tp121
sbaa(lp122
a(lp123
a(lp124
a(lp125
a(lp126
a(lp127
a(lp128
g0
(g34
g2
Ntp129
Rp130
(dp131
g30
I9
sg31
I3
sg38
(I1
I1
I4
I4
tp132
sbaa(lp133
g0
(g34
g2
Ntp134
Rp135
(dp136
g30
I10
sg31
I3
sg38
(I4
I4
I4
I4
tp137
sbaa(lp138
g0
(g34
g2
Ntp139
Rp140
(dp141
g30
I11
sg31
I3
sg38
(I4
I4
I4
I4
tp142
sbaaa(lp143
(lp144
a(lp145
a(lp146
a(lp147
a(lp148
a(lp149
g0
(g86
g2
Ntp150
Rp151
(dp152
g30
I5
sg31
I4
sg90
g0
(g91
g2
Ntp153
Rp154
(dp155
g95
(lp156
g151
asbsg97
I1
sg38
(I0
I0
I0
I0
tp157
sbaa(lp158
g0
(g34
g2
Ntp159
Rp160
(dp161
g30
I6
sg31
I4
sg38
(I0
I1
I0
I1
tp162
sbaa(lp163
a(lp164
a(lp165
g0
(g34
g2
Ntp166
Rp167
(dp168
g30
I9
sg31
I4
sg38
(I1
I1
I4
I4
tp169
sbaa(lp170
g0
(g34
g2
Ntp171
Rp172
(dp173
g30
I10
sg31
I4
sg38
(I4
I4
I4
I4
tp174
sbaa(lp175
g0
(g34
g2
Ntp176
Rp177
(dp178
g30
I11
sg31
I4
sg38
(I4
I4
I4
I4
tp179
sbaaa(lp180
(lp181
a(lp182
a(lp183
a(lp184
a(lp185
a(lp186
a(lp187
g0
(g34
g2
Ntp188
Rp189
(dp190
g30
I6
sg31
I5
sg38
(I1
I0
I1
I0
tp191
sbaa(lp192
a(lp193
g0
(g86
g2
Ntp194
Rp195
(dp196
g30
I8
sg31
I5
sg90
g0
(g91
g2
Ntp197
Rp198
(dp199
g95
(lp200
g195
asbsg97
I1
sg38
(I0
I0
I0
I0
tp201
sbaa(lp202
g0
(g34
g2
Ntp203
Rp204
(dp205
g30
I9
sg31
I5
sg38
(I1
I0
I4
I2
tp206
sbaa(lp207
g0
(g34
g2
Ntp208
Rp209
(dp210
g30
I10
sg31
I5
sg38
(I4
I3
I4
I4
tp211
sbaa(lp212
g0
(g34
g2
Ntp213
Rp214
(dp215
g30
I11
sg31
I5
sg38
(I4
I4
I4
I4
tp216
sbaaa(lp217
(lp218
a(lp219
a(lp220
a(lp221
a(lp222
a(lp223
a(lp224
a(lp225
a(lp226
a(lp227
a(lp228
g0
(g34
g2
Ntp229
Rp230
(dp231
g30
I10
sg31
I6
sg38
(I1
I1
I4
I4
tp232
sbaa(lp233
g0
(g34
g2
Ntp234
Rp235
(dp236
g30
I11
sg31
I6
sg38
(I4
I4
I4
I4
tp237
sbaaa(lp238
(lp239
a(lp240
a(lp241
a(lp242
a(lp243
a(lp244
a(lp245
a(lp246
a(lp247
a(lp248
g0
(g34
g2
Ntp249
Rp250
(dp251
g30
I9
sg31
I7
sg38
(I0
I1
I2
I4
tp252
sbaa(lp253
g0
(g34
g2
Ntp254
Rp255
(dp256
g30
I10
sg31
I7
sg38
(I3
I4
I4
I4
tp257
sbaa(lp258
g0
(g34
g2
Ntp259
Rp260
(dp261
g30
I11
sg31
I7
sg38
(I4
I4
I4
I4
tp262
sbaaa(lp263
(lp264
a(lp265
a(lp266
a(lp267
a(lp268
a(lp269
a(lp270
g0
(g34
g2
Ntp271
Rp272
(dp273
g30
I6
sg31
I8
sg38
(I0
I1
I0
I1
tp274
sbaa(lp275
a(lp276
a(lp277
g0
(g34
g2
Ntp278
Rp279
(dp280
g30
I9
sg31
I8
sg38
(I1
I1
I4
I4
tp281
sbaa(lp282
g0
(g34
g2
Ntp283
Rp284
(dp285
g30
I10
sg31
I8
sg38
(I4
I4
I4
I4
tp286
sbaa(lp287
g0
(g34
g2
Ntp288
Rp289
(dp290
g30
I11
sg31
I8
sg38
(I4
I4
I4
I4
tp291
sbaaa(lp292
(lp293
a(lp294
a(lp295
a(lp296
a(lp297
a(lp298
g0
(g86
g2
Ntp299
Rp300
(dp301
g30
I5
sg31
I9
sg90
g0
(g91
g2
Ntp302
Rp303
(dp304
g95
(lp305
g300
asbsg97
I3
sg38
(I0
I0
I0
I0
tp306
sbaa(lp307
g0
(g34
g2
Ntp308
Rp309
(dp310
g30
I6
sg31
I9
sg38
(I1
I0
I1
I0
tp311
sbaa(lp312
a(lp313
a(lp314
g0
(g34
g2
Ntp315
Rp316
(dp317
g30
I9
sg31
I9
sg38
(I1
I1
I4
I4
tp318
sbaa(lp319
g0
(g34
g2
Ntp320
Rp321
(dp322
g30
I10
sg31
I9
sg38
(I4
I4
I4
I4
tp323
sbaa(lp324
g0
(g34
g2
Ntp325
Rp326
(dp327
g30
I11
sg31
I9
sg38
(I4
I4
I4
I4
tp328
sbaaa(lp329
(lp330
a(lp331
a(lp332
a(lp333
a(lp334
a(lp335
a(lp336
a(lp337
a(lp338
a(lp339
g0
(g34
g2
Ntp340
Rp341
(dp342
g30
I9
sg31
I10
sg38
(I1
I0
I4
I2
tp343
sbaa(lp344
g0
(g34
g2
Ntp345
Rp346
(dp347
g30
I10
sg31
I10
sg38
(I4
I3
I4
I4
tp348
sbaa(lp349
g0
(g34
g2
Ntp350
Rp351
(dp352
g30
I11
sg31
I10
sg38
(I4
I4
I4
I4
tp353
sbaaa(lp354
(lp355
a(lp356
a(lp357
a(lp358
a(lp359
a(lp360
a(lp361
a(lp362
a(lp363
a(lp364
g0
(g26
g2
Ntp365
Rp366
(dp367
g30
I9
sg31
I11
sg32
I12
sbaa(lp368
g0
(g34
g2
Ntp369
Rp370
(dp371
g30
I10
sg31
I11
sg38
(I1
I1
I4
I4
tp372
sbaa(lp373
g0
(g34
g2
Ntp374
Rp375
(dp376
g30
I11
sg31
I11
sg38
(I4
I4
I4
I4
tp377
sbaaasS'iscale'
p378
I3
sb.