ccopy_reg
_reconstructor
p0
(cBoard
Board
p1
c__builtin__
object
p2
Ntp3
Rp4
(dp5
S'sy'
p6
I12
sS'sx'
p7
I12
sS'rscale'
p8
I64
sS'ascale'
p9
I4
sS'music'
p10
S'Snow'
p11
sS't'
p12
(lp13
(lp14
(lp15
g0
(cTiles
Air
p16
g2
Ntp17
Rp18
(dp19
S'y'
p20
I0
sS'x'
p21
I0
sbaa(lp22
g0
(g16
g2
Ntp23
Rp24
(dp25
g20
I1
sg21
I0
sbaa(lp26
g0
(g16
g2
Ntp27
Rp28
(dp29
g20
I2
sg21
I0
sbaa(lp30
g0
(g16
g2
Ntp31
Rp32
(dp33
g20
I3
sg21
I0
sbaa(lp34
g0
(g16
g2
Ntp35
Rp36
(dp37
g20
I4
sg21
I0
sbaa(lp38
g0
(g16
g2
Ntp39
Rp40
(dp41
g20
I5
sg21
I0
sbaa(lp42
g0
(g16
g2
Ntp43
Rp44
(dp45
g20
I6
sg21
I0
sbaa(lp46
g0
(g16
g2
Ntp47
Rp48
(dp49
g20
I7
sg21
I0
sbaa(lp50
g0
(g16
g2
Ntp51
Rp52
(dp53
g20
I8
sg21
I0
sbaa(lp54
g0
(g16
g2
Ntp55
Rp56
(dp57
g20
I9
sg21
I0
sbaa(lp58
g0
(cTiles
Spikes
p59
g2
Ntp60
Rp61
(dp62
g20
I10
sg21
I0
sS'i'
p63
I6
sbaa(lp64
g0
(cTiles
Snow
p65
g2
Ntp66
Rp67
(dp68
g20
I11
sg21
I0
sS'corners'
p69
(I1
I1
I4
I4
tp70
sbaaa(lp71
(lp72
g0
(g16
g2
Ntp73
Rp74
(dp75
g20
I0
sg21
I1
sbaa(lp76
g0
(g16
g2
Ntp77
Rp78
(dp79
g20
I1
sg21
I1
sbaa(lp80
g0
(g65
g2
Ntp81
Rp82
(dp83
g20
I2
sg21
I1
sg69
(I0
I1
I2
I4
tp84
sbaa(lp85
g0
(g65
g2
Ntp86
Rp87
(dp88
g20
I3
sg21
I1
sg69
(I2
I4
I0
I1
tp89
sbaa(lp90
g0
(g16
g2
Ntp91
Rp92
(dp93
g20
I4
sg21
I1
sbaa(lp94
g0
(g16
g2
Ntp95
Rp96
(dp97
g20
I5
sg21
I1
sbaa(lp98
g0
(g16
g2
Ntp99
Rp100
(dp101
g20
I6
sg21
I1
sbaa(lp102
g0
(g16
g2
Ntp103
Rp104
(dp105
g20
I7
sg21
I1
sbaa(lp106
g0
(g16
g2
Ntp107
Rp108
(dp109
g20
I8
sg21
I1
sbaa(lp110
g0
(g16
g2
Ntp111
Rp112
(dp113
g20
I9
sg21
I1
sbaa(lp114
g0
(g59
g2
Ntp115
Rp116
(dp117
g20
I10
sg21
I1
sg63
I14
sbaa(lp118
g0
(g65
g2
Ntp119
Rp120
(dp121
g20
I11
sg21
I1
sg69
(I1
I1
I4
I4
tp122
sbaaa(lp123
(lp124
g0
(g16
g2
Ntp125
Rp126
(dp127
g20
I0
sg21
I2
sbaa(lp128
g0
(g16
g2
Ntp129
Rp130
(dp131
g20
I1
sg21
I2
sbaa(lp132
g0
(g65
g2
Ntp133
Rp134
(dp135
g20
I2
sg21
I2
sg69
(I1
I1
I4
I3
tp136
sbaa(lp137
g0
(g65
g2
Ntp138
Rp139
(dp140
g20
I3
sg21
I2
sg69
(I4
I2
I1
I0
tp141
sbaa(lp142
g0
(g16
g2
Ntp143
Rp144
(dp145
g20
I4
sg21
I2
sbaa(lp146
g0
(g16
g2
Ntp147
Rp148
(dp149
g20
I5
sg21
I2
sbaa(lp150
g0
(g16
g2
Ntp151
Rp152
(dp153
g20
I6
sg21
I2
sbaa(lp154
g0
(g16
g2
Ntp155
Rp156
(dp157
g20
I7
sg21
I2
sbaa(lp158
g0
(g16
g2
Ntp159
Rp160
(dp161
g20
I8
sg21
I2
sbag0
(cInteractives
Jelly
p162
g2
Ntp163
Rp164
(dp165
g20
I8
sg21
I2
sS'gshape'
p166
g0
(cTiles
GravShape
p167
g2
Ntp168
Rp169
(dp170
S'tiles'
p171
(lp172
g164
asbsS'col'
p173
I3
sg69
(I0
I0
I0
I0
tp174
sbaa(lp175
g0
(g65
g2
Ntp176
Rp177
(dp178
g20
I9
sg21
I2
sg69
(I0
I1
I2
I4
tp179
sbaa(lp180
g0
(g65
g2
Ntp181
Rp182
(dp183
g20
I10
sg21
I2
sg69
(I2
I4
I2
I4
tp184
sbaa(lp185
g0
(g65
g2
Ntp186
Rp187
(dp188
g20
I11
sg21
I2
sg69
(I3
I4
I4
I4
tp189
sbaaa(lp190
(lp191
g0
(g16
g2
Ntp192
Rp193
(dp194
g20
I0
sg21
I3
sbaa(lp195
g0
(g16
g2
Ntp196
Rp197
(dp198
g20
I1
sg21
I3
sbaa(lp199
g0
(g65
g2
Ntp200
Rp201
(dp202
g20
I2
sg21
I3
sg69
(I1
I0
I1
I0
tp203
sbaa(lp204
g0
(g16
g2
Ntp205
Rp206
(dp207
g20
I3
sg21
I3
sbaa(lp208
g0
(g16
g2
Ntp209
Rp210
(dp211
g20
I4
sg21
I3
sbaa(lp212
g0
(g16
g2
Ntp213
Rp214
(dp215
g20
I5
sg21
I3
sbaa(lp216
g0
(g16
g2
Ntp217
Rp218
(dp219
g20
I6
sg21
I3
sbaa(lp220
g0
(g16
g2
Ntp221
Rp222
(dp223
g20
I7
sg21
I3
sbaa(lp224
g0
(g16
g2
Ntp225
Rp226
(dp227
g20
I8
sg21
I3
sbaa(lp228
g0
(g65
g2
Ntp229
Rp230
(dp231
g20
I9
sg21
I3
sg69
(I1
I1
I4
I4
tp232
sbaa(lp233
g0
(g65
g2
Ntp234
Rp235
(dp236
g20
I10
sg21
I3
sg69
(I4
I4
I4
I4
tp237
sbaa(lp238
g0
(g65
g2
Ntp239
Rp240
(dp241
g20
I11
sg21
I3
sg69
(I4
I4
I4
I4
tp242
sbaaa(lp243
(lp244
g0
(g16
g2
Ntp245
Rp246
(dp247
g20
I0
sg21
I4
sbaa(lp248
g0
(g16
g2
Ntp249
Rp250
(dp251
g20
I1
sg21
I4
sbaa(lp252
g0
(g16
g2
Ntp253
Rp254
(dp255
g20
I2
sg21
I4
sbaa(lp256
g0
(g16
g2
Ntp257
Rp258
(dp259
g20
I3
sg21
I4
sbaa(lp260
g0
(g16
g2
Ntp261
Rp262
(dp263
g20
I4
sg21
I4
sbaa(lp264
g0
(g16
g2
Ntp265
Rp266
(dp267
g20
I5
sg21
I4
sbag0
(g162
g2
Ntp268
Rp269
(dp270
g20
I5
sg21
I4
sg166
g0
(g167
g2
Ntp271
Rp272
(dp273
g171
(lp274
g269
asbsg173
I1
sg69
(I0
I0
I0
I0
tp275
sbaa(lp276
g0
(g65
g2
Ntp277
Rp278
(dp279
g20
I6
sg21
I4
sg69
(I0
I1
I0
I1
tp280
sbaa(lp281
g0
(g16
g2
Ntp282
Rp283
(dp284
g20
I7
sg21
I4
sbaa(lp285
g0
(g16
g2
Ntp286
Rp287
(dp288
g20
I8
sg21
I4
sbaa(lp289
g0
(g65
g2
Ntp290
Rp291
(dp292
g20
I9
sg21
I4
sg69
(I1
I1
I4
I4
tp293
sbaa(lp294
g0
(g65
g2
Ntp295
Rp296
(dp297
g20
I10
sg21
I4
sg69
(I4
I4
I4
I4
tp298
sbaa(lp299
g0
(g65
g2
Ntp300
Rp301
(dp302
g20
I11
sg21
I4
sg69
(I4
I4
I4
I4
tp303
sbaaa(lp304
(lp305
g0
(g16
g2
Ntp306
Rp307
(dp308
g20
I0
sg21
I5
sbaa(lp309
g0
(g16
g2
Ntp310
Rp311
(dp312
g20
I1
sg21
I5
sbaa(lp313
g0
(g16
g2
Ntp314
Rp315
(dp316
g20
I2
sg21
I5
sbaa(lp317
g0
(g16
g2
Ntp318
Rp319
(dp320
g20
I3
sg21
I5
sbaa(lp321
g0
(g16
g2
Ntp322
Rp323
(dp324
g20
I4
sg21
I5
sbaa(lp325
g0
(g16
g2
Ntp326
Rp327
(dp328
g20
I5
sg21
I5
sbaa(lp329
g0
(g65
g2
Ntp330
Rp331
(dp332
g20
I6
sg21
I5
sg69
(I1
I0
I1
I0
tp333
sbaa(lp334
g0
(g16
g2
Ntp335
Rp336
(dp337
g20
I7
sg21
I5
sbaa(lp338
g0
(g16
g2
Ntp339
Rp340
(dp341
g20
I8
sg21
I5
sbag0
(g162
g2
Ntp342
Rp343
(dp344
g20
I8
sg21
I5
sg166
g0
(g167
g2
Ntp345
Rp346
(dp347
g171
(lp348
g343
asbsg173
I1
sg69
(I0
I0
I0
I0
tp349
sbaa(lp350
g0
(g65
g2
Ntp351
Rp352
(dp353
g20
I9
sg21
I5
sg69
(I1
I0
I4
I2
tp354
sbaa(lp355
g0
(g65
g2
Ntp356
Rp357
(dp358
g20
I10
sg21
I5
sg69
(I4
I3
I4
I4
tp359
sbaa(lp360
g0
(g65
g2
Ntp361
Rp362
(dp363
g20
I11
sg21
I5
sg69
(I4
I4
I4
I4
tp364
sbaaa(lp365
(lp366
g0
(g16
g2
Ntp367
Rp368
(dp369
g20
I0
sg21
I6
sbaa(lp370
g0
(g16
g2
Ntp371
Rp372
(dp373
g20
I1
sg21
I6
sbaa(lp374
g0
(g16
g2
Ntp375
Rp376
(dp377
g20
I2
sg21
I6
sbaa(lp378
g0
(g16
g2
Ntp379
Rp380
(dp381
g20
I3
sg21
I6
sbaa(lp382
g0
(g16
g2
Ntp383
Rp384
(dp385
g20
I4
sg21
I6
sbaa(lp386
g0
(g16
g2
Ntp387
Rp388
(dp389
g20
I5
sg21
I6
sbaa(lp390
g0
(g16
g2
Ntp391
Rp392
(dp393
g20
I6
sg21
I6
sbaa(lp394
g0
(g16
g2
Ntp395
Rp396
(dp397
g20
I7
sg21
I6
sbaa(lp398
g0
(g16
g2
Ntp399
Rp400
(dp401
g20
I8
sg21
I6
sbaa(lp402
g0
(g16
g2
Ntp403
Rp404
(dp405
g20
I9
sg21
I6
sbaa(lp406
g0
(g65
g2
Ntp407
Rp408
(dp409
g20
I10
sg21
I6
sg69
(I1
I1
I4
I4
tp410
sbaa(lp411
g0
(g65
g2
Ntp412
Rp413
(dp414
g20
I11
sg21
I6
sg69
(I4
I4
I4
I4
tp415
sbaaa(lp416
(lp417
g0
(g16
g2
Ntp418
Rp419
(dp420
g20
I0
sg21
I7
sbaa(lp421
g0
(g16
g2
Ntp422
Rp423
(dp424
g20
I1
sg21
I7
sbaa(lp425
g0
(g16
g2
Ntp426
Rp427
(dp428
g20
I2
sg21
I7
sbaa(lp429
g0
(g16
g2
Ntp430
Rp431
(dp432
g20
I3
sg21
I7
sbaa(lp433
g0
(g16
g2
Ntp434
Rp435
(dp436
g20
I4
sg21
I7
sbaa(lp437
g0
(g16
g2
Ntp438
Rp439
(dp440
g20
I5
sg21
I7
sbaa(lp441
g0
(g16
g2
Ntp442
Rp443
(dp444
g20
I6
sg21
I7
sbaa(lp445
g0
(g16
g2
Ntp446
Rp447
(dp448
g20
I7
sg21
I7
sbaa(lp449
g0
(g16
g2
Ntp450
Rp451
(dp452
g20
I8
sg21
I7
sbaa(lp453
g0
(g65
g2
Ntp454
Rp455
(dp456
g20
I9
sg21
I7
sg69
(I0
I1
I2
I4
tp457
sbaa(lp458
g0
(g65
g2
Ntp459
Rp460
(dp461
g20
I10
sg21
I7
sg69
(I3
I4
I4
I4
tp462
sbaa(lp463
g0
(g65
g2
Ntp464
Rp465
(dp466
g20
I11
sg21
I7
sg69
(I4
I4
I4
I4
tp467
sbaaa(lp468
(lp469
g0
(g16
g2
Ntp470
Rp471
(dp472
g20
I0
sg21
I8
sbaa(lp473
g0
(g16
g2
Ntp474
Rp475
(dp476
g20
I1
sg21
I8
sbaa(lp477
g0
(g16
g2
Ntp478
Rp479
(dp480
g20
I2
sg21
I8
sbaa(lp481
g0
(g16
g2
Ntp482
Rp483
(dp484
g20
I3
sg21
I8
sbaa(lp485
g0
(g16
g2
Ntp486
Rp487
(dp488
g20
I4
sg21
I8
sbaa(lp489
g0
(g16
g2
Ntp490
Rp491
(dp492
g20
I5
sg21
I8
sbaa(lp493
g0
(g65
g2
Ntp494
Rp495
(dp496
g20
I6
sg21
I8
sg69
(I0
I1
I0
I1
tp497
sbaa(lp498
g0
(g16
g2
Ntp499
Rp500
(dp501
g20
I7
sg21
I8
sbaa(lp502
g0
(g16
g2
Ntp503
Rp504
(dp505
g20
I8
sg21
I8
sbaa(lp506
g0
(g65
g2
Ntp507
Rp508
(dp509
g20
I9
sg21
I8
sg69
(I1
I1
I4
I4
tp510
sbaa(lp511
g0
(g65
g2
Ntp512
Rp513
(dp514
g20
I10
sg21
I8
sg69
(I4
I4
I4
I4
tp515
sbaa(lp516
g0
(g65
g2
Ntp517
Rp518
(dp519
g20
I11
sg21
I8
sg69
(I4
I4
I4
I4
tp520
sbaaa(lp521
(lp522
g0
(g16
g2
Ntp523
Rp524
(dp525
g20
I0
sg21
I9
sbaa(lp526
g0
(g16
g2
Ntp527
Rp528
(dp529
g20
I1
sg21
I9
sbaa(lp530
g0
(g16
g2
Ntp531
Rp532
(dp533
g20
I2
sg21
I9
sbaa(lp534
g0
(g16
g2
Ntp535
Rp536
(dp537
g20
I3
sg21
I9
sbaa(lp538
g0
(g16
g2
Ntp539
Rp540
(dp541
g20
I4
sg21
I9
sbaa(lp542
g0
(g16
g2
Ntp543
Rp544
(dp545
g20
I5
sg21
I9
sbag0
(g162
g2
Ntp546
Rp547
(dp548
g20
I5
sg21
I9
sg166
g0
(g167
g2
Ntp549
Rp550
(dp551
g171
(lp552
g547
asbsg173
I3
sg69
(I0
I0
I0
I0
tp553
sbaa(lp554
g0
(g65
g2
Ntp555
Rp556
(dp557
g20
I6
sg21
I9
sg69
(I1
I0
I1
I0
tp558
sbaa(lp559
g0
(g16
g2
Ntp560
Rp561
(dp562
g20
I7
sg21
I9
sbaa(lp563
g0
(g16
g2
Ntp564
Rp565
(dp566
g20
I8
sg21
I9
sbaa(lp567
g0
(g65
g2
Ntp568
Rp569
(dp570
g20
I9
sg21
I9
sg69
(I1
I1
I4
I4
tp571
sbaa(lp572
g0
(g65
g2
Ntp573
Rp574
(dp575
g20
I10
sg21
I9
sg69
(I4
I4
I4
I4
tp576
sbaa(lp577
g0
(g65
g2
Ntp578
Rp579
(dp580
g20
I11
sg21
I9
sg69
(I4
I4
I4
I4
tp581
sbaaa(lp582
(lp583
g0
(g16
g2
Ntp584
Rp585
(dp586
g20
I0
sg21
I10
sbaa(lp587
g0
(g16
g2
Ntp588
Rp589
(dp590
g20
I1
sg21
I10
sbaa(lp591
g0
(g16
g2
Ntp592
Rp593
(dp594
g20
I2
sg21
I10
sbaa(lp595
g0
(g16
g2
Ntp596
Rp597
(dp598
g20
I3
sg21
I10
sbaa(lp599
g0
(g16
g2
Ntp600
Rp601
(dp602
g20
I4
sg21
I10
sbaa(lp603
g0
(g16
g2
Ntp604
Rp605
(dp606
g20
I5
sg21
I10
sbaa(lp607
g0
(g16
g2
Ntp608
Rp609
(dp610
g20
I6
sg21
I10
sbaa(lp611
g0
(g16
g2
Ntp612
Rp613
(dp614
g20
I7
sg21
I10
sbaa(lp615
g0
(g16
g2
Ntp616
Rp617
(dp618
g20
I8
sg21
I10
sbaa(lp619
g0
(g65
g2
Ntp620
Rp621
(dp622
g20
I9
sg21
I10
sg69
(I1
I0
I4
I2
tp623
sbaa(lp624
g0
(g65
g2
Ntp625
Rp626
(dp627
g20
I10
sg21
I10
sg69
(I4
I3
I4
I4
tp628
sbaa(lp629
g0
(g65
g2
Ntp630
Rp631
(dp632
g20
I11
sg21
I10
sg69
(I4
I4
I4
I4
tp633
sbaaa(lp634
(lp635
g0
(g16
g2
Ntp636
Rp637
(dp638
g20
I0
sg21
I11
sbaa(lp639
g0
(g16
g2
Ntp640
Rp641
(dp642
g20
I1
sg21
I11
sbaa(lp643
g0
(g16
g2
Ntp644
Rp645
(dp646
g20
I2
sg21
I11
sbaa(lp647
g0
(g16
g2
Ntp648
Rp649
(dp650
g20
I3
sg21
I11
sbaa(lp651
g0
(g16
g2
Ntp652
Rp653
(dp654
g20
I4
sg21
I11
sbaa(lp655
g0
(g16
g2
Ntp656
Rp657
(dp658
g20
I5
sg21
I11
sbaa(lp659
g0
(g16
g2
Ntp660
Rp661
(dp662
g20
I6
sg21
I11
sbaa(lp663
g0
(g16
g2
Ntp664
Rp665
(dp666
g20
I7
sg21
I11
sbaa(lp667
g0
(g16
g2
Ntp668
Rp669
(dp670
g20
I8
sg21
I11
sbaa(lp671
g0
(g59
g2
Ntp672
Rp673
(dp674
g20
I9
sg21
I11
sg63
I12
sbaa(lp675
g0
(g65
g2
Ntp676
Rp677
(dp678
g20
I10
sg21
I11
sg69
(I1
I1
I4
I4
tp679
sbaa(lp680
g0
(g65
g2
Ntp681
Rp682
(dp683
g20
I11
sg21
I11
sg69
(I4
I4
I4
I4
tp684
sbaaasS'iscale'
p685
I3
sb.