ccopy_reg
_reconstructor
p0
(cBoard
Board
p1
c__builtin__
object
p2
Ntp3
Rp4
(dp5
S'sy'
p6
I11
sS'sx'
p7
I20
sS'rscale'
p8
I64
sS'ascale'
p9
I4
sS't'
p10
(lp11
(lp12
(lp13
a(lp14
a(lp15
g0
(cTiles
Dirt
p16
g2
Ntp17
Rp18
(dp19
S'y'
p20
I2
sS'x'
p21
I0
sS'corners'
p22
(I1
I1
I4
I4
tp23
sbaa(lp24
g0
(g16
g2
Ntp25
Rp26
(dp27
g20
I3
sg21
I0
sg22
(I4
I4
I4
I4
tp28
sbaa(lp29
g0
(g16
g2
Ntp30
Rp31
(dp32
g20
I4
sg21
I0
sg22
(I4
I4
I1
I1
tp33
sbaa(lp34
a(lp35
a(lp36
a(lp37
a(lp38
a(lp39
aa(lp40
(lp41
g0
(cTiles
Portal
p42
g2
Ntp43
Rp44
(dp45
g20
I0
sg21
I1
sS'i'
p46
I01
sbaa(lp47
g0
(cSnake
SnakeSeg
p48
g2
Ntp49
Rp50
(dp51
S'gshape'
p52
g0
(cSnake
Snake
p53
g2
Ntp54
Rp55
(dp56
S'iid'
p57
I7
sS'tiles'
p58
(lp59
g50
ag0
(g48
g2
Ntp60
Rp61
(dp62
g52
g55
sS'snake'
p63
g55
sS'fdir'
p64
I2
sg20
I1
sg21
I2
sS'bdir'
p65
I8
sbag0
(g48
g2
Ntp66
Rp67
(dp68
g52
g55
sg63
g55
sg64
I2
sg20
I1
sg21
I3
sg65
I8
sbag0
(cSnake
SnakeHead
p69
g2
Ntp70
Rp71
(dp72
g20
I1
sg21
I4
sg52
g55
sg63
g55
sS'd'
p73
I1
sbasbsg63
g55
sg64
I2
sg20
I1
sg21
I1
sg65
I0
sbaa(lp74
g0
(g16
g2
Ntp75
Rp76
(dp77
g20
I2
sg21
I1
sg22
(I1
I1
I4
I4
tp78
sbaa(lp79
g0
(g16
g2
Ntp80
Rp81
(dp82
g20
I3
sg21
I1
sg22
(I4
I4
I4
I4
tp83
sbaa(lp84
g0
(g16
g2
Ntp85
Rp86
(dp87
g20
I4
sg21
I1
sg22
(I4
I4
I1
I1
tp88
sbaa(lp89
a(lp90
a(lp91
a(lp92
a(lp93
a(lp94
aa(lp95
(lp96
a(lp97
g61
aa(lp98
g0
(g16
g2
Ntp99
Rp100
(dp101
g20
I2
sg21
I2
sg22
(I1
I1
I4
I4
tp102
sbaa(lp103
g0
(g16
g2
Ntp104
Rp105
(dp106
g20
I3
sg21
I2
sg22
(I4
I4
I4
I4
tp107
sbaa(lp108
g0
(g16
g2
Ntp109
Rp110
(dp111
g20
I4
sg21
I2
sg22
(I4
I4
I1
I1
tp112
sbaa(lp113
a(lp114
a(lp115
a(lp116
a(lp117
a(lp118
aa(lp119
(lp120
a(lp121
g67
aa(lp122
g0
(g16
g2
Ntp123
Rp124
(dp125
g20
I2
sg21
I3
sg22
(I1
I1
I4
I4
tp126
sbaa(lp127
g0
(g16
g2
Ntp128
Rp129
(dp130
g20
I3
sg21
I3
sg22
(I4
I4
I4
I3
tp131
sbaa(lp132
g0
(g16
g2
Ntp133
Rp134
(dp135
g20
I4
sg21
I3
sg22
(I4
I2
I1
I0
tp136
sbaa(lp137
a(lp138
a(lp139
a(lp140
a(lp141
a(lp142
aa(lp143
(lp144
a(lp145
g71
aa(lp146
g0
(g16
g2
Ntp147
Rp148
(dp149
g20
I2
sg21
I4
sg22
(I1
I1
I4
I3
tp150
sbaa(lp151
g0
(g16
g2
Ntp152
Rp153
(dp154
g20
I3
sg21
I4
sg22
(I4
I2
I1
I0
tp155
sbaa(lp156
a(lp157
a(lp158
a(lp159
a(lp160
a(lp161
a(lp162
aa(lp163
(lp164
a(lp165
a(lp166
g0
(g16
g2
Ntp167
Rp168
(dp169
g20
I2
sg21
I5
sg22
(I1
I0
I1
I0
tp170
sbaa(lp171
a(lp172
a(lp173
a(lp174
a(lp175
a(lp176
a(lp177
a(lp178
g0
(cTiles
WoodPlatform
p179
g2
Ntp180
Rp181
(dp182
g20
I10
sg21
I5
sg46
I2
sbaaa(lp183
(lp184
a(lp185
a(lp186
a(lp187
a(lp188
a(lp189
a(lp190
g0
(cTiles
CloudBlock
p191
g2
Ntp192
Rp193
(dp194
g20
I6
sg21
I6
sg52
g0
(cTiles
GravShape
p195
g2
Ntp196
Rp197
(dp198
g58
(lp199
g193
ag0
(g191
g2
Ntp200
Rp201
(dp202
g20
I6
sg21
I7
sg52
g197
sg22
(I3
I3
I1
I1
tp203
sbag0
(g191
g2
Ntp204
Rp205
(dp206
g20
I6
sg21
I8
sg52
g197
sg22
(I1
I0
I1
I0
tp207
sbag0
(g191
g2
Ntp208
Rp209
(dp210
g20
I5
sg21
I7
sg52
g197
sg22
(I0
I0
I2
I2
tp211
sbasbsg22
(I0
I1
I0
I1
tp212
sbaa(lp213
a(lp214
a(lp215
a(lp216
g0
(g179
g2
Ntp217
Rp218
(dp219
g20
I10
sg21
I6
sg46
I1
sbaaa(lp220
(lp221
a(lp222
a(lp223
a(lp224
a(lp225
a(lp226
g209
aa(lp227
g201
aa(lp228
a(lp229
a(lp230
a(lp231
aa(lp232
(lp233
a(lp234
a(lp235
a(lp236
a(lp237
a(lp238
a(lp239
g205
aa(lp240
a(lp241
a(lp242
a(lp243
aa(lp244
(lp245
a(lp246
a(lp247
a(lp248
a(lp249
a(lp250
a(lp251
a(lp252
a(lp253
a(lp254
a(lp255
aa(lp256
(lp257
g0
(g16
g2
Ntp258
Rp259
(dp260
g20
I0
sg21
I10
sg22
(I2
I4
I0
I1
tp261
sbaa(lp262
a(lp263
a(lp264
a(lp265
a(lp266
a(lp267
a(lp268
a(lp269
a(lp270
a(lp271
aa(lp272
(lp273
g0
(g16
g2
Ntp274
Rp275
(dp276
g20
I0
sg21
I11
sg22
(I4
I4
I3
I4
tp277
sbaa(lp278
g0
(g16
g2
Ntp279
Rp280
(dp281
g20
I1
sg21
I11
sg22
(I2
I4
I2
I4
tp282
sbaa(lp283
g0
(g16
g2
Ntp284
Rp285
(dp286
g20
I2
sg21
I11
sg22
(I2
I4
I2
I4
tp287
sbaa(lp288
g0
(g16
g2
Ntp289
Rp290
(dp291
g20
I3
sg21
I11
sg22
(I2
I4
I2
I4
tp292
sbaa(lp293
g0
(g16
g2
Ntp294
Rp295
(dp296
g20
I4
sg21
I11
sg22
(I2
I4
I2
I4
tp297
sbaa(lp298
g0
(g16
g2
Ntp299
Rp300
(dp301
g20
I5
sg21
I11
sg22
(I2
I4
I0
I1
tp302
sbaa(lp303
g0
(cTiles
Spikes
p304
g2
Ntp305
Rp306
(dp307
g20
I6
sg21
I11
sg46
I3
sbaa(lp308
a(lp309
a(lp310
g0
(g304
g2
Ntp311
Rp312
(dp313
g20
I9
sg21
I11
sg46
I6
sbaa(lp314
g0
(g16
g2
Ntp315
Rp316
(dp317
g20
I10
sg21
I11
sg22
(I0
I1
I2
I4
tp318
sbaaa(lp319
(lp320
g0
(g16
g2
Ntp321
Rp322
(dp323
g20
I0
sg21
I12
sg22
(I4
I4
I4
I3
tp324
sbaa(lp325
g0
(g16
g2
Ntp326
Rp327
(dp328
g20
I1
sg21
I12
sg22
(I4
I2
I4
I2
tp329
sbaa(lp330
g0
(g16
g2
Ntp331
Rp332
(dp333
g20
I2
sg21
I12
sg22
(I4
I2
I4
I2
tp334
sbaa(lp335
g0
(g16
g2
Ntp336
Rp337
(dp338
g20
I3
sg21
I12
sg22
(I4
I2
I4
I2
tp339
sbaa(lp340
g0
(g16
g2
Ntp341
Rp342
(dp343
g20
I4
sg21
I12
sg22
(I4
I2
I4
I2
tp344
sbaa(lp345
g0
(g16
g2
Ntp346
Rp347
(dp348
g20
I5
sg21
I12
sg22
(I4
I2
I1
I0
tp349
sbaa(lp350
g0
(g304
g2
Ntp351
Rp352
(dp353
g20
I6
sg21
I12
sg46
I9
sbaa(lp354
a(lp355
a(lp356
g0
(g304
g2
Ntp357
Rp358
(dp359
g20
I9
sg21
I12
sg46
I12
sbaa(lp360
g0
(g16
g2
Ntp361
Rp362
(dp363
g20
I10
sg21
I12
sg22
(I1
I0
I4
I2
tp364
sbaaa(lp365
(lp366
g0
(g16
g2
Ntp367
Rp368
(dp369
g20
I0
sg21
I13
sg22
(I4
I4
I1
I1
tp370
sbaa(lp371
a(lp372
a(lp373
a(lp374
a(lp375
a(lp376
a(lp377
a(lp378
a(lp379
a(lp380
aa(lp381
(lp382
g0
(g16
g2
Ntp383
Rp384
(dp385
g20
I0
sg21
I14
sg22
(I4
I2
I1
I0
tp386
sbaa(lp387
a(lp388
a(lp389
a(lp390
a(lp391
a(lp392
a(lp393
a(lp394
a(lp395
a(lp396
aa(lp397
(lp398
a(lp399
a(lp400
a(lp401
a(lp402
a(lp403
a(lp404
a(lp405
a(lp406
a(lp407
a(lp408
aa(lp409
(lp410
a(lp411
a(lp412
a(lp413
a(lp414
a(lp415
a(lp416
a(lp417
a(lp418
a(lp419
a(lp420
aa(lp421
(lp422
a(lp423
a(lp424
a(lp425
a(lp426
a(lp427
g0
(g16
g2
Ntp428
Rp429
(dp430
g20
I5
sg21
I17
sg22
(I0
I1
I2
I4
tp431
sbaa(lp432
g0
(g16
g2
Ntp433
Rp434
(dp435
g20
I6
sg21
I17
sg22
(I2
I4
I0
I1
tp436
sbaa(lp437
a(lp438
a(lp439
a(lp440
aa(lp441
(lp442
a(lp443
a(lp444
a(lp445
a(lp446
g0
(cTiles
Fruit
p447
g2
Ntp448
Rp449
(dp450
g20
I4
sg21
I18
sg57
I1
sbaa(lp451
g0
(g16
g2
Ntp452
Rp453
(dp454
g20
I5
sg21
I18
sg22
(I1
I1
I4
I4
tp455
sbaa(lp456
g0
(g16
g2
Ntp457
Rp458
(dp459
g20
I6
sg21
I18
sg22
(I4
I4
I1
I1
tp460
sbaa(lp461
a(lp462
a(lp463
a(lp464
aa(lp465
(lp466
a(lp467
a(lp468
a(lp469
a(lp470
a(lp471
g0
(g16
g2
Ntp472
Rp473
(dp474
g20
I5
sg21
I19
sg22
(I1
I1
I4
I4
tp475
sbaa(lp476
g0
(g16
g2
Ntp477
Rp478
(dp479
g20
I6
sg21
I19
sg22
(I4
I4
I1
I1
tp480
sbaa(lp481
a(lp482
a(lp483
a(lp484
aasS'iscale'
p485
I3
sb.