ccopy_reg
_reconstructor
p0
(cBoard
Board
p1
c__builtin__
object
p2
Ntp3
Rp4
(dp5
S'sy'
p6
I11
sS'sx'
p7
I20
sS'rscale'
p8
I64
sS'ascale'
p9
I4
sS't'
p10
(lp11
(lp12
(lp13
g0
(cTiles
Air
p14
g2
Ntp15
Rp16
(dp17
S'y'
p18
I0
sS'x'
p19
I0
sbaa(lp20
g0
(g14
g2
Ntp21
Rp22
(dp23
g18
I1
sg19
I0
sbaa(lp24
g0
(cTiles
Dirt
p25
g2
Ntp26
Rp27
(dp28
g18
I2
sg19
I0
sS'corners'
p29
(I1
I1
I4
I4
tp30
sbaa(lp31
g0
(g25
g2
Ntp32
Rp33
(dp34
g18
I3
sg19
I0
sg29
(I4
I4
I4
I4
tp35
sbaa(lp36
g0
(g25
g2
Ntp37
Rp38
(dp39
g18
I4
sg19
I0
sg29
(I4
I4
I1
I1
tp40
sbaa(lp41
g0
(g14
g2
Ntp42
Rp43
(dp44
g18
I5
sg19
I0
sbaa(lp45
g0
(g14
g2
Ntp46
Rp47
(dp48
g18
I6
sg19
I0
sbaa(lp49
g0
(g14
g2
Ntp50
Rp51
(dp52
g18
I7
sg19
I0
sbaa(lp53
g0
(g14
g2
Ntp54
Rp55
(dp56
g18
I8
sg19
I0
sbaa(lp57
g0
(g14
g2
Ntp58
Rp59
(dp60
g18
I9
sg19
I0
sbaa(lp61
g0
(g14
g2
Ntp62
Rp63
(dp64
g18
I10
sg19
I0
sbaaa(lp65
(lp66
g0
(cTiles
Portal
p67
g2
Ntp68
Rp69
(dp70
g18
I0
sg19
I1
sS'i'
p71
I01
sbaa(lp72
g0
(g14
g2
Ntp73
Rp74
(dp75
g18
I1
sg19
I1
sbag0
(cSnake
SnakeSeg
p76
g2
Ntp77
Rp78
(dp79
S'gshape'
p80
g0
(cSnake
Snake
p81
g2
Ntp82
Rp83
(dp84
S'iid'
p85
I7
sS'tiles'
p86
(lp87
g78
ag0
(g76
g2
Ntp88
Rp89
(dp90
g80
g83
sS'snake'
p91
g83
sS'fdir'
p92
I2
sg18
I1
sg19
I2
sS'bdir'
p93
I8
sbag0
(g76
g2
Ntp94
Rp95
(dp96
g80
g83
sg91
g83
sg92
I2
sg18
I1
sg19
I3
sg93
I8
sbag0
(cSnake
SnakeHead
p97
g2
Ntp98
Rp99
(dp100
g18
I1
sg19
I4
sg80
g83
sg91
g83
sS'd'
p101
I1
sbasbsg91
g83
sg92
I2
sg18
I1
sg19
I1
sg93
I0
sbaa(lp102
g0
(g25
g2
Ntp103
Rp104
(dp105
g18
I2
sg19
I1
sg29
(I1
I1
I4
I4
tp106
sbaa(lp107
g0
(g25
g2
Ntp108
Rp109
(dp110
g18
I3
sg19
I1
sg29
(I4
I4
I4
I4
tp111
sbaa(lp112
g0
(g25
g2
Ntp113
Rp114
(dp115
g18
I4
sg19
I1
sg29
(I4
I4
I1
I1
tp116
sbaa(lp117
g0
(g14
g2
Ntp118
Rp119
(dp120
g18
I5
sg19
I1
sbaa(lp121
g0
(g14
g2
Ntp122
Rp123
(dp124
g18
I6
sg19
I1
sbaa(lp125
g0
(g14
g2
Ntp126
Rp127
(dp128
g18
I7
sg19
I1
sbaa(lp129
g0
(g14
g2
Ntp130
Rp131
(dp132
g18
I8
sg19
I1
sbaa(lp133
g0
(g14
g2
Ntp134
Rp135
(dp136
g18
I9
sg19
I1
sbaa(lp137
g0
(g14
g2
Ntp138
Rp139
(dp140
g18
I10
sg19
I1
sbaaa(lp141
(lp142
g0
(g14
g2
Ntp143
Rp144
(dp145
g18
I0
sg19
I2
sbaa(lp146
g0
(g14
g2
Ntp147
Rp148
(dp149
g18
I1
sg19
I2
sbag89
aa(lp150
g0
(g25
g2
Ntp151
Rp152
(dp153
g18
I2
sg19
I2
sg29
(I1
I1
I4
I4
tp154
sbaa(lp155
g0
(g25
g2
Ntp156
Rp157
(dp158
g18
I3
sg19
I2
sg29
(I4
I4
I4
I4
tp159
sbaa(lp160
g0
(g25
g2
Ntp161
Rp162
(dp163
g18
I4
sg19
I2
sg29
(I4
I4
I1
I1
tp164
sbaa(lp165
g0
(g14
g2
Ntp166
Rp167
(dp168
g18
I5
sg19
I2
sbaa(lp169
g0
(g14
g2
Ntp170
Rp171
(dp172
g18
I6
sg19
I2
sbaa(lp173
g0
(g14
g2
Ntp174
Rp175
(dp176
g18
I7
sg19
I2
sbaa(lp177
g0
(g14
g2
Ntp178
Rp179
(dp180
g18
I8
sg19
I2
sbaa(lp181
g0
(g14
g2
Ntp182
Rp183
(dp184
g18
I9
sg19
I2
sbaa(lp185
g0
(g14
g2
Ntp186
Rp187
(dp188
g18
I10
sg19
I2
sbaaa(lp189
(lp190
g0
(g14
g2
Ntp191
Rp192
(dp193
g18
I0
sg19
I3
sbaa(lp194
g0
(g14
g2
Ntp195
Rp196
(dp197
g18
I1
sg19
I3
sbag95
aa(lp198
g0
(g25
g2
Ntp199
Rp200
(dp201
g18
I2
sg19
I3
sg29
(I1
I1
I4
I4
tp202
sbaa(lp203
g0
(g25
g2
Ntp204
Rp205
(dp206
g18
I3
sg19
I3
sg29
(I4
I4
I4
I3
tp207
sbaa(lp208
g0
(g25
g2
Ntp209
Rp210
(dp211
g18
I4
sg19
I3
sg29
(I4
I2
I1
I0
tp212
sbaa(lp213
g0
(g14
g2
Ntp214
Rp215
(dp216
g18
I5
sg19
I3
sbaa(lp217
g0
(g14
g2
Ntp218
Rp219
(dp220
g18
I6
sg19
I3
sbaa(lp221
g0
(g14
g2
Ntp222
Rp223
(dp224
g18
I7
sg19
I3
sbaa(lp225
g0
(g14
g2
Ntp226
Rp227
(dp228
g18
I8
sg19
I3
sbaa(lp229
g0
(g14
g2
Ntp230
Rp231
(dp232
g18
I9
sg19
I3
sbaa(lp233
g0
(g14
g2
Ntp234
Rp235
(dp236
g18
I10
sg19
I3
sbaaa(lp237
(lp238
g0
(g14
g2
Ntp239
Rp240
(dp241
g18
I0
sg19
I4
sbaa(lp242
g0
(g14
g2
Ntp243
Rp244
(dp245
g18
I1
sg19
I4
sbag99
aa(lp246
g0
(g25
g2
Ntp247
Rp248
(dp249
g18
I2
sg19
I4
sg29
(I1
I1
I4
I3
tp250
sbaa(lp251
g0
(g25
g2
Ntp252
Rp253
(dp254
g18
I3
sg19
I4
sg29
(I4
I2
I1
I0
tp255
sbaa(lp256
g0
(g14
g2
Ntp257
Rp258
(dp259
g18
I4
sg19
I4
sbaa(lp260
g0
(g14
g2
Ntp261
Rp262
(dp263
g18
I5
sg19
I4
sbaa(lp264
g0
(g14
g2
Ntp265
Rp266
(dp267
g18
I6
sg19
I4
sbaa(lp268
g0
(g14
g2
Ntp269
Rp270
(dp271
g18
I7
sg19
I4
sbaa(lp272
g0
(g14
g2
Ntp273
Rp274
(dp275
g18
I8
sg19
I4
sbaa(lp276
g0
(g14
g2
Ntp277
Rp278
(dp279
g18
I9
sg19
I4
sbaa(lp280
g0
(g14
g2
Ntp281
Rp282
(dp283
g18
I10
sg19
I4
sbaaa(lp284
(lp285
g0
(g14
g2
Ntp286
Rp287
(dp288
g18
I0
sg19
I5
sbaa(lp289
g0
(g14
g2
Ntp290
Rp291
(dp292
g18
I1
sg19
I5
sbaa(lp293
g0
(g25
g2
Ntp294
Rp295
(dp296
g18
I2
sg19
I5
sg29
(I1
I0
I1
I0
tp297
sbaa(lp298
g0
(g14
g2
Ntp299
Rp300
(dp301
g18
I3
sg19
I5
sbaa(lp302
g0
(g14
g2
Ntp303
Rp304
(dp305
g18
I4
sg19
I5
sbaa(lp306
g0
(g14
g2
Ntp307
Rp308
(dp309
g18
I5
sg19
I5
sbaa(lp310
g0
(g14
g2
Ntp311
Rp312
(dp313
g18
I6
sg19
I5
sbaa(lp314
g0
(g14
g2
Ntp315
Rp316
(dp317
g18
I7
sg19
I5
sbaa(lp318
g0
(g14
g2
Ntp319
Rp320
(dp321
g18
I8
sg19
I5
sbaa(lp322
g0
(g14
g2
Ntp323
Rp324
(dp325
g18
I9
sg19
I5
sbaa(lp326
g0
(cTiles
WoodPlatform
p327
g2
Ntp328
Rp329
(dp330
g18
I10
sg19
I5
sg71
I2
sbaaa(lp331
(lp332
g0
(g14
g2
Ntp333
Rp334
(dp335
g18
I0
sg19
I6
sbaa(lp336
g0
(g14
g2
Ntp337
Rp338
(dp339
g18
I1
sg19
I6
sbaa(lp340
g0
(g14
g2
Ntp341
Rp342
(dp343
g18
I2
sg19
I6
sbaa(lp344
g0
(g14
g2
Ntp345
Rp346
(dp347
g18
I3
sg19
I6
sbaa(lp348
g0
(g14
g2
Ntp349
Rp350
(dp351
g18
I4
sg19
I6
sbaa(lp352
g0
(g14
g2
Ntp353
Rp354
(dp355
g18
I5
sg19
I6
sbaa(lp356
g0
(g14
g2
Ntp357
Rp358
(dp359
g18
I6
sg19
I6
sbag0
(cTiles
CloudBlock
p360
g2
Ntp361
Rp362
(dp363
g18
I6
sg19
I6
sg80
g0
(cTiles
GravShape
p364
g2
Ntp365
Rp366
(dp367
g86
(lp368
g362
ag0
(g360
g2
Ntp369
Rp370
(dp371
g18
I6
sg19
I7
sg80
g366
sg29
(I3
I3
I1
I1
tp372
sbag0
(g360
g2
Ntp373
Rp374
(dp375
g18
I6
sg19
I8
sg80
g366
sg29
(I1
I0
I1
I0
tp376
sbag0
(g360
g2
Ntp377
Rp378
(dp379
g18
I5
sg19
I7
sg80
g366
sg29
(I0
I0
I2
I2
tp380
sbasbsg29
(I0
I1
I0
I1
tp381
sbaa(lp382
g0
(g14
g2
Ntp383
Rp384
(dp385
g18
I7
sg19
I6
sbaa(lp386
g0
(g14
g2
Ntp387
Rp388
(dp389
g18
I8
sg19
I6
sbaa(lp390
g0
(g14
g2
Ntp391
Rp392
(dp393
g18
I9
sg19
I6
sbaa(lp394
g0
(g327
g2
Ntp395
Rp396
(dp397
g18
I10
sg19
I6
sg71
I1
sbaaa(lp398
(lp399
g0
(g14
g2
Ntp400
Rp401
(dp402
g18
I0
sg19
I7
sbaa(lp403
g0
(g14
g2
Ntp404
Rp405
(dp406
g18
I1
sg19
I7
sbaa(lp407
g0
(g14
g2
Ntp408
Rp409
(dp410
g18
I2
sg19
I7
sbaa(lp411
g0
(g14
g2
Ntp412
Rp413
(dp414
g18
I3
sg19
I7
sbaa(lp415
g0
(g14
g2
Ntp416
Rp417
(dp418
g18
I4
sg19
I7
sbaa(lp419
g0
(g14
g2
Ntp420
Rp421
(dp422
g18
I5
sg19
I7
sbag378
aa(lp423
g0
(g14
g2
Ntp424
Rp425
(dp426
g18
I6
sg19
I7
sbag370
aa(lp427
g0
(g14
g2
Ntp428
Rp429
(dp430
g18
I7
sg19
I7
sbaa(lp431
g0
(g14
g2
Ntp432
Rp433
(dp434
g18
I8
sg19
I7
sbaa(lp435
g0
(g14
g2
Ntp436
Rp437
(dp438
g18
I9
sg19
I7
sbaa(lp439
g0
(g14
g2
Ntp440
Rp441
(dp442
g18
I10
sg19
I7
sbaaa(lp443
(lp444
g0
(g14
g2
Ntp445
Rp446
(dp447
g18
I0
sg19
I8
sbaa(lp448
g0
(g14
g2
Ntp449
Rp450
(dp451
g18
I1
sg19
I8
sbaa(lp452
g0
(g14
g2
Ntp453
Rp454
(dp455
g18
I2
sg19
I8
sbaa(lp456
g0
(g14
g2
Ntp457
Rp458
(dp459
g18
I3
sg19
I8
sbaa(lp460
g0
(g14
g2
Ntp461
Rp462
(dp463
g18
I4
sg19
I8
sbaa(lp464
g0
(g14
g2
Ntp465
Rp466
(dp467
g18
I5
sg19
I8
sbaa(lp468
g0
(g14
g2
Ntp469
Rp470
(dp471
g18
I6
sg19
I8
sbag374
aa(lp472
g0
(g14
g2
Ntp473
Rp474
(dp475
g18
I7
sg19
I8
sbaa(lp476
g0
(g14
g2
Ntp477
Rp478
(dp479
g18
I8
sg19
I8
sbaa(lp480
g0
(g14
g2
Ntp481
Rp482
(dp483
g18
I9
sg19
I8
sbaa(lp484
g0
(g14
g2
Ntp485
Rp486
(dp487
g18
I10
sg19
I8
sbaaa(lp488
(lp489
g0
(g14
g2
Ntp490
Rp491
(dp492
g18
I0
sg19
I9
sbaa(lp493
g0
(g14
g2
Ntp494
Rp495
(dp496
g18
I1
sg19
I9
sbaa(lp497
g0
(g14
g2
Ntp498
Rp499
(dp500
g18
I2
sg19
I9
sbaa(lp501
g0
(g14
g2
Ntp502
Rp503
(dp504
g18
I3
sg19
I9
sbaa(lp505
g0
(g14
g2
Ntp506
Rp507
(dp508
g18
I4
sg19
I9
sbaa(lp509
g0
(g14
g2
Ntp510
Rp511
(dp512
g18
I5
sg19
I9
sbaa(lp513
g0
(g14
g2
Ntp514
Rp515
(dp516
g18
I6
sg19
I9
sbaa(lp517
g0
(g14
g2
Ntp518
Rp519
(dp520
g18
I7
sg19
I9
sbaa(lp521
g0
(g14
g2
Ntp522
Rp523
(dp524
g18
I8
sg19
I9
sbaa(lp525
g0
(g14
g2
Ntp526
Rp527
(dp528
g18
I9
sg19
I9
sbaa(lp529
g0
(g14
g2
Ntp530
Rp531
(dp532
g18
I10
sg19
I9
sbaaa(lp533
(lp534
g0
(g25
g2
Ntp535
Rp536
(dp537
g18
I0
sg19
I10
sg29
(I2
I4
I0
I1
tp538
sbaa(lp539
g0
(g14
g2
Ntp540
Rp541
(dp542
g18
I1
sg19
I10
sbaa(lp543
g0
(g14
g2
Ntp544
Rp545
(dp546
g18
I2
sg19
I10
sbaa(lp547
g0
(g14
g2
Ntp548
Rp549
(dp550
g18
I3
sg19
I10
sbaa(lp551
g0
(g14
g2
Ntp552
Rp553
(dp554
g18
I4
sg19
I10
sbaa(lp555
g0
(g14
g2
Ntp556
Rp557
(dp558
g18
I5
sg19
I10
sbaa(lp559
g0
(g14
g2
Ntp560
Rp561
(dp562
g18
I6
sg19
I10
sbaa(lp563
g0
(g14
g2
Ntp564
Rp565
(dp566
g18
I7
sg19
I10
sbaa(lp567
g0
(g14
g2
Ntp568
Rp569
(dp570
g18
I8
sg19
I10
sbaa(lp571
g0
(g14
g2
Ntp572
Rp573
(dp574
g18
I9
sg19
I10
sbaa(lp575
g0
(g14
g2
Ntp576
Rp577
(dp578
g18
I10
sg19
I10
sbaaa(lp579
(lp580
g0
(g25
g2
Ntp581
Rp582
(dp583
g18
I0
sg19
I11
sg29
(I4
I4
I3
I4
tp584
sbaa(lp585
g0
(g25
g2
Ntp586
Rp587
(dp588
g18
I1
sg19
I11
sg29
(I2
I4
I2
I4
tp589
sbaa(lp590
g0
(g25
g2
Ntp591
Rp592
(dp593
g18
I2
sg19
I11
sg29
(I2
I4
I2
I4
tp594
sbaa(lp595
g0
(g25
g2
Ntp596
Rp597
(dp598
g18
I3
sg19
I11
sg29
(I2
I4
I2
I4
tp599
sbaa(lp600
g0
(g25
g2
Ntp601
Rp602
(dp603
g18
I4
sg19
I11
sg29
(I2
I4
I2
I4
tp604
sbaa(lp605
g0
(g25
g2
Ntp606
Rp607
(dp608
g18
I5
sg19
I11
sg29
(I2
I4
I0
I1
tp609
sbaa(lp610
g0
(cTiles
Spikes
p611
g2
Ntp612
Rp613
(dp614
g18
I6
sg19
I11
sg71
I3
sbaa(lp615
g0
(g14
g2
Ntp616
Rp617
(dp618
g18
I7
sg19
I11
sbaa(lp619
g0
(g14
g2
Ntp620
Rp621
(dp622
g18
I8
sg19
I11
sbaa(lp623
g0
(g611
g2
Ntp624
Rp625
(dp626
g18
I9
sg19
I11
sg71
I6
sbaa(lp627
g0
(g25
g2
Ntp628
Rp629
(dp630
g18
I10
sg19
I11
sg29
(I0
I1
I2
I4
tp631
sbaaa(lp632
(lp633
g0
(g25
g2
Ntp634
Rp635
(dp636
g18
I0
sg19
I12
sg29
(I4
I4
I4
I3
tp637
sbaa(lp638
g0
(g25
g2
Ntp639
Rp640
(dp641
g18
I1
sg19
I12
sg29
(I4
I2
I4
I2
tp642
sbaa(lp643
g0
(g25
g2
Ntp644
Rp645
(dp646
g18
I2
sg19
I12
sg29
(I4
I2
I4
I2
tp647
sbaa(lp648
g0
(g25
g2
Ntp649
Rp650
(dp651
g18
I3
sg19
I12
sg29
(I4
I2
I4
I2
tp652
sbaa(lp653
g0
(g25
g2
Ntp654
Rp655
(dp656
g18
I4
sg19
I12
sg29
(I4
I2
I4
I2
tp657
sbaa(lp658
g0
(g25
g2
Ntp659
Rp660
(dp661
g18
I5
sg19
I12
sg29
(I4
I2
I1
I0
tp662
sbaa(lp663
g0
(g611
g2
Ntp664
Rp665
(dp666
g18
I6
sg19
I12
sg71
I9
sbaa(lp667
g0
(g14
g2
Ntp668
Rp669
(dp670
g18
I7
sg19
I12
sbaa(lp671
g0
(g14
g2
Ntp672
Rp673
(dp674
g18
I8
sg19
I12
sbaa(lp675
g0
(g611
g2
Ntp676
Rp677
(dp678
g18
I9
sg19
I12
sg71
I12
sbaa(lp679
g0
(g25
g2
Ntp680
Rp681
(dp682
g18
I10
sg19
I12
sg29
(I1
I0
I4
I2
tp683
sbaaa(lp684
(lp685
g0
(g25
g2
Ntp686
Rp687
(dp688
g18
I0
sg19
I13
sg29
(I4
I4
I1
I1
tp689
sbaa(lp690
g0
(g14
g2
Ntp691
Rp692
(dp693
g18
I1
sg19
I13
sbaa(lp694
g0
(g14
g2
Ntp695
Rp696
(dp697
g18
I2
sg19
I13
sbaa(lp698
g0
(g14
g2
Ntp699
Rp700
(dp701
g18
I3
sg19
I13
sbaa(lp702
g0
(g14
g2
Ntp703
Rp704
(dp705
g18
I4
sg19
I13
sbaa(lp706
g0
(g14
g2
Ntp707
Rp708
(dp709
g18
I5
sg19
I13
sbaa(lp710
g0
(g14
g2
Ntp711
Rp712
(dp713
g18
I6
sg19
I13
sbaa(lp714
g0
(g14
g2
Ntp715
Rp716
(dp717
g18
I7
sg19
I13
sbaa(lp718
g0
(g14
g2
Ntp719
Rp720
(dp721
g18
I8
sg19
I13
sbaa(lp722
g0
(g14
g2
Ntp723
Rp724
(dp725
g18
I9
sg19
I13
sbaa(lp726
g0
(g14
g2
Ntp727
Rp728
(dp729
g18
I10
sg19
I13
sbaaa(lp730
(lp731
g0
(g25
g2
Ntp732
Rp733
(dp734
g18
I0
sg19
I14
sg29
(I4
I2
I1
I0
tp735
sbaa(lp736
g0
(g14
g2
Ntp737
Rp738
(dp739
g18
I1
sg19
I14
sbaa(lp740
g0
(g14
g2
Ntp741
Rp742
(dp743
g18
I2
sg19
I14
sbaa(lp744
g0
(g14
g2
Ntp745
Rp746
(dp747
g18
I3
sg19
I14
sbaa(lp748
g0
(g14
g2
Ntp749
Rp750
(dp751
g18
I4
sg19
I14
sbaa(lp752
g0
(g14
g2
Ntp753
Rp754
(dp755
g18
I5
sg19
I14
sbaa(lp756
g0
(g14
g2
Ntp757
Rp758
(dp759
g18
I6
sg19
I14
sbaa(lp760
g0
(g14
g2
Ntp761
Rp762
(dp763
g18
I7
sg19
I14
sbaa(lp764
g0
(g14
g2
Ntp765
Rp766
(dp767
g18
I8
sg19
I14
sbaa(lp768
g0
(g14
g2
Ntp769
Rp770
(dp771
g18
I9
sg19
I14
sbaa(lp772
g0
(g14
g2
Ntp773
Rp774
(dp775
g18
I10
sg19
I14
sbaaa(lp776
(lp777
g0
(g14
g2
Ntp778
Rp779
(dp780
g18
I0
sg19
I15
sbaa(lp781
g0
(g14
g2
Ntp782
Rp783
(dp784
g18
I1
sg19
I15
sbaa(lp785
g0
(g14
g2
Ntp786
Rp787
(dp788
g18
I2
sg19
I15
sbaa(lp789
g0
(g14
g2
Ntp790
Rp791
(dp792
g18
I3
sg19
I15
sbaa(lp793
g0
(g14
g2
Ntp794
Rp795
(dp796
g18
I4
sg19
I15
sbaa(lp797
g0
(g14
g2
Ntp798
Rp799
(dp800
g18
I5
sg19
I15
sbaa(lp801
g0
(g14
g2
Ntp802
Rp803
(dp804
g18
I6
sg19
I15
sbaa(lp805
g0
(g14
g2
Ntp806
Rp807
(dp808
g18
I7
sg19
I15
sbaa(lp809
g0
(g14
g2
Ntp810
Rp811
(dp812
g18
I8
sg19
I15
sbaa(lp813
g0
(g14
g2
Ntp814
Rp815
(dp816
g18
I9
sg19
I15
sbaa(lp817
g0
(g14
g2
Ntp818
Rp819
(dp820
g18
I10
sg19
I15
sbaaa(lp821
(lp822
g0
(g14
g2
Ntp823
Rp824
(dp825
g18
I0
sg19
I16
sbaa(lp826
g0
(g14
g2
Ntp827
Rp828
(dp829
g18
I1
sg19
I16
sbaa(lp830
g0
(g14
g2
Ntp831
Rp832
(dp833
g18
I2
sg19
I16
sbaa(lp834
g0
(g14
g2
Ntp835
Rp836
(dp837
g18
I3
sg19
I16
sbaa(lp838
g0
(g14
g2
Ntp839
Rp840
(dp841
g18
I4
sg19
I16
sbaa(lp842
g0
(g14
g2
Ntp843
Rp844
(dp845
g18
I5
sg19
I16
sbaa(lp846
g0
(g14
g2
Ntp847
Rp848
(dp849
g18
I6
sg19
I16
sbaa(lp850
g0
(g14
g2
Ntp851
Rp852
(dp853
g18
I7
sg19
I16
sbaa(lp854
g0
(g14
g2
Ntp855
Rp856
(dp857
g18
I8
sg19
I16
sbaa(lp858
g0
(g14
g2
Ntp859
Rp860
(dp861
g18
I9
sg19
I16
sbaa(lp862
g0
(g14
g2
Ntp863
Rp864
(dp865
g18
I10
sg19
I16
sbaaa(lp866
(lp867
g0
(g14
g2
Ntp868
Rp869
(dp870
g18
I0
sg19
I17
sbaa(lp871
g0
(g14
g2
Ntp872
Rp873
(dp874
g18
I1
sg19
I17
sbaa(lp875
g0
(g14
g2
Ntp876
Rp877
(dp878
g18
I2
sg19
I17
sbaa(lp879
g0
(g14
g2
Ntp880
Rp881
(dp882
g18
I3
sg19
I17
sbaa(lp883
g0
(g14
g2
Ntp884
Rp885
(dp886
g18
I4
sg19
I17
sbaa(lp887
g0
(g25
g2
Ntp888
Rp889
(dp890
g18
I5
sg19
I17
sg29
(I0
I1
I2
I4
tp891
sbaa(lp892
g0
(g25
g2
Ntp893
Rp894
(dp895
g18
I6
sg19
I17
sg29
(I2
I4
I0
I1
tp896
sbaa(lp897
g0
(g14
g2
Ntp898
Rp899
(dp900
g18
I7
sg19
I17
sbaa(lp901
g0
(g14
g2
Ntp902
Rp903
(dp904
g18
I8
sg19
I17
sbaa(lp905
g0
(g14
g2
Ntp906
Rp907
(dp908
g18
I9
sg19
I17
sbaa(lp909
g0
(g14
g2
Ntp910
Rp911
(dp912
g18
I10
sg19
I17
sbaaa(lp913
(lp914
g0
(g14
g2
Ntp915
Rp916
(dp917
g18
I0
sg19
I18
sbaa(lp918
g0
(g14
g2
Ntp919
Rp920
(dp921
g18
I1
sg19
I18
sbaa(lp922
g0
(g14
g2
Ntp923
Rp924
(dp925
g18
I2
sg19
I18
sbaa(lp926
g0
(g14
g2
Ntp927
Rp928
(dp929
g18
I3
sg19
I18
sbaa(lp930
g0
(cTiles
Fruit
p931
g2
Ntp932
Rp933
(dp934
g18
I4
sg19
I18
sg85
I1
sbaa(lp935
g0
(g25
g2
Ntp936
Rp937
(dp938
g18
I5
sg19
I18
sg29
(I1
I1
I4
I4
tp939
sbaa(lp940
g0
(g25
g2
Ntp941
Rp942
(dp943
g18
I6
sg19
I18
sg29
(I4
I4
I1
I1
tp944
sbaa(lp945
g0
(g14
g2
Ntp946
Rp947
(dp948
g18
I7
sg19
I18
sbaa(lp949
g0
(g14
g2
Ntp950
Rp951
(dp952
g18
I8
sg19
I18
sbaa(lp953
g0
(g14
g2
Ntp954
Rp955
(dp956
g18
I9
sg19
I18
sbaa(lp957
g0
(g14
g2
Ntp958
Rp959
(dp960
g18
I10
sg19
I18
sbaaa(lp961
(lp962
g0
(g14
g2
Ntp963
Rp964
(dp965
g18
I0
sg19
I19
sbaa(lp966
g0
(g14
g2
Ntp967
Rp968
(dp969
g18
I1
sg19
I19
sbaa(lp970
g0
(g14
g2
Ntp971
Rp972
(dp973
g18
I2
sg19
I19
sbaa(lp974
g0
(g14
g2
Ntp975
Rp976
(dp977
g18
I3
sg19
I19
sbaa(lp978
g0
(g14
g2
Ntp979
Rp980
(dp981
g18
I4
sg19
I19
sbaa(lp982
g0
(g25
g2
Ntp983
Rp984
(dp985
g18
I5
sg19
I19
sg29
(I1
I1
I4
I4
tp986
sbaa(lp987
g0
(g25
g2
Ntp988
Rp989
(dp990
g18
I6
sg19
I19
sg29
(I4
I4
I1
I1
tp991
sbaa(lp992
g0
(g14
g2
Ntp993
Rp994
(dp995
g18
I7
sg19
I19
sbaa(lp996
g0
(g14
g2
Ntp997
Rp998
(dp999
g18
I8
sg19
I19
sbaa(lp1000
g0
(g14
g2
Ntp1001
Rp1002
(dp1003
g18
I9
sg19
I19
sbaa(lp1004
g0
(g14
g2
Ntp1005
Rp1006
(dp1007
g18
I10
sg19
I19
sbaaasS'iscale'
p1008
I3
sb.