ccopy_reg
_reconstructor
p0
(cBoard
Board
p1
c__builtin__
object
p2
Ntp3
Rp4
(dp5
S'sy'
p6
I12
sS'sx'
p7
I12
sS'rscale'
p8
I64
sS'ascale'
p9
I4
sS't'
p10
(lp11
(lp12
(lp13
g0
(cTiles
Air
p14
g2
Ntp15
Rp16
(dp17
S'y'
p18
I0
sS'x'
p19
I0
sbaa(lp20
g0
(g14
g2
Ntp21
Rp22
(dp23
g18
I1
sg19
I0
sbaa(lp24
g0
(g14
g2
Ntp25
Rp26
(dp27
g18
I2
sg19
I0
sbaa(lp28
g0
(g14
g2
Ntp29
Rp30
(dp31
g18
I3
sg19
I0
sbag0
(cTiles
CloudBlock
p32
g2
Ntp33
Rp34
(dp35
g18
I3
sg19
I0
sS'gshape'
p36
g0
(cTiles
GravShape
p37
g2
Ntp38
Rp39
(dp40
S'tiles'
p41
(lp42
g0
(g32
g2
Ntp43
Rp44
(dp45
g18
I1
sg19
I3
sg36
g39
sS'corners'
p46
(I1
I0
I4
I2
tp47
sbag0
(g32
g2
Ntp48
Rp49
(dp50
g18
I1
sg19
I2
sg36
g39
sg46
(I0
I1
I2
I4
tp51
sbag0
(g32
g2
Ntp52
Rp53
(dp54
g18
I2
sg19
I2
sg36
g39
sg46
(I3
I4
I4
I4
tp55
sbag0
(g32
g2
Ntp56
Rp57
(dp58
g18
I2
sg19
I1
sg36
g39
sg46
(I0
I1
I2
I4
tp59
sbag0
(g32
g2
Ntp60
Rp61
(dp62
g18
I3
sg19
I1
sg36
g39
sg46
(I3
I4
I4
I4
tp63
sbag34
ag0
(g32
g2
Ntp64
Rp65
(dp66
g18
I4
sg19
I0
sg36
g39
sg46
(I2
I4
I0
I1
tp67
sbag0
(g32
g2
Ntp68
Rp69
(dp70
g18
I4
sg19
I1
sg36
g39
sg46
(I4
I4
I1
I1
tp71
sbag0
(g32
g2
Ntp72
Rp73
(dp74
g18
I4
sg19
I2
sg36
g39
sg46
(I4
I2
I1
I0
tp75
sbag0
(g32
g2
Ntp76
Rp77
(dp78
g18
I3
sg19
I3
sg36
g39
sg46
(I4
I2
I1
I0
tp79
sbag0
(g32
g2
Ntp80
Rp81
(dp82
g18
I2
sg19
I3
sg36
g39
sg46
(I4
I2
I4
I2
tp83
sbag0
(g32
g2
Ntp84
Rp85
(dp86
g18
I3
sg19
I2
sg36
g39
sg46
(I4
I4
I4
I3
tp87
sbasbsg46
(I0
I1
I2
I4
tp88
sbaa(lp89
g0
(g14
g2
Ntp90
Rp91
(dp92
g18
I4
sg19
I0
sbag65
aa(lp93
g0
(g14
g2
Ntp94
Rp95
(dp96
g18
I5
sg19
I0
sbaa(lp97
g0
(g14
g2
Ntp98
Rp99
(dp100
g18
I6
sg19
I0
sbaa(lp101
g0
(g14
g2
Ntp102
Rp103
(dp104
g18
I7
sg19
I0
sbaa(lp105
g0
(g14
g2
Ntp106
Rp107
(dp108
g18
I8
sg19
I0
sbaa(lp109
g0
(g14
g2
Ntp110
Rp111
(dp112
g18
I9
sg19
I0
sbag0
(cSnake
SnakeSeg
p113
g2
Ntp114
Rp115
(dp116
g36
g0
(cSnake
Snake
p117
g2
Ntp118
Rp119
(dp120
S'iid'
p121
I0
sg41
(lp122
g115
ag0
(g113
g2
Ntp123
Rp124
(dp125
g36
g119
sS'snake'
p126
g119
sS'fdir'
p127
I2
sg18
I9
sg19
I1
sS'bdir'
p128
I8
sbag0
(g113
g2
Ntp129
Rp130
(dp131
g36
g119
sg126
g119
sg127
I2
sg18
I9
sg19
I2
sg128
I8
sbag0
(g113
g2
Ntp132
Rp133
(dp134
g36
g119
sg126
g119
sg127
I2
sg18
I9
sg19
I3
sg128
I8
sbag0
(cSnake
SnakeHead
p135
g2
Ntp136
Rp137
(dp138
g18
I9
sg19
I4
sg36
g119
sg126
g119
sS'd'
p139
I1
sbasbsg126
g119
sg127
I2
sg18
I9
sg19
I0
sg128
I0
sbaa(lp140
g0
(cTiles
Dirt
p141
g2
Ntp142
Rp143
(dp144
g18
I10
sg19
I0
sg46
(I1
I1
I4
I4
tp145
sbaa(lp146
g0
(g141
g2
Ntp147
Rp148
(dp149
g18
I11
sg19
I0
sg46
(I4
I4
I4
I4
tp150
sbaaa(lp151
(lp152
g0
(g14
g2
Ntp153
Rp154
(dp155
g18
I0
sg19
I1
sbaa(lp156
g0
(g14
g2
Ntp157
Rp158
(dp159
g18
I1
sg19
I1
sbaa(lp160
g0
(g14
g2
Ntp161
Rp162
(dp163
g18
I2
sg19
I1
sbag57
aa(lp164
g0
(g14
g2
Ntp165
Rp166
(dp167
g18
I3
sg19
I1
sbag61
aa(lp168
g0
(g14
g2
Ntp169
Rp170
(dp171
g18
I4
sg19
I1
sbag69
aa(lp172
g0
(g14
g2
Ntp173
Rp174
(dp175
g18
I5
sg19
I1
sbaa(lp176
g0
(g14
g2
Ntp177
Rp178
(dp179
g18
I6
sg19
I1
sbaa(lp180
g0
(g14
g2
Ntp181
Rp182
(dp183
g18
I7
sg19
I1
sbaa(lp184
g0
(g14
g2
Ntp185
Rp186
(dp187
g18
I8
sg19
I1
sbaa(lp188
g0
(g14
g2
Ntp189
Rp190
(dp191
g18
I9
sg19
I1
sbag124
aa(lp192
g0
(g141
g2
Ntp193
Rp194
(dp195
g18
I10
sg19
I1
sg46
(I1
I1
I4
I4
tp196
sbaa(lp197
g0
(g141
g2
Ntp198
Rp199
(dp200
g18
I11
sg19
I1
sg46
(I4
I4
I4
I4
tp201
sbaaa(lp202
(lp203
g0
(g14
g2
Ntp204
Rp205
(dp206
g18
I0
sg19
I2
sbaa(lp207
g0
(g14
g2
Ntp208
Rp209
(dp210
g18
I1
sg19
I2
sbag49
aa(lp211
g0
(g14
g2
Ntp212
Rp213
(dp214
g18
I2
sg19
I2
sbag53
aa(lp215
g0
(g14
g2
Ntp216
Rp217
(dp218
g18
I3
sg19
I2
sbag85
aa(lp219
g0
(g14
g2
Ntp220
Rp221
(dp222
g18
I4
sg19
I2
sbag73
aa(lp223
g0
(g14
g2
Ntp224
Rp225
(dp226
g18
I5
sg19
I2
sbaa(lp227
g0
(g14
g2
Ntp228
Rp229
(dp230
g18
I6
sg19
I2
sbaa(lp231
g0
(g14
g2
Ntp232
Rp233
(dp234
g18
I7
sg19
I2
sbaa(lp235
g0
(g14
g2
Ntp236
Rp237
(dp238
g18
I8
sg19
I2
sbaa(lp239
g0
(g14
g2
Ntp240
Rp241
(dp242
g18
I9
sg19
I2
sbag130
aa(lp243
g0
(g141
g2
Ntp244
Rp245
(dp246
g18
I10
sg19
I2
sg46
(I1
I1
I4
I4
tp247
sbaa(lp248
g0
(g141
g2
Ntp249
Rp250
(dp251
g18
I11
sg19
I2
sg46
(I4
I4
I4
I4
tp252
sbaaa(lp253
(lp254
g0
(g14
g2
Ntp255
Rp256
(dp257
g18
I0
sg19
I3
sbaa(lp258
g0
(g14
g2
Ntp259
Rp260
(dp261
g18
I1
sg19
I3
sbag44
aa(lp262
g0
(g14
g2
Ntp263
Rp264
(dp265
g18
I2
sg19
I3
sbag81
aa(lp266
g0
(g14
g2
Ntp267
Rp268
(dp269
g18
I3
sg19
I3
sbag77
aa(lp270
g0
(g14
g2
Ntp271
Rp272
(dp273
g18
I4
sg19
I3
sbaa(lp274
g0
(g14
g2
Ntp275
Rp276
(dp277
g18
I5
sg19
I3
sbaa(lp278
g0
(g14
g2
Ntp279
Rp280
(dp281
g18
I6
sg19
I3
sbag0
(g32
g2
Ntp282
Rp283
(dp284
g18
I6
sg19
I3
sg36
g0
(g37
g2
Ntp285
Rp286
(dp287
g41
(lp288
g0
(g32
g2
Ntp289
Rp290
(dp291
g18
I5
sg19
I5
sg36
g286
sg46
(I0
I0
I2
I2
tp292
sbag0
(g32
g2
Ntp293
Rp294
(dp295
g18
I6
sg19
I5
sg36
g286
sg46
(I3
I3
I4
I3
tp296
sbag0
(g32
g2
Ntp297
Rp298
(dp299
g18
I6
sg19
I4
sg36
g286
sg46
(I1
I1
I4
I4
tp300
sbag283
ag0
(g32
g2
Ntp301
Rp302
(dp303
g18
I7
sg19
I3
sg36
g286
sg46
(I2
I4
I0
I1
tp304
sbag0
(g32
g2
Ntp305
Rp306
(dp307
g18
I7
sg19
I4
sg36
g286
sg46
(I4
I4
I1
I1
tp308
sbag0
(g32
g2
Ntp309
Rp310
(dp311
g18
I7
sg19
I5
sg36
g286
sg46
(I4
I2
I1
I0
tp312
sbag0
(g32
g2
Ntp313
Rp314
(dp315
g18
I6
sg19
I6
sg36
g286
sg46
(I1
I0
I1
I0
tp316
sbasbsg46
(I0
I1
I2
I4
tp317
sbaa(lp318
g0
(g14
g2
Ntp319
Rp320
(dp321
g18
I7
sg19
I3
sbag302
aa(lp322
g0
(g14
g2
Ntp323
Rp324
(dp325
g18
I8
sg19
I3
sbaa(lp326
g0
(g14
g2
Ntp327
Rp328
(dp329
g18
I9
sg19
I3
sbag133
aa(lp330
g0
(g141
g2
Ntp331
Rp332
(dp333
g18
I10
sg19
I3
sg46
(I1
I1
I4
I4
tp334
sbaa(lp335
g0
(g141
g2
Ntp336
Rp337
(dp338
g18
I11
sg19
I3
sg46
(I4
I4
I4
I4
tp339
sbaaa(lp340
(lp341
g0
(g14
g2
Ntp342
Rp343
(dp344
g18
I0
sg19
I4
sbaa(lp345
g0
(g14
g2
Ntp346
Rp347
(dp348
g18
I1
sg19
I4
sbaa(lp349
g0
(g14
g2
Ntp350
Rp351
(dp352
g18
I2
sg19
I4
sbaa(lp353
g0
(g14
g2
Ntp354
Rp355
(dp356
g18
I3
sg19
I4
sbaa(lp357
g0
(g14
g2
Ntp358
Rp359
(dp360
g18
I4
sg19
I4
sbaa(lp361
g0
(g14
g2
Ntp362
Rp363
(dp364
g18
I5
sg19
I4
sbaa(lp365
g0
(g14
g2
Ntp366
Rp367
(dp368
g18
I6
sg19
I4
sbag298
aa(lp369
g0
(g14
g2
Ntp370
Rp371
(dp372
g18
I7
sg19
I4
sbag306
aa(lp373
g0
(g14
g2
Ntp374
Rp375
(dp376
g18
I8
sg19
I4
sbaa(lp377
g0
(g14
g2
Ntp378
Rp379
(dp380
g18
I9
sg19
I4
sbag137
aa(lp381
g0
(g141
g2
Ntp382
Rp383
(dp384
g18
I10
sg19
I4
sg46
(I1
I1
I4
I4
tp385
sbaa(lp386
g0
(g141
g2
Ntp387
Rp388
(dp389
g18
I11
sg19
I4
sg46
(I4
I4
I4
I4
tp390
sbaaa(lp391
(lp392
g0
(g14
g2
Ntp393
Rp394
(dp395
g18
I0
sg19
I5
sbaa(lp396
g0
(g14
g2
Ntp397
Rp398
(dp399
g18
I1
sg19
I5
sbaa(lp400
g0
(g14
g2
Ntp401
Rp402
(dp403
g18
I2
sg19
I5
sbaa(lp404
g0
(g14
g2
Ntp405
Rp406
(dp407
g18
I3
sg19
I5
sbaa(lp408
g0
(g14
g2
Ntp409
Rp410
(dp411
g18
I4
sg19
I5
sbaa(lp412
g0
(g14
g2
Ntp413
Rp414
(dp415
g18
I5
sg19
I5
sbag290
aa(lp416
g0
(g14
g2
Ntp417
Rp418
(dp419
g18
I6
sg19
I5
sbag294
aa(lp420
g0
(g14
g2
Ntp421
Rp422
(dp423
g18
I7
sg19
I5
sbag310
aa(lp424
g0
(g14
g2
Ntp425
Rp426
(dp427
g18
I8
sg19
I5
sbaa(lp428
g0
(g14
g2
Ntp429
Rp430
(dp431
g18
I9
sg19
I5
sbaa(lp432
g0
(g141
g2
Ntp433
Rp434
(dp435
g18
I10
sg19
I5
sg46
(I1
I1
I4
I4
tp436
sbaa(lp437
g0
(g141
g2
Ntp438
Rp439
(dp440
g18
I11
sg19
I5
sg46
(I4
I4
I4
I4
tp441
sbaaa(lp442
(lp443
g0
(g14
g2
Ntp444
Rp445
(dp446
g18
I0
sg19
I6
sbaa(lp447
g0
(g14
g2
Ntp448
Rp449
(dp450
g18
I1
sg19
I6
sbaa(lp451
g0
(g14
g2
Ntp452
Rp453
(dp454
g18
I2
sg19
I6
sbag0
(g32
g2
Ntp455
Rp456
(dp457
g18
I2
sg19
I6
sg36
g0
(g37
g2
Ntp458
Rp459
(dp460
g41
(lp461
g0
(g32
g2
Ntp462
Rp463
(dp464
g18
I2
sg19
I7
sg36
g459
sg46
(I1
I1
I4
I4
tp465
sbag456
ag0
(g32
g2
Ntp466
Rp467
(dp468
g18
I3
sg19
I6
sg36
g459
sg46
(I2
I4
I0
I1
tp469
sbag0
(g32
g2
Ntp470
Rp471
(dp472
g18
I3
sg19
I7
sg36
g459
sg46
(I4
I4
I1
I1
tp473
sbag0
(g32
g2
Ntp474
Rp475
(dp476
g18
I3
sg19
I8
sg36
g459
sg46
(I4
I4
I1
I1
tp477
sbag0
(g32
g2
Ntp478
Rp479
(dp480
g18
I3
sg19
I9
sg36
g459
sg46
(I4
I2
I1
I0
tp481
sbag0
(g32
g2
Ntp482
Rp483
(dp484
g18
I2
sg19
I9
sg36
g459
sg46
(I1
I0
I4
I2
tp485
sbag0
(g32
g2
Ntp486
Rp487
(dp488
g18
I2
sg19
I8
sg36
g459
sg46
(I1
I1
I4
I4
tp489
sbasbsg46
(I0
I1
I2
I4
tp490
sbaa(lp491
g0
(g14
g2
Ntp492
Rp493
(dp494
g18
I3
sg19
I6
sbag467
aa(lp495
g0
(g14
g2
Ntp496
Rp497
(dp498
g18
I4
sg19
I6
sbag0
(g135
g2
Ntp499
Rp500
(dp501
g18
I4
sg19
I6
sg36
g0
(g117
g2
Ntp502
Rp503
(dp504
g121
I2
sg41
(lp505
g0
(g113
g2
Ntp506
Rp507
(dp508
g36
g503
sg126
g503
sg127
I8
sg18
I4
sg19
I9
sg128
I0
sbag0
(g113
g2
Ntp509
Rp510
(dp511
g36
g503
sg126
g503
sg127
I8
sg18
I4
sg19
I8
sg128
I2
sbag0
(g113
g2
Ntp512
Rp513
(dp514
g36
g503
sg126
g503
sg127
I8
sg18
I4
sg19
I7
sg128
I2
sbag500
asS'grav'
p515
I-1
sbsg126
g503
sg139
I3
sbaa(lp516
g0
(g14
g2
Ntp517
Rp518
(dp519
g18
I5
sg19
I6
sbaa(lp520
g0
(g14
g2
Ntp521
Rp522
(dp523
g18
I6
sg19
I6
sbag314
aa(lp524
g0
(g14
g2
Ntp525
Rp526
(dp527
g18
I7
sg19
I6
sbaa(lp528
g0
(g14
g2
Ntp529
Rp530
(dp531
g18
I8
sg19
I6
sbaa(lp532
g0
(g14
g2
Ntp533
Rp534
(dp535
g18
I9
sg19
I6
sbaa(lp536
g0
(g141
g2
Ntp537
Rp538
(dp539
g18
I10
sg19
I6
sg46
(I1
I1
I4
I4
tp540
sbaa(lp541
g0
(g141
g2
Ntp542
Rp543
(dp544
g18
I11
sg19
I6
sg46
(I4
I4
I4
I4
tp545
sbaaa(lp546
(lp547
g0
(g14
g2
Ntp548
Rp549
(dp550
g18
I0
sg19
I7
sbaa(lp551
g0
(g14
g2
Ntp552
Rp553
(dp554
g18
I1
sg19
I7
sbaa(lp555
g0
(g14
g2
Ntp556
Rp557
(dp558
g18
I2
sg19
I7
sbag463
aa(lp559
g0
(g14
g2
Ntp560
Rp561
(dp562
g18
I3
sg19
I7
sbag471
aa(lp563
g0
(g14
g2
Ntp564
Rp565
(dp566
g18
I4
sg19
I7
sbag513
aa(lp567
g0
(g14
g2
Ntp568
Rp569
(dp570
g18
I5
sg19
I7
sbaa(lp571
g0
(g14
g2
Ntp572
Rp573
(dp574
g18
I6
sg19
I7
sbaa(lp575
g0
(g14
g2
Ntp576
Rp577
(dp578
g18
I7
sg19
I7
sbaa(lp579
g0
(g14
g2
Ntp580
Rp581
(dp582
g18
I8
sg19
I7
sbaa(lp583
g0
(g14
g2
Ntp584
Rp585
(dp586
g18
I9
sg19
I7
sbaa(lp587
g0
(g141
g2
Ntp588
Rp589
(dp590
g18
I10
sg19
I7
sg46
(I1
I1
I4
I4
tp591
sbaa(lp592
g0
(g141
g2
Ntp593
Rp594
(dp595
g18
I11
sg19
I7
sg46
(I4
I4
I4
I4
tp596
sbaaa(lp597
(lp598
g0
(g14
g2
Ntp599
Rp600
(dp601
g18
I0
sg19
I8
sbaa(lp602
g0
(cTiles
Portal
p603
g2
Ntp604
Rp605
(dp606
g18
I1
sg19
I8
sS'i'
p607
I01
sbaa(lp608
g0
(g14
g2
Ntp609
Rp610
(dp611
g18
I2
sg19
I8
sbag487
aa(lp612
g0
(g14
g2
Ntp613
Rp614
(dp615
g18
I3
sg19
I8
sbag475
aa(lp616
g0
(g14
g2
Ntp617
Rp618
(dp619
g18
I4
sg19
I8
sbag510
aa(lp620
g0
(g14
g2
Ntp621
Rp622
(dp623
g18
I5
sg19
I8
sbaa(lp624
g0
(g14
g2
Ntp625
Rp626
(dp627
g18
I6
sg19
I8
sbaa(lp628
g0
(g14
g2
Ntp629
Rp630
(dp631
g18
I7
sg19
I8
sbaa(lp632
g0
(g14
g2
Ntp633
Rp634
(dp635
g18
I8
sg19
I8
sbaa(lp636
g0
(g14
g2
Ntp637
Rp638
(dp639
g18
I9
sg19
I8
sbaa(lp640
g0
(g141
g2
Ntp641
Rp642
(dp643
g18
I10
sg19
I8
sg46
(I1
I1
I4
I4
tp644
sbaa(lp645
g0
(g141
g2
Ntp646
Rp647
(dp648
g18
I11
sg19
I8
sg46
(I4
I4
I4
I4
tp649
sbaaa(lp650
(lp651
g0
(g14
g2
Ntp652
Rp653
(dp654
g18
I0
sg19
I9
sbaa(lp655
g0
(g14
g2
Ntp656
Rp657
(dp658
g18
I1
sg19
I9
sbaa(lp659
g0
(g14
g2
Ntp660
Rp661
(dp662
g18
I2
sg19
I9
sbag483
aa(lp663
g0
(g14
g2
Ntp664
Rp665
(dp666
g18
I3
sg19
I9
sbag479
aa(lp667
g0
(g14
g2
Ntp668
Rp669
(dp670
g18
I4
sg19
I9
sbag507
aa(lp671
g0
(g14
g2
Ntp672
Rp673
(dp674
g18
I5
sg19
I9
sbaa(lp675
g0
(g141
g2
Ntp676
Rp677
(dp678
g18
I6
sg19
I9
sg46
(I0
I1
I2
I3
tp679
sbaa(lp680
g0
(g141
g2
Ntp681
Rp682
(dp683
g18
I7
sg19
I9
sg46
(I2
I2
I2
I2
tp684
sbaa(lp685
g0
(g141
g2
Ntp686
Rp687
(dp688
g18
I8
sg19
I9
sg46
(I2
I2
I0
I0
tp689
sbaa(lp690
g0
(g14
g2
Ntp691
Rp692
(dp693
g18
I9
sg19
I9
sbaa(lp694
g0
(g141
g2
Ntp695
Rp696
(dp697
g18
I10
sg19
I9
sg46
(I1
I1
I4
I4
tp698
sbaa(lp699
g0
(g141
g2
Ntp700
Rp701
(dp702
g18
I11
sg19
I9
sg46
(I4
I4
I4
I4
tp703
sbaaa(lp704
(lp705
g0
(g14
g2
Ntp706
Rp707
(dp708
g18
I0
sg19
I10
sbaa(lp709
g0
(g14
g2
Ntp710
Rp711
(dp712
g18
I1
sg19
I10
sbaa(lp713
g0
(g14
g2
Ntp714
Rp715
(dp716
g18
I2
sg19
I10
sbaa(lp717
g0
(g14
g2
Ntp718
Rp719
(dp720
g18
I3
sg19
I10
sbaa(lp721
g0
(g14
g2
Ntp722
Rp723
(dp724
g18
I4
sg19
I10
sbaa(lp725
g0
(g14
g2
Ntp726
Rp727
(dp728
g18
I5
sg19
I10
sbaa(lp729
g0
(g141
g2
Ntp730
Rp731
(dp732
g18
I6
sg19
I10
sg46
(I1
I1
I1
I1
tp733
sbaa(lp734
g0
(cTiles
Fruit
p735
g2
Ntp736
Rp737
(dp738
g18
I7
sg19
I10
sg121
I1
sbaa(lp739
g0
(g14
g2
Ntp740
Rp741
(dp742
g18
I8
sg19
I10
sbaa(lp743
g0
(g14
g2
Ntp744
Rp745
(dp746
g18
I9
sg19
I10
sbaa(lp747
g0
(g141
g2
Ntp748
Rp749
(dp750
g18
I10
sg19
I10
sg46
(I1
I1
I4
I4
tp751
sbaa(lp752
g0
(g141
g2
Ntp753
Rp754
(dp755
g18
I11
sg19
I10
sg46
(I4
I4
I4
I4
tp756
sbaaa(lp757
(lp758
g0
(g14
g2
Ntp759
Rp760
(dp761
g18
I0
sg19
I11
sbaa(lp762
g0
(g14
g2
Ntp763
Rp764
(dp765
g18
I1
sg19
I11
sbaa(lp766
g0
(g14
g2
Ntp767
Rp768
(dp769
g18
I2
sg19
I11
sbaa(lp770
g0
(g14
g2
Ntp771
Rp772
(dp773
g18
I3
sg19
I11
sbaa(lp774
g0
(g14
g2
Ntp775
Rp776
(dp777
g18
I4
sg19
I11
sbaa(lp778
g0
(g14
g2
Ntp779
Rp780
(dp781
g18
I5
sg19
I11
sbaa(lp782
g0
(g141
g2
Ntp783
Rp784
(dp785
g18
I6
sg19
I11
sg46
(I1
I1
I1
I1
tp786
sbaa(lp787
g0
(g14
g2
Ntp788
Rp789
(dp790
g18
I7
sg19
I11
sbaa(lp791
g0
(g14
g2
Ntp792
Rp793
(dp794
g18
I8
sg19
I11
sbaa(lp795
g0
(g14
g2
Ntp796
Rp797
(dp798
g18
I9
sg19
I11
sbaa(lp799
g0
(g141
g2
Ntp800
Rp801
(dp802
g18
I10
sg19
I11
sg46
(I1
I1
I4
I4
tp803
sbaa(lp804
g0
(g141
g2
Ntp805
Rp806
(dp807
g18
I11
sg19
I11
sg46
(I4
I4
I4
I4
tp808
sbaaasS'iscale'
p809
I3
sb.