ccopy_reg
_reconstructor
p0
(cBoard
Board
p1
c__builtin__
object
p2
Ntp3
Rp4
(dp5
S'sy'
p6
I12
sS'sx'
p7
I12
sS'rscale'
p8
I64
sS'ascale'
p9
I4
sS't'
p10
(lp11
(lp12
(lp13
g0
(cTiles
Air
p14
g2
Ntp15
Rp16
(dp17
S'y'
p18
I0
sS'x'
p19
I0
sbaa(lp20
g0
(g14
g2
Ntp21
Rp22
(dp23
g18
I1
sg19
I0
sbaa(lp24
g0
(g14
g2
Ntp25
Rp26
(dp27
g18
I2
sg19
I0
sbaa(lp28
g0
(g14
g2
Ntp29
Rp30
(dp31
g18
I3
sg19
I0
sbag0
(cTiles
CloudBlock
p32
g2
Ntp33
Rp34
(dp35
g18
I3
sg19
I0
sS'gshape'
p36
g0
(cTiles
GravShape
p37
g2
Ntp38
Rp39
(dp40
S'tiles'
p41
(lp42
g0
(g32
g2
Ntp43
Rp44
(dp45
g18
I1
sg19
I3
sg36
g39
sS'corners'
p46
(I1
I0
I4
I2
tp47
sbag0
(g32
g2
Ntp48
Rp49
(dp50
g18
I1
sg19
I2
sg36
g39
sg46
(I0
I1
I2
I4
tp51
sbag0
(g32
g2
Ntp52
Rp53
(dp54
g18
I2
sg19
I2
sg36
g39
sg46
(I3
I4
I4
I4
tp55
sbag0
(g32
g2
Ntp56
Rp57
(dp58
g18
I2
sg19
I1
sg36
g39
sg46
(I0
I1
I2
I4
tp59
sbag0
(g32
g2
Ntp60
Rp61
(dp62
g18
I3
sg19
I1
sg36
g39
sg46
(I3
I4
I4
I4
tp63
sbag34
ag0
(g32
g2
Ntp64
Rp65
(dp66
g18
I4
sg19
I0
sg36
g39
sg46
(I2
I4
I0
I1
tp67
sbag0
(g32
g2
Ntp68
Rp69
(dp70
g18
I4
sg19
I1
sg36
g39
sg46
(I4
I4
I1
I1
tp71
sbag0
(g32
g2
Ntp72
Rp73
(dp74
g18
I4
sg19
I2
sg36
g39
sg46
(I4
I2
I1
I0
tp75
sbag0
(g32
g2
Ntp76
Rp77
(dp78
g18
I3
sg19
I3
sg36
g39
sg46
(I4
I2
I1
I0
tp79
sbag0
(g32
g2
Ntp80
Rp81
(dp82
g18
I2
sg19
I3
sg36
g39
sg46
(I4
I2
I4
I2
tp83
sbag0
(g32
g2
Ntp84
Rp85
(dp86
g18
I3
sg19
I2
sg36
g39
sg46
(I4
I4
I4
I3
tp87
sbasbsg46
(I0
I1
I2
I4
tp88
sbaa(lp89
g0
(g14
g2
Ntp90
Rp91
(dp92
g18
I4
sg19
I0
sbag65
aa(lp93
g0
(g14
g2
Ntp94
Rp95
(dp96
g18
I5
sg19
I0
sbaa(lp97
g0
(g14
g2
Ntp98
Rp99
(dp100
g18
I6
sg19
I0
sbaa(lp101
g0
(g14
g2
Ntp102
Rp103
(dp104
g18
I7
sg19
I0
sbaa(lp105
g0
(g14
g2
Ntp106
Rp107
(dp108
g18
I8
sg19
I0
sbaa(lp109
g0
(g14
g2
Ntp110
Rp111
(dp112
g18
I9
sg19
I0
sbag0
(cSnake
SnakeSeg
p113
g2
Ntp114
Rp115
(dp116
g36
g0
(cSnake
Snake
p117
g2
Ntp118
Rp119
(dp120
S'iid'
p121
I0
sg41
(lp122
g115
ag0
(g113
g2
Ntp123
Rp124
(dp125
g36
g119
sS'snake'
p126
g119
sS'fdir'
p127
I2
sg18
I9
sg19
I1
sS'bdir'
p128
I8
sbag0
(g113
g2
Ntp129
Rp130
(dp131
g36
g119
sg126
g119
sg127
I2
sg18
I9
sg19
I2
sg128
I8
sbag0
(g113
g2
Ntp132
Rp133
(dp134
g36
g119
sg126
g119
sg127
I2
sg18
I9
sg19
I3
sg128
I8
sbag0
(cSnake
SnakeHead
p135
g2
Ntp136
Rp137
(dp138
g18
I9
sg19
I4
sg36
g119
sg126
g119
sS'd'
p139
I1
sbasbsg126
g119
sg127
I2
sg18
I9
sg19
I0
sg128
I0
sbaa(lp140
g0
(cTiles
Dirt
p141
g2
Ntp142
Rp143
(dp144
g18
I10
sg19
I0
sg46
(I1
I1
I4
I4
tp145
sbaa(lp146
g0
(g141
g2
Ntp147
Rp148
(dp149
g18
I11
sg19
I0
sg46
(I4
I4
I4
I4
tp150
sbaaa(lp151
(lp152
g0
(g14
g2
Ntp153
Rp154
(dp155
g18
I0
sg19
I1
sbaa(lp156
g0
(g14
g2
Ntp157
Rp158
(dp159
g18
I1
sg19
I1
sbaa(lp160
g0
(g14
g2
Ntp161
Rp162
(dp163
g18
I2
sg19
I1
sbag57
aa(lp164
g0
(g14
g2
Ntp165
Rp166
(dp167
g18
I3
sg19
I1
sbag61
aa(lp168
g0
(g14
g2
Ntp169
Rp170
(dp171
g18
I4
sg19
I1
sbag69
aa(lp172
g0
(g14
g2
Ntp173
Rp174
(dp175
g18
I5
sg19
I1
sbaa(lp176
g0
(g14
g2
Ntp177
Rp178
(dp179
g18
I6
sg19
I1
sbaa(lp180
g0
(g14
g2
Ntp181
Rp182
(dp183
g18
I7
sg19
I1
sbaa(lp184
g0
(g14
g2
Ntp185
Rp186
(dp187
g18
I8
sg19
I1
sbaa(lp188
g0
(g14
g2
Ntp189
Rp190
(dp191
g18
I9
sg19
I1
sbag124
aa(lp192
g0
(g141
g2
Ntp193
Rp194
(dp195
g18
I10
sg19
I1
sg46
(I1
I1
I4
I4
tp196
sbaa(lp197
g0
(g141
g2
Ntp198
Rp199
(dp200
g18
I11
sg19
I1
sg46
(I4
I4
I4
I4
tp201
sbaaa(lp202
(lp203
g0
(g14
g2
Ntp204
Rp205
(dp206
g18
I0
sg19
I2
sbaa(lp207
g0
(g14
g2
Ntp208
Rp209
(dp210
g18
I1
sg19
I2
sbag49
aa(lp211
g0
(g14
g2
Ntp212
Rp213
(dp214
g18
I2
sg19
I2
sbag53
aa(lp215
g0
(g14
g2
Ntp216
Rp217
(dp218
g18
I3
sg19
I2
sbag85
aa(lp219
g0
(g14
g2
Ntp220
Rp221
(dp222
g18
I4
sg19
I2
sbag73
aa(lp223
g0
(g14
g2
Ntp224
Rp225
(dp226
g18
I5
sg19
I2
sbaa(lp227
g0
(g14
g2
Ntp228
Rp229
(dp230
g18
I6
sg19
I2
sbaa(lp231
g0
(g14
g2
Ntp232
Rp233
(dp234
g18
I7
sg19
I2
sbaa(lp235
g0
(g14
g2
Ntp236
Rp237
(dp238
g18
I8
sg19
I2
sbaa(lp239
g0
(g14
g2
Ntp240
Rp241
(dp242
g18
I9
sg19
I2
sbag130
aa(lp243
g0
(g141
g2
Ntp244
Rp245
(dp246
g18
I10
sg19
I2
sg46
(I1
I1
I4
I4
tp247
sbaa(lp248
g0
(g141
g2
Ntp249
Rp250
(dp251
g18
I11
sg19
I2
sg46
(I4
I4
I4
I4
tp252
sbaaa(lp253
(lp254
g0
(g14
g2
Ntp255
Rp256
(dp257
g18
I0
sg19
I3
sbaa(lp258
g0
(g14
g2
Ntp259
Rp260
(dp261
g18
I1
sg19
I3
sbag44
aa(lp262
g0
(g14
g2
Ntp263
Rp264
(dp265
g18
I2
sg19
I3
sbag81
aa(lp266
g0
(g14
g2
Ntp267
Rp268
(dp269
g18
I3
sg19
I3
sbag77
aa(lp270
g0
(g14
g2
Ntp271
Rp272
(dp273
g18
I4
sg19
I3
sbaa(lp274
g0
(g14
g2
Ntp275
Rp276
(dp277
g18
I5
sg19
I3
sbaa(lp278
g0
(g14
g2
Ntp279
Rp280
(dp281
g18
I6
sg19
I3
sbag0
(g32
g2
Ntp282
Rp283
(dp284
g18
I6
sg19
I3
sg36
g0
(g37
g2
Ntp285
Rp286
(dp287
g41
(lp288
g0
(g32
g2
Ntp289
Rp290
(dp291
g18
I5
sg19
I5
sg36
g286
sg46
(I0
I0
I2
I2
tp292
sbag0
(g32
g2
Ntp293
Rp294
(dp295
g18
I6
sg19
I5
sg36
g286
sg46
(I3
I3
I4
I3
tp296
sbag0
(g32
g2
Ntp297
Rp298
(dp299
g18
I6
sg19
I4
sg36
g286
sg46
(I1
I1
I4
I4
tp300
sbag283
ag0
(g32
g2
Ntp301
Rp302
(dp303
g18
I7
sg19
I3
sg36
g286
sg46
(I2
I4
I0
I1
tp304
sbag0
(g32
g2
Ntp305
Rp306
(dp307
g18
I7
sg19
I4
sg36
g286
sg46
(I4
I4
I1
I1
tp308
sbag0
(g32
g2
Ntp309
Rp310
(dp311
g18
I7
sg19
I5
sg36
g286
sg46
(I4
I2
I1
I0
tp312
sbag0
(g32
g2
Ntp313
Rp314
(dp315
g18
I6
sg19
I6
sg36
g286
sg46
(I1
I0
I1
I0
tp316
sbasbsg46
(I0
I1
I2
I4
tp317
sbaa(lp318
g0
(g14
g2
Ntp319
Rp320
(dp321
g18
I7
sg19
I3
sbag302
aa(lp322
g0
(g14
g2
Ntp323
Rp324
(dp325
g18
I8
sg19
I3
sbaa(lp326
g0
(g14
g2
Ntp327
Rp328
(dp329
g18
I9
sg19
I3
sbag133
aa(lp330
g0
(g141
g2
Ntp331
Rp332
(dp333
g18
I10
sg19
I3
sg46
(I1
I1
I4
I4
tp334
sbaa(lp335
g0
(g141
g2
Ntp336
Rp337
(dp338
g18
I11
sg19
I3
sg46
(I4
I4
I4
I4
tp339
sbaaa(lp340
(lp341
g0
(g14
g2
Ntp342
Rp343
(dp344
g18
I0
sg19
I4
sbaa(lp345
g0
(g14
g2
Ntp346
Rp347
(dp348
g18
I1
sg19
I4
sbaa(lp349
g0
(g14
g2
Ntp350
Rp351
(dp352
g18
I2
sg19
I4
sbaa(lp353
g0
(g14
g2
Ntp354
Rp355
(dp356
g18
I3
sg19
I4
sbaa(lp357
g0
(g14
g2
Ntp358
Rp359
(dp360
g18
I4
sg19
I4
sbaa(lp361
g0
(g14
g2
Ntp362
Rp363
(dp364
g18
I5
sg19
I4
sbaa(lp365
g0
(g14
g2
Ntp366
Rp367
(dp368
g18
I6
sg19
I4
sbag298
aa(lp369
g0
(g14
g2
Ntp370
Rp371
(dp372
g18
I7
sg19
I4
sbag306
aa(lp373
g0
(g14
g2
Ntp374
Rp375
(dp376
g18
I8
sg19
I4
sbaa(lp377
g0
(g14
g2
Ntp378
Rp379
(dp380
g18
I9
sg19
I4
sbag137
aa(lp381
g0
(g141
g2
Ntp382
Rp383
(dp384
g18
I10
sg19
I4
sg46
(I1
I1
I4
I4
tp385
sbaa(lp386
g0
(g141
g2
Ntp387
Rp388
(dp389
g18
I11
sg19
I4
sg46
(I4
I4
I4
I4
tp390
sbaaa(lp391
(lp392
g0
(g14
g2
Ntp393
Rp394
(dp395
g18
I0
sg19
I5
sbaa(lp396
g0
(g14
g2
Ntp397
Rp398
(dp399
g18
I1
sg19
I5
sbaa(lp400
g0
(g14
g2
Ntp401
Rp402
(dp403
g18
I2
sg19
I5
sbaa(lp404
g0
(g14
g2
Ntp405
Rp406
(dp407
g18
I3
sg19
I5
sbaa(lp408
g0
(g14
g2
Ntp409
Rp410
(dp411
g18
I4
sg19
I5
sbaa(lp412
g0
(g14
g2
Ntp413
Rp414
(dp415
g18
I5
sg19
I5
sbag290
aa(lp416
g0
(g14
g2
Ntp417
Rp418
(dp419
g18
I6
sg19
I5
sbag294
aa(lp420
g0
(g14
g2
Ntp421
Rp422
(dp423
g18
I7
sg19
I5
sbag310
aa(lp424
g0
(g14
g2
Ntp425
Rp426
(dp427
g18
I8
sg19
I5
sbaa(lp428
g0
(g14
g2
Ntp429
Rp430
(dp431
g18
I9
sg19
I5
sbaa(lp432
g0
(g141
g2
Ntp433
Rp434
(dp435
g18
I10
sg19
I5
sg46
(I1
I1
I4
I4
tp436
sbaa(lp437
g0
(g141
g2
Ntp438
Rp439
(dp440
g18
I11
sg19
I5
sg46
(I4
I4
I4
I4
tp441
sbaaa(lp442
(lp443
g0
(g14
g2
Ntp444
Rp445
(dp446
g18
I0
sg19
I6
sbaa(lp447
g0
(g14
g2
Ntp448
Rp449
(dp450
g18
I1
sg19
I6
sbaa(lp451
g0
(g14
g2
Ntp452
Rp453
(dp454
g18
I2
sg19
I6
sbag0
(g32
g2
Ntp455
Rp456
(dp457
g18
I2
sg19
I6
sg36
g0
(g37
g2
Ntp458
Rp459
(dp460
g41
(lp461
g0
(g32
g2
Ntp462
Rp463
(dp464
g18
I2
sg19
I7
sg36
g459
sg46
(I1
I1
I4
I4
tp465
sbag456
ag0
(g32
g2
Ntp466
Rp467
(dp468
g18
I3
sg19
I6
sg36
g459
sg46
(I2
I4
I0
I1
tp469
sbag0
(g32
g2
Ntp470
Rp471
(dp472
g18
I3
sg19
I7
sg36
g459
sg46
(I4
I4
I1
I1
tp473
sbag0
(g32
g2
Ntp474
Rp475
(dp476
g18
I3
sg19
I8
sg36
g459
sg46
(I4
I4
I1
I1
tp477
sbag0
(g32
g2
Ntp478
Rp479
(dp480
g18
I3
sg19
I9
sg36
g459
sg46
(I4
I2
I1
I0
tp481
sbag0
(g32
g2
Ntp482
Rp483
(dp484
g18
I2
sg19
I9
sg36
g459
sg46
(I1
I0
I4
I2
tp485
sbag0
(g32
g2
Ntp486
Rp487
(dp488
g18
I2
sg19
I8
sg36
g459
sg46
(I1
I1
I4
I4
tp489
sbasbsg46
(I0
I1
I2
I4
tp490
sbaa(lp491
g0
(g14
g2
Ntp492
Rp493
(dp494
g18
I3
sg19
I6
sbag467
aa(lp495
g0
(g14
g2
Ntp496
Rp497
(dp498
g18
I4
sg19
I6
sbag0
(cSnake
AntiSnakeHead
p499
g2
Ntp500
Rp501
(dp502
g18
I4
sg19
I6
sg36
g0
(cSnake
AntiSnake
p503
g2
Ntp504
Rp505
(dp506
g121
I2
sg41
(lp507
g0
(cSnake
AntiSnakeSeg
p508
g2
Ntp509
Rp510
(dp511
g36
g505
sg126
g505
sg127
I8
sg18
I4
sg19
I9
sg128
I0
sbag0
(g508
g2
Ntp512
Rp513
(dp514
g36
g505
sg126
g505
sg127
I8
sg18
I4
sg19
I8
sg128
I2
sbag0
(g508
g2
Ntp515
Rp516
(dp517
g36
g505
sg126
g505
sg127
I8
sg18
I4
sg19
I7
sg128
I2
sbag501
asbsg126
g505
sg139
I3
sbaa(lp518
g0
(g14
g2
Ntp519
Rp520
(dp521
g18
I5
sg19
I6
sbaa(lp522
g0
(g14
g2
Ntp523
Rp524
(dp525
g18
I6
sg19
I6
sbag314
aa(lp526
g0
(g14
g2
Ntp527
Rp528
(dp529
g18
I7
sg19
I6
sbaa(lp530
g0
(g14
g2
Ntp531
Rp532
(dp533
g18
I8
sg19
I6
sbaa(lp534
g0
(g14
g2
Ntp535
Rp536
(dp537
g18
I9
sg19
I6
sbaa(lp538
g0
(g141
g2
Ntp539
Rp540
(dp541
g18
I10
sg19
I6
sg46
(I1
I1
I4
I4
tp542
sbaa(lp543
g0
(g141
g2
Ntp544
Rp545
(dp546
g18
I11
sg19
I6
sg46
(I4
I4
I4
I4
tp547
sbaaa(lp548
(lp549
g0
(g14
g2
Ntp550
Rp551
(dp552
g18
I0
sg19
I7
sbaa(lp553
g0
(g14
g2
Ntp554
Rp555
(dp556
g18
I1
sg19
I7
sbaa(lp557
g0
(g14
g2
Ntp558
Rp559
(dp560
g18
I2
sg19
I7
sbag463
aa(lp561
g0
(g14
g2
Ntp562
Rp563
(dp564
g18
I3
sg19
I7
sbag471
aa(lp565
g0
(g14
g2
Ntp566
Rp567
(dp568
g18
I4
sg19
I7
sbag516
aa(lp569
g0
(g14
g2
Ntp570
Rp571
(dp572
g18
I5
sg19
I7
sbaa(lp573
g0
(g14
g2
Ntp574
Rp575
(dp576
g18
I6
sg19
I7
sbaa(lp577
g0
(g14
g2
Ntp578
Rp579
(dp580
g18
I7
sg19
I7
sbaa(lp581
g0
(g14
g2
Ntp582
Rp583
(dp584
g18
I8
sg19
I7
sbaa(lp585
g0
(g14
g2
Ntp586
Rp587
(dp588
g18
I9
sg19
I7
sbaa(lp589
g0
(g141
g2
Ntp590
Rp591
(dp592
g18
I10
sg19
I7
sg46
(I1
I1
I4
I4
tp593
sbaa(lp594
g0
(g141
g2
Ntp595
Rp596
(dp597
g18
I11
sg19
I7
sg46
(I4
I4
I4
I4
tp598
sbaaa(lp599
(lp600
g0
(g14
g2
Ntp601
Rp602
(dp603
g18
I0
sg19
I8
sbaa(lp604
g0
(cTiles
Portal
p605
g2
Ntp606
Rp607
(dp608
g18
I1
sg19
I8
sS'i'
p609
I01
sbaa(lp610
g0
(g14
g2
Ntp611
Rp612
(dp613
g18
I2
sg19
I8
sbag487
aa(lp614
g0
(g14
g2
Ntp615
Rp616
(dp617
g18
I3
sg19
I8
sbag475
aa(lp618
g0
(g14
g2
Ntp619
Rp620
(dp621
g18
I4
sg19
I8
sbag513
aa(lp622
g0
(g14
g2
Ntp623
Rp624
(dp625
g18
I5
sg19
I8
sbaa(lp626
g0
(g14
g2
Ntp627
Rp628
(dp629
g18
I6
sg19
I8
sbaa(lp630
g0
(g14
g2
Ntp631
Rp632
(dp633
g18
I7
sg19
I8
sbaa(lp634
g0
(g14
g2
Ntp635
Rp636
(dp637
g18
I8
sg19
I8
sbaa(lp638
g0
(g14
g2
Ntp639
Rp640
(dp641
g18
I9
sg19
I8
sbaa(lp642
g0
(g141
g2
Ntp643
Rp644
(dp645
g18
I10
sg19
I8
sg46
(I1
I1
I4
I4
tp646
sbaa(lp647
g0
(g141
g2
Ntp648
Rp649
(dp650
g18
I11
sg19
I8
sg46
(I4
I4
I4
I4
tp651
sbaaa(lp652
(lp653
g0
(g14
g2
Ntp654
Rp655
(dp656
g18
I0
sg19
I9
sbaa(lp657
g0
(g14
g2
Ntp658
Rp659
(dp660
g18
I1
sg19
I9
sbaa(lp661
g0
(g14
g2
Ntp662
Rp663
(dp664
g18
I2
sg19
I9
sbag483
aa(lp665
g0
(g14
g2
Ntp666
Rp667
(dp668
g18
I3
sg19
I9
sbag479
aa(lp669
g0
(g14
g2
Ntp670
Rp671
(dp672
g18
I4
sg19
I9
sbag510
aa(lp673
g0
(g14
g2
Ntp674
Rp675
(dp676
g18
I5
sg19
I9
sbaa(lp677
g0
(g141
g2
Ntp678
Rp679
(dp680
g18
I6
sg19
I9
sg46
(I0
I1
I2
I3
tp681
sbaa(lp682
g0
(g141
g2
Ntp683
Rp684
(dp685
g18
I7
sg19
I9
sg46
(I2
I2
I2
I2
tp686
sbaa(lp687
g0
(g141
g2
Ntp688
Rp689
(dp690
g18
I8
sg19
I9
sg46
(I2
I2
I0
I0
tp691
sbaa(lp692
g0
(g14
g2
Ntp693
Rp694
(dp695
g18
I9
sg19
I9
sbaa(lp696
g0
(g141
g2
Ntp697
Rp698
(dp699
g18
I10
sg19
I9
sg46
(I1
I1
I4
I4
tp700
sbaa(lp701
g0
(g141
g2
Ntp702
Rp703
(dp704
g18
I11
sg19
I9
sg46
(I4
I4
I4
I4
tp705
sbaaa(lp706
(lp707
g0
(g14
g2
Ntp708
Rp709
(dp710
g18
I0
sg19
I10
sbaa(lp711
g0
(g14
g2
Ntp712
Rp713
(dp714
g18
I1
sg19
I10
sbaa(lp715
g0
(g14
g2
Ntp716
Rp717
(dp718
g18
I2
sg19
I10
sbaa(lp719
g0
(g14
g2
Ntp720
Rp721
(dp722
g18
I3
sg19
I10
sbaa(lp723
g0
(g14
g2
Ntp724
Rp725
(dp726
g18
I4
sg19
I10
sbaa(lp727
g0
(g14
g2
Ntp728
Rp729
(dp730
g18
I5
sg19
I10
sbaa(lp731
g0
(g141
g2
Ntp732
Rp733
(dp734
g18
I6
sg19
I10
sg46
(I1
I1
I1
I1
tp735
sbaa(lp736
g0
(cTiles
Fruit
p737
g2
Ntp738
Rp739
(dp740
g18
I7
sg19
I10
sg121
I1
sbaa(lp741
g0
(g14
g2
Ntp742
Rp743
(dp744
g18
I8
sg19
I10
sbaa(lp745
g0
(g14
g2
Ntp746
Rp747
(dp748
g18
I9
sg19
I10
sbaa(lp749
g0
(g141
g2
Ntp750
Rp751
(dp752
g18
I10
sg19
I10
sg46
(I1
I1
I4
I4
tp753
sbaa(lp754
g0
(g141
g2
Ntp755
Rp756
(dp757
g18
I11
sg19
I10
sg46
(I4
I4
I4
I4
tp758
sbaaa(lp759
(lp760
g0
(g14
g2
Ntp761
Rp762
(dp763
g18
I0
sg19
I11
sbaa(lp764
g0
(g14
g2
Ntp765
Rp766
(dp767
g18
I1
sg19
I11
sbaa(lp768
g0
(g14
g2
Ntp769
Rp770
(dp771
g18
I2
sg19
I11
sbaa(lp772
g0
(g14
g2
Ntp773
Rp774
(dp775
g18
I3
sg19
I11
sbaa(lp776
g0
(g14
g2
Ntp777
Rp778
(dp779
g18
I4
sg19
I11
sbaa(lp780
g0
(g14
g2
Ntp781
Rp782
(dp783
g18
I5
sg19
I11
sbaa(lp784
g0
(g141
g2
Ntp785
Rp786
(dp787
g18
I6
sg19
I11
sg46
(I1
I1
I1
I1
tp788
sbaa(lp789
g0
(g14
g2
Ntp790
Rp791
(dp792
g18
I7
sg19
I11
sbaa(lp793
g0
(g14
g2
Ntp794
Rp795
(dp796
g18
I8
sg19
I11
sbaa(lp797
g0
(g14
g2
Ntp798
Rp799
(dp800
g18
I9
sg19
I11
sbaa(lp801
g0
(g141
g2
Ntp802
Rp803
(dp804
g18
I10
sg19
I11
sg46
(I1
I1
I4
I4
tp805
sbaa(lp806
g0
(g141
g2
Ntp807
Rp808
(dp809
g18
I11
sg19
I11
sg46
(I4
I4
I4
I4
tp810
sbaaasS'iscale'
p811
I3
sb.