ccopy_reg
_reconstructor
p0
(cBoard
Board
p1
c__builtin__
object
p2
Ntp3
Rp4
(dp5
S'sy'
p6
I12
sS'sx'
p7
I12
sS'rscale'
p8
I64
sS'ascale'
p9
I4
sS't'
p10
(lp11
(lp12
(lp13
a(lp14
a(lp15
a(lp16
g0
(cTiles
CloudBlock
p17
g2
Ntp18
Rp19
(dp20
S'y'
p21
I3
sS'x'
p22
I0
sS'gshape'
p23
g0
(cTiles
GravShape
p24
g2
Ntp25
Rp26
(dp27
S'tiles'
p28
(lp29
g0
(g17
g2
Ntp30
Rp31
(dp32
g21
I1
sg22
I3
sg23
g26
sS'corners'
p33
(I1
I0
I4
I2
tp34
sbag0
(g17
g2
Ntp35
Rp36
(dp37
g21
I1
sg22
I2
sg23
g26
sg33
(I0
I1
I2
I4
tp38
sbag0
(g17
g2
Ntp39
Rp40
(dp41
g21
I2
sg22
I2
sg23
g26
sg33
(I3
I4
I4
I4
tp42
sbag0
(g17
g2
Ntp43
Rp44
(dp45
g21
I2
sg22
I1
sg23
g26
sg33
(I0
I1
I2
I4
tp46
sbag0
(g17
g2
Ntp47
Rp48
(dp49
g21
I3
sg22
I1
sg23
g26
sg33
(I3
I4
I4
I4
tp50
sbag19
ag0
(g17
g2
Ntp51
Rp52
(dp53
g21
I4
sg22
I0
sg23
g26
sg33
(I2
I4
I0
I1
tp54
sbag0
(g17
g2
Ntp55
Rp56
(dp57
g21
I4
sg22
I1
sg23
g26
sg33
(I4
I4
I1
I1
tp58
sbag0
(g17
g2
Ntp59
Rp60
(dp61
g21
I4
sg22
I2
sg23
g26
sg33
(I4
I2
I1
I0
tp62
sbag0
(g17
g2
Ntp63
Rp64
(dp65
g21
I3
sg22
I3
sg23
g26
sg33
(I4
I2
I1
I0
tp66
sbag0
(g17
g2
Ntp67
Rp68
(dp69
g21
I2
sg22
I3
sg23
g26
sg33
(I4
I2
I4
I2
tp70
sbag0
(g17
g2
Ntp71
Rp72
(dp73
g21
I3
sg22
I2
sg23
g26
sg33
(I4
I4
I4
I3
tp74
sbasbsg33
(I0
I1
I2
I4
tp75
sbaa(lp76
g52
aa(lp77
a(lp78
a(lp79
a(lp80
a(lp81
g0
(cSnake
SnakeSeg
p82
g2
Ntp83
Rp84
(dp85
g23
g0
(cSnake
Snake
p86
g2
Ntp87
Rp88
(dp89
S'iid'
p90
I0
sg28
(lp91
g84
ag0
(g82
g2
Ntp92
Rp93
(dp94
g23
g88
sS'snake'
p95
g88
sS'fdir'
p96
I1
sg21
I9
sg22
I1
sS'bdir'
p97
I3
sbag0
(g82
g2
Ntp98
Rp99
(dp100
g23
g88
sg95
g88
sg96
I1
sg21
I9
sg22
I2
sg97
I3
sbag0
(g82
g2
Ntp101
Rp102
(dp103
g23
g88
sg95
g88
sg96
I1
sg21
I9
sg22
I3
sg97
I3
sbag0
(cSnake
SnakeHead
p104
g2
Ntp105
Rp106
(dp107
g21
I9
sg22
I4
sg23
g88
sg95
g88
sS'd'
p108
I1
sbasbsg95
g88
sg96
I1
sg21
I9
sg22
I0
sg97
Nsbaa(lp109
g0
(cTiles
Dirt
p110
g2
Ntp111
Rp112
(dp113
g21
I10
sg22
I0
sg33
(I1
I1
I4
I4
tp114
sbaa(lp115
g0
(g110
g2
Ntp116
Rp117
(dp118
g21
I11
sg22
I0
sg33
(I4
I4
I4
I4
tp119
sbaaa(lp120
(lp121
a(lp122
a(lp123
g44
aa(lp124
g48
aa(lp125
g56
aa(lp126
a(lp127
a(lp128
a(lp129
a(lp130
g93
aa(lp131
g0
(g110
g2
Ntp132
Rp133
(dp134
g21
I10
sg22
I1
sg33
(I1
I1
I4
I4
tp135
sbaa(lp136
g0
(g110
g2
Ntp137
Rp138
(dp139
g21
I11
sg22
I1
sg33
(I4
I4
I4
I4
tp140
sbaaa(lp141
(lp142
a(lp143
g36
aa(lp144
g40
aa(lp145
g72
aa(lp146
g60
aa(lp147
a(lp148
a(lp149
a(lp150
a(lp151
g99
aa(lp152
g0
(g110
g2
Ntp153
Rp154
(dp155
g21
I10
sg22
I2
sg33
(I1
I1
I4
I4
tp156
sbaa(lp157
g0
(g110
g2
Ntp158
Rp159
(dp160
g21
I11
sg22
I2
sg33
(I4
I4
I4
I4
tp161
sbaaa(lp162
(lp163
a(lp164
g31
aa(lp165
g68
aa(lp166
g64
aa(lp167
a(lp168
a(lp169
g0
(g17
g2
Ntp170
Rp171
(dp172
g21
I6
sg22
I3
sg23
g0
(g24
g2
Ntp173
Rp174
(dp175
g28
(lp176
g0
(g17
g2
Ntp177
Rp178
(dp179
g21
I5
sg22
I5
sg23
g174
sg33
(I0
I0
I2
I2
tp180
sbag0
(g17
g2
Ntp181
Rp182
(dp183
g21
I6
sg22
I5
sg23
g174
sg33
(I3
I3
I4
I3
tp184
sbag0
(g17
g2
Ntp185
Rp186
(dp187
g21
I6
sg22
I4
sg23
g174
sg33
(I1
I1
I4
I4
tp188
sbag171
ag0
(g17
g2
Ntp189
Rp190
(dp191
g21
I7
sg22
I3
sg23
g174
sg33
(I2
I4
I0
I1
tp192
sbag0
(g17
g2
Ntp193
Rp194
(dp195
g21
I7
sg22
I4
sg23
g174
sg33
(I4
I4
I1
I1
tp196
sbag0
(g17
g2
Ntp197
Rp198
(dp199
g21
I7
sg22
I5
sg23
g174
sg33
(I4
I2
I1
I0
tp200
sbag0
(g17
g2
Ntp201
Rp202
(dp203
g21
I6
sg22
I6
sg23
g174
sg33
(I1
I0
I1
I0
tp204
sbasbsg33
(I0
I1
I2
I4
tp205
sbaa(lp206
g190
aa(lp207
a(lp208
g102
aa(lp209
g0
(g110
g2
Ntp210
Rp211
(dp212
g21
I10
sg22
I3
sg33
(I1
I1
I4
I4
tp213
sbaa(lp214
g0
(g110
g2
Ntp215
Rp216
(dp217
g21
I11
sg22
I3
sg33
(I4
I4
I4
I4
tp218
sbaaa(lp219
(lp220
a(lp221
a(lp222
a(lp223
a(lp224
a(lp225
a(lp226
g186
aa(lp227
g194
aa(lp228
a(lp229
g106
aa(lp230
g0
(g110
g2
Ntp231
Rp232
(dp233
g21
I10
sg22
I4
sg33
(I1
I1
I4
I4
tp234
sbaa(lp235
g0
(g110
g2
Ntp236
Rp237
(dp238
g21
I11
sg22
I4
sg33
(I4
I4
I4
I4
tp239
sbaaa(lp240
(lp241
a(lp242
a(lp243
a(lp244
a(lp245
a(lp246
g178
aa(lp247
g182
aa(lp248
g198
aa(lp249
a(lp250
a(lp251
g0
(g110
g2
Ntp252
Rp253
(dp254
g21
I10
sg22
I5
sg33
(I1
I1
I4
I4
tp255
sbaa(lp256
g0
(g110
g2
Ntp257
Rp258
(dp259
g21
I11
sg22
I5
sg33
(I4
I4
I4
I4
tp260
sbaaa(lp261
(lp262
a(lp263
a(lp264
g0
(g17
g2
Ntp265
Rp266
(dp267
g21
I2
sg22
I6
sg23
g0
(g24
g2
Ntp268
Rp269
(dp270
g28
(lp271
g0
(g17
g2
Ntp272
Rp273
(dp274
g21
I2
sg22
I7
sg23
g269
sg33
(I1
I1
I4
I4
tp275
sbag266
ag0
(g17
g2
Ntp276
Rp277
(dp278
g21
I3
sg22
I6
sg23
g269
sg33
(I2
I4
I0
I1
tp279
sbag0
(g17
g2
Ntp280
Rp281
(dp282
g21
I3
sg22
I7
sg23
g269
sg33
(I4
I4
I1
I1
tp283
sbag0
(g17
g2
Ntp284
Rp285
(dp286
g21
I3
sg22
I8
sg23
g269
sg33
(I4
I4
I1
I1
tp287
sbag0
(g17
g2
Ntp288
Rp289
(dp290
g21
I3
sg22
I9
sg23
g269
sg33
(I4
I2
I1
I0
tp291
sbag0
(g17
g2
Ntp292
Rp293
(dp294
g21
I2
sg22
I9
sg23
g269
sg33
(I1
I0
I4
I2
tp295
sbag0
(g17
g2
Ntp296
Rp297
(dp298
g21
I2
sg22
I8
sg23
g269
sg33
(I1
I1
I4
I4
tp299
sbasbsg33
(I0
I1
I2
I4
tp300
sbaa(lp301
g277
aa(lp302
g0
(g104
g2
Ntp303
Rp304
(dp305
g21
I4
sg22
I6
sg23
g0
(g86
g2
Ntp306
Rp307
(dp308
g90
I2
sg28
(lp309
g0
(g82
g2
Ntp310
Rp311
(dp312
g23
g307
sg95
g307
sg96
I3
sg21
I4
sg22
I9
sg97
Nsbag0
(g82
g2
Ntp313
Rp314
(dp315
g23
g307
sg95
g307
sg96
I3
sg21
I4
sg22
I8
sg97
I1
sbag0
(g82
g2
Ntp316
Rp317
(dp318
g23
g307
sg95
g307
sg96
I3
sg21
I4
sg22
I7
sg97
I1
sbag304
asS'grav'
p319
I-1
sbsg95
g307
sg108
I3
sbaa(lp320
a(lp321
g202
aa(lp322
a(lp323
a(lp324
a(lp325
g0
(g110
g2
Ntp326
Rp327
(dp328
g21
I10
sg22
I6
sg33
(I1
I1
I4
I4
tp329
sbaa(lp330
g0
(g110
g2
Ntp331
Rp332
(dp333
g21
I11
sg22
I6
sg33
(I4
I4
I4
I4
tp334
sbaaa(lp335
(lp336
a(lp337
a(lp338
g273
aa(lp339
g281
aa(lp340
g317
aa(lp341
a(lp342
a(lp343
a(lp344
a(lp345
a(lp346
g0
(g110
g2
Ntp347
Rp348
(dp349
g21
I10
sg22
I7
sg33
(I1
I1
I4
I4
tp350
sbaa(lp351
g0
(g110
g2
Ntp352
Rp353
(dp354
g21
I11
sg22
I7
sg33
(I4
I4
I4
I4
tp355
sbaaa(lp356
(lp357
a(lp358
g0
(cTiles
Portal
p359
g2
Ntp360
Rp361
(dp362
g21
I1
sg22
I8
sS'i'
p363
I01
sbaa(lp364
g297
aa(lp365
g285
aa(lp366
g314
aa(lp367
a(lp368
a(lp369
a(lp370
a(lp371
a(lp372
g0
(g110
g2
Ntp373
Rp374
(dp375
g21
I10
sg22
I8
sg33
(I1
I1
I4
I4
tp376
sbaa(lp377
g0
(g110
g2
Ntp378
Rp379
(dp380
g21
I11
sg22
I8
sg33
(I4
I4
I4
I4
tp381
sbaaa(lp382
(lp383
a(lp384
a(lp385
g293
aa(lp386
g289
aa(lp387
g311
aa(lp388
a(lp389
g0
(g110
g2
Ntp390
Rp391
(dp392
g21
I6
sg22
I9
sg33
(I0
I1
I2
I3
tp393
sbaa(lp394
g0
(g110
g2
Ntp395
Rp396
(dp397
g21
I7
sg22
I9
sg33
(I2
I2
I2
I2
tp398
sbaa(lp399
g0
(g110
g2
Ntp400
Rp401
(dp402
g21
I8
sg22
I9
sg33
(I2
I2
I0
I0
tp403
sbaa(lp404
a(lp405
g0
(g110
g2
Ntp406
Rp407
(dp408
g21
I10
sg22
I9
sg33
(I1
I1
I4
I4
tp409
sbaa(lp410
g0
(g110
g2
Ntp411
Rp412
(dp413
g21
I11
sg22
I9
sg33
(I4
I4
I4
I4
tp414
sbaaa(lp415
(lp416
a(lp417
a(lp418
a(lp419
a(lp420
a(lp421
a(lp422
g0
(g110
g2
Ntp423
Rp424
(dp425
g21
I6
sg22
I10
sg33
(I1
I1
I1
I1
tp426
sbaa(lp427
g0
(cTiles
Fruit
p428
g2
Ntp429
Rp430
(dp431
g21
I7
sg22
I10
sg90
I1
sbaa(lp432
a(lp433
a(lp434
g0
(g110
g2
Ntp435
Rp436
(dp437
g21
I10
sg22
I10
sg33
(I1
I1
I4
I4
tp438
sbaa(lp439
g0
(g110
g2
Ntp440
Rp441
(dp442
g21
I11
sg22
I10
sg33
(I4
I4
I4
I4
tp443
sbaaa(lp444
(lp445
a(lp446
a(lp447
a(lp448
a(lp449
a(lp450
a(lp451
g0
(g110
g2
Ntp452
Rp453
(dp454
g21
I6
sg22
I11
sg33
(I1
I1
I1
I1
tp455
sbaa(lp456
a(lp457
a(lp458
a(lp459
g0
(g110
g2
Ntp460
Rp461
(dp462
g21
I10
sg22
I11
sg33
(I1
I1
I4
I4
tp463
sbaa(lp464
g0
(g110
g2
Ntp465
Rp466
(dp467
g21
I11
sg22
I11
sg33
(I4
I4
I4
I4
tp468
sbaaasS'iscale'
p469
I3
sb.