ccopy_reg
_reconstructor
p0
(cBoard
Board
p1
c__builtin__
object
p2
Ntp3
Rp4
(dp5
S'sy'
p6
I12
sS'sx'
p7
I13
sS'rscale'
p8
I64
sS'ascale'
p9
I4
sS't'
p10
(lp11
(lp12
(lp13
g0
(cTiles
Snow
p14
g2
Ntp15
Rp16
(dp17
S'y'
p18
I0
sS'x'
p19
I0
sS'corners'
p20
(I4
I4
I4
I4
tp21
sbaa(lp22
g0
(g14
g2
Ntp23
Rp24
(dp25
g18
I1
sg19
I0
sg20
(I4
I4
I4
I4
tp26
sbaa(lp27
g0
(g14
g2
Ntp28
Rp29
(dp30
g18
I2
sg19
I0
sg20
(I4
I4
I4
I4
tp31
sbaa(lp32
g0
(g14
g2
Ntp33
Rp34
(dp35
g18
I3
sg19
I0
sg20
(I4
I4
I4
I3
tp36
sbaa(lp37
g0
(g14
g2
Ntp38
Rp39
(dp40
g18
I4
sg19
I0
sg20
(I4
I2
I4
I2
tp41
sbaa(lp42
g0
(g14
g2
Ntp43
Rp44
(dp45
g18
I5
sg19
I0
sg20
(I4
I2
I4
I2
tp46
sbaa(lp47
g0
(g14
g2
Ntp48
Rp49
(dp50
g18
I6
sg19
I0
sg20
(I4
I2
I1
I0
tp51
sbaa(lp52
a(lp53
a(lp54
a(lp55
a(lp56
g0
(g14
g2
Ntp57
Rp58
(dp59
g18
I11
sg19
I0
sg20
(I1
I1
I4
I4
tp60
sbaaa(lp61
(lp62
g0
(g14
g2
Ntp63
Rp64
(dp65
g18
I0
sg19
I1
sg20
(I4
I2
I4
I2
tp66
sbaa(lp67
g0
(g14
g2
Ntp68
Rp69
(dp70
g18
I1
sg19
I1
sg20
(I4
I2
I4
I2
tp71
sbaa(lp72
g0
(g14
g2
Ntp73
Rp74
(dp75
g18
I2
sg19
I1
sg20
(I4
I3
I4
I4
tp76
sbaa(lp77
g0
(g14
g2
Ntp78
Rp79
(dp80
g18
I3
sg19
I1
sg20
(I4
I4
I1
I1
tp81
sbaa(lp82
a(lp83
g0
(cTiles
WoodPlatform
p84
g2
Ntp85
Rp86
(dp87
g18
I5
sg19
I1
sS'i'
p88
I3
sbaa(lp89
g0
(cInteractives
XBlock
p90
g2
Ntp91
Rp92
(dp93
g18
I6
sg19
I1
sS'active'
p94
I1
sS'col'
p95
I0
sbaa(lp96
a(lp97
g0
(g14
g2
Ntp98
Rp99
(dp100
g18
I8
sg19
I1
sg20
(I0
I0
I2
I2
tp101
sbaa(lp102
g0
(g14
g2
Ntp103
Rp104
(dp105
g18
I9
sg19
I1
sg20
(I2
I2
I0
I0
tp106
sbaa(lp107
a(lp108
g0
(g14
g2
Ntp109
Rp110
(dp111
g18
I11
sg19
I1
sg20
(I1
I1
I4
I4
tp112
sbaaa(lp113
(lp114
a(lp115
g0
(cTiles
Fruit
p116
g2
Ntp117
Rp118
(dp119
g18
I1
sg19
I2
sS'iid'
p120
I3
sbaa(lp121
g0
(g14
g2
Ntp122
Rp123
(dp124
g18
I2
sg19
I2
sg20
(I1
I0
I4
I2
tp125
sbaa(lp126
g0
(g14
g2
Ntp127
Rp128
(dp129
g18
I3
sg19
I2
sg20
(I4
I3
I1
I1
tp130
sbaa(lp131
a(lp132
g0
(g84
g2
Ntp133
Rp134
(dp135
g18
I5
sg19
I2
sg88
I3
sbaa(lp136
g0
(g90
g2
Ntp137
Rp138
(dp139
g18
I6
sg19
I2
sg94
I1
sg95
I0
sbaa(lp140
a(lp141
a(lp142
g0
(g84
g2
Ntp143
Rp144
(dp145
g18
I9
sg19
I2
sg88
I3
sbaa(lp146
a(lp147
g0
(g14
g2
Ntp148
Rp149
(dp150
g18
I11
sg19
I2
sg20
(I1
I1
I4
I4
tp151
sbaaa(lp152
(lp153
a(lp154
a(lp155
g0
(cTiles
Spikes
p156
g2
Ntp157
Rp158
(dp159
g18
I2
sg19
I3
sg88
I14
sbaa(lp160
g0
(g14
g2
Ntp161
Rp162
(dp163
g18
I3
sg19
I3
sg20
(I1
I1
I1
I1
tp164
sbaa(lp165
g0
(cInteractives
Jelly
p166
g2
Ntp167
Rp168
(dp169
g18
I4
sg19
I3
sS'gshape'
p170
g0
(cTiles
GravShape
p171
g2
Ntp172
Rp173
(dp174
S'tiles'
p175
(lp176
g168
asbsg95
I0
sg20
(I0
I0
I0
I0
tp177
sbaa(lp178
g0
(g14
g2
Ntp179
Rp180
(dp181
g18
I5
sg19
I3
sg20
(I0
I1
I2
I3
tp182
sbaa(lp183
g0
(g14
g2
Ntp184
Rp185
(dp186
g18
I6
sg19
I3
sg20
(I2
I2
I0
I0
tp187
sbaa(lp188
a(lp189
g0
(g14
g2
Ntp190
Rp191
(dp192
g18
I8
sg19
I3
sg20
(I0
I1
I2
I4
tp193
sbaa(lp194
g0
(g14
g2
Ntp195
Rp196
(dp197
g18
I9
sg19
I3
sg20
(I2
I4
I0
I1
tp198
sbaa(lp199
a(lp200
g0
(g14
g2
Ntp201
Rp202
(dp203
g18
I11
sg19
I3
sg20
(I1
I1
I4
I4
tp204
sbaaa(lp205
(lp206
a(lp207
a(lp208
g0
(g156
g2
Ntp209
Rp210
(dp211
g18
I2
sg19
I4
sg88
I12
sbaa(lp212
g0
(g14
g2
Ntp213
Rp214
(dp215
g18
I3
sg19
I4
sg20
(I1
I0
I1
I0
tp216
sbaa(lp217
a(lp218
g0
(g14
g2
Ntp219
Rp220
(dp221
g18
I5
sg19
I4
sg20
(I1
I1
I1
I1
tp222
sbaa(lp223
a(lp224
a(lp225
g0
(g14
g2
Ntp226
Rp227
(dp228
g18
I8
sg19
I4
sg20
(I1
I1
I4
I4
tp229
sbaa(lp230
g0
(g14
g2
Ntp231
Rp232
(dp233
g18
I9
sg19
I4
sg20
(I4
I4
I1
I1
tp234
sbaa(lp235
a(lp236
g0
(g14
g2
Ntp237
Rp238
(dp239
g18
I11
sg19
I4
sg20
(I1
I1
I4
I4
tp240
sbaaa(lp241
(lp242
a(lp243
a(lp244
a(lp245
a(lp246
a(lp247
g0
(g14
g2
Ntp248
Rp249
(dp250
g18
I5
sg19
I5
sg20
(I1
I0
I1
I0
tp251
sbaa(lp252
a(lp253
a(lp254
g0
(g14
g2
Ntp255
Rp256
(dp257
g18
I8
sg19
I5
sg20
(I1
I1
I4
I4
tp258
sbaa(lp259
g0
(g14
g2
Ntp260
Rp261
(dp262
g18
I9
sg19
I5
sg20
(I4
I4
I1
I1
tp263
sbaa(lp264
a(lp265
g0
(g14
g2
Ntp266
Rp267
(dp268
g18
I11
sg19
I5
sg20
(I1
I1
I4
I4
tp269
sbaaa(lp270
(lp271
a(lp272
a(lp273
a(lp274
a(lp275
a(lp276
g0
(g156
g2
Ntp277
Rp278
(dp279
g18
I5
sg19
I6
sg88
I8
sbaa(lp280
a(lp281
g0
(g166
g2
Ntp282
Rp283
(dp284
g18
I7
sg19
I6
sg170
g0
(g171
g2
Ntp285
Rp286
(dp287
g175
(lp288
g283
asbsg95
I0
sg20
(I0
I0
I0
I0
tp289
sbaa(lp290
g0
(g14
g2
Ntp291
Rp292
(dp293
g18
I8
sg19
I6
sg20
(I1
I1
I4
I4
tp294
sbaa(lp295
g0
(g14
g2
Ntp296
Rp297
(dp298
g18
I9
sg19
I6
sg20
(I4
I4
I1
I1
tp299
sbaa(lp300
a(lp301
g0
(g14
g2
Ntp302
Rp303
(dp304
g18
I11
sg19
I6
sg20
(I1
I1
I4
I4
tp305
sbaaa(lp306
(lp307
a(lp308
a(lp309
a(lp310
a(lp311
a(lp312
a(lp313
a(lp314
g0
(cSnake
SnakeHead
p315
g2
Ntp316
Rp317
(dp318
g18
I7
sg19
I7
sg170
g0
(cSnake
Snake
p319
g2
Ntp320
Rp321
(dp322
g120
I2
sg175
(lp323
g0
(cSnake
SnakeSeg
p324
g2
Ntp325
Rp326
(dp327
g170
g321
sS'snake'
p328
g321
sS'fdir'
p329
I2
sg18
I6
sg19
I8
sS'bdir'
p330
I0
sbag0
(g324
g2
Ntp331
Rp332
(dp333
g170
g321
sg328
g321
sg329
I4
sg18
I6
sg19
I9
sg330
I8
sbag0
(g324
g2
Ntp334
Rp335
(dp336
g170
g321
sg328
g321
sg329
I8
sg18
I7
sg19
I9
sg330
I1
sbag0
(g324
g2
Ntp337
Rp338
(dp339
g170
g321
sg328
g321
sg329
I8
sg18
I7
sg19
I8
sg330
I2
sbag317
asbsg328
g321
sS'd'
p340
I3
sbaa(lp341
g0
(g14
g2
Ntp342
Rp343
(dp344
g18
I8
sg19
I7
sg20
(I1
I1
I4
I4
tp345
sbaa(lp346
g0
(g14
g2
Ntp347
Rp348
(dp349
g18
I9
sg19
I7
sg20
(I4
I4
I1
I1
tp350
sbaa(lp351
a(lp352
g0
(g14
g2
Ntp353
Rp354
(dp355
g18
I11
sg19
I7
sg20
(I1
I0
I4
I2
tp356
sbaaa(lp357
(lp358
a(lp359
a(lp360
a(lp361
a(lp362
a(lp363
a(lp364
g326
aa(lp365
g338
aa(lp366
g0
(g14
g2
Ntp367
Rp368
(dp369
g18
I8
sg19
I8
sg20
(I1
I1
I4
I3
tp370
sbaa(lp371
g0
(g14
g2
Ntp372
Rp373
(dp374
g18
I9
sg19
I8
sg20
(I4
I2
I1
I0
tp375
sbaa(lp376
a(lp377
aa(lp378
(lp379
a(lp380
a(lp381
a(lp382
a(lp383
a(lp384
a(lp385
g332
aa(lp386
g335
aa(lp387
g0
(g14
g2
Ntp388
Rp389
(dp390
g18
I8
sg19
I9
sg20
(I1
I1
I1
I1
tp391
sbaa(lp392
g0
(cTiles
Portal
p393
g2
Ntp394
Rp395
(dp396
g18
I9
sg19
I9
sg88
I01
sbaa(lp397
a(lp398
aa(lp399
(lp400
a(lp401
a(lp402
a(lp403
a(lp404
a(lp405
a(lp406
a(lp407
a(lp408
g0
(g14
g2
Ntp409
Rp410
(dp411
g18
I8
sg19
I10
sg20
(I1
I1
I1
I1
tp412
sbaa(lp413
a(lp414
a(lp415
aa(lp416
(lp417
a(lp418
a(lp419
g0
(cInteractives
XSwitch
p420
g2
Ntp421
Rp422
(dp423
g18
I2
sg19
I11
sS'r'
p424
I2
sg94
I01
sg95
I0
sbaa(lp425
g0
(g14
g2
Ntp426
Rp427
(dp428
g18
I3
sg19
I11
sg20
(I0
I0
I0
I0
tp429
sbaa(lp430
a(lp431
a(lp432
a(lp433
a(lp434
g0
(g14
g2
Ntp435
Rp436
(dp437
g18
I8
sg19
I11
sg20
(I1
I1
I1
I1
tp438
sbaa(lp439
a(lp440
a(lp441
aa(lp442
(lp443
a(lp444
a(lp445
a(lp446
a(lp447
a(lp448
a(lp449
a(lp450
a(lp451
g0
(g14
g2
Ntp452
Rp453
(dp454
g18
I8
sg19
I12
sg20
(I1
I1
I1
I1
tp455
sbaa(lp456
a(lp457
a(lp458
aasS'iscale'
p459
I3
sb.