ccopy_reg
_reconstructor
p0
(cBoard
Board
p1
c__builtin__
object
p2
Ntp3
Rp4
(dp5
S'sy'
p6
I12
sS'sx'
p7
I12
sS'rscale'
p8
I64
sS'ascale'
p9
I4
sS't'
p10
(lp11
(lp12
(lp13
g0
(cTiles
Air
p14
g2
Ntp15
Rp16
(dp17
S'y'
p18
I0
sS'x'
p19
I0
sbaa(lp20
g0
(g14
g2
Ntp21
Rp22
(dp23
g18
I1
sg19
I0
sbaa(lp24
g0
(g14
g2
Ntp25
Rp26
(dp27
g18
I2
sg19
I0
sbaa(lp28
g0
(g14
g2
Ntp29
Rp30
(dp31
g18
I3
sg19
I0
sbaa(lp32
g0
(g14
g2
Ntp33
Rp34
(dp35
g18
I4
sg19
I0
sbaa(lp36
g0
(g14
g2
Ntp37
Rp38
(dp39
g18
I5
sg19
I0
sbaa(lp40
g0
(g14
g2
Ntp41
Rp42
(dp43
g18
I6
sg19
I0
sbaa(lp44
g0
(g14
g2
Ntp45
Rp46
(dp47
g18
I7
sg19
I0
sbaa(lp48
g0
(g14
g2
Ntp49
Rp50
(dp51
g18
I8
sg19
I0
sbaa(lp52
g0
(g14
g2
Ntp53
Rp54
(dp55
g18
I9
sg19
I0
sbaa(lp56
g0
(g14
g2
Ntp57
Rp58
(dp59
g18
I10
sg19
I0
sbaa(lp60
g0
(g14
g2
Ntp61
Rp62
(dp63
g18
I11
sg19
I0
sbaaa(lp64
(lp65
g0
(g14
g2
Ntp66
Rp67
(dp68
g18
I0
sg19
I1
sbaa(lp69
g0
(g14
g2
Ntp70
Rp71
(dp72
g18
I1
sg19
I1
sbaa(lp73
g0
(g14
g2
Ntp74
Rp75
(dp76
g18
I2
sg19
I1
sbaa(lp77
g0
(g14
g2
Ntp78
Rp79
(dp80
g18
I3
sg19
I1
sbag0
(cSnake
SnakeSeg
p81
g2
Ntp82
Rp83
(dp84
S'gshape'
p85
g0
(cSnake
Snake
p86
g2
Ntp87
Rp88
(dp89
S'iid'
p90
I2
sS'tiles'
p91
(lp92
g83
ag0
(g81
g2
Ntp93
Rp94
(dp95
g85
g88
sS'snake'
p96
g88
sS'fdir'
p97
I2
sg18
I3
sg19
I2
sS'bdir'
p98
I8
sbag0
(cSnake
SnakeHead
p99
g2
Ntp100
Rp101
(dp102
g18
I3
sg19
I3
sg85
g88
sg96
g88
sS'd'
p103
I1
sbasbsg96
g88
sg97
I2
sg18
I3
sg19
I1
sg98
I0
sbaa(lp104
g0
(cTiles
Dirt
p105
g2
Ntp106
Rp107
(dp108
g18
I4
sg19
I1
sS'corners'
p109
(I0
I1
I0
I1
tp110
sbaa(lp111
g0
(g14
g2
Ntp112
Rp113
(dp114
g18
I5
sg19
I1
sbaa(lp115
g0
(g14
g2
Ntp116
Rp117
(dp118
g18
I6
sg19
I1
sbaa(lp119
g0
(g14
g2
Ntp120
Rp121
(dp122
g18
I7
sg19
I1
sbaa(lp123
g0
(g14
g2
Ntp124
Rp125
(dp126
g18
I8
sg19
I1
sbaa(lp127
g0
(g14
g2
Ntp128
Rp129
(dp130
g18
I9
sg19
I1
sbaa(lp131
g0
(g14
g2
Ntp132
Rp133
(dp134
g18
I10
sg19
I1
sbaa(lp135
g0
(g14
g2
Ntp136
Rp137
(dp138
g18
I11
sg19
I1
sbaaa(lp139
(lp140
g0
(g14
g2
Ntp141
Rp142
(dp143
g18
I0
sg19
I2
sbaa(lp144
g0
(g14
g2
Ntp145
Rp146
(dp147
g18
I1
sg19
I2
sbaa(lp148
g0
(g14
g2
Ntp149
Rp150
(dp151
g18
I2
sg19
I2
sbaa(lp152
g0
(g14
g2
Ntp153
Rp154
(dp155
g18
I3
sg19
I2
sbag94
aa(lp156
g0
(g105
g2
Ntp157
Rp158
(dp159
g18
I4
sg19
I2
sg109
(I1
I1
I1
I1
tp160
sbaa(lp161
g0
(g14
g2
Ntp162
Rp163
(dp164
g18
I5
sg19
I2
sbaa(lp165
g0
(g14
g2
Ntp166
Rp167
(dp168
g18
I6
sg19
I2
sbaa(lp169
g0
(g14
g2
Ntp170
Rp171
(dp172
g18
I7
sg19
I2
sbaa(lp173
g0
(g14
g2
Ntp174
Rp175
(dp176
g18
I8
sg19
I2
sbaa(lp177
g0
(g14
g2
Ntp178
Rp179
(dp180
g18
I9
sg19
I2
sbaa(lp181
g0
(g14
g2
Ntp182
Rp183
(dp184
g18
I10
sg19
I2
sbaa(lp185
g0
(g14
g2
Ntp186
Rp187
(dp188
g18
I11
sg19
I2
sbaaa(lp189
(lp190
g0
(g14
g2
Ntp191
Rp192
(dp193
g18
I0
sg19
I3
sbaa(lp194
g0
(g14
g2
Ntp195
Rp196
(dp197
g18
I1
sg19
I3
sbaa(lp198
g0
(g14
g2
Ntp199
Rp200
(dp201
g18
I2
sg19
I3
sbaa(lp202
g0
(g14
g2
Ntp203
Rp204
(dp205
g18
I3
sg19
I3
sbag101
aa(lp206
g0
(g105
g2
Ntp207
Rp208
(dp209
g18
I4
sg19
I3
sg109
(I1
I0
I1
I0
tp210
sbaa(lp211
g0
(g14
g2
Ntp212
Rp213
(dp214
g18
I5
sg19
I3
sbaa(lp215
g0
(g14
g2
Ntp216
Rp217
(dp218
g18
I6
sg19
I3
sbaa(lp219
g0
(g14
g2
Ntp220
Rp221
(dp222
g18
I7
sg19
I3
sbaa(lp223
g0
(g14
g2
Ntp224
Rp225
(dp226
g18
I8
sg19
I3
sbaa(lp227
g0
(g14
g2
Ntp228
Rp229
(dp230
g18
I9
sg19
I3
sbaa(lp231
g0
(g14
g2
Ntp232
Rp233
(dp234
g18
I10
sg19
I3
sbaa(lp235
g0
(g14
g2
Ntp236
Rp237
(dp238
g18
I11
sg19
I3
sbaaa(lp239
(lp240
g0
(g14
g2
Ntp241
Rp242
(dp243
g18
I0
sg19
I4
sbaa(lp244
g0
(g14
g2
Ntp245
Rp246
(dp247
g18
I1
sg19
I4
sbaa(lp248
g0
(g14
g2
Ntp249
Rp250
(dp251
g18
I2
sg19
I4
sbaa(lp252
g0
(g14
g2
Ntp253
Rp254
(dp255
g18
I3
sg19
I4
sbaa(lp256
g0
(g14
g2
Ntp257
Rp258
(dp259
g18
I4
sg19
I4
sbaa(lp260
g0
(g14
g2
Ntp261
Rp262
(dp263
g18
I5
sg19
I4
sbaa(lp264
g0
(cTiles
Fruit
p265
g2
Ntp266
Rp267
(dp268
g18
I6
sg19
I4
sg90
I1
sbaa(lp269
g0
(g265
g2
Ntp270
Rp271
(dp272
g18
I7
sg19
I4
sg90
I10
sbaa(lp273
g0
(g265
g2
Ntp274
Rp275
(dp276
g18
I8
sg19
I4
sg90
I11
sbaa(lp277
g0
(g14
g2
Ntp278
Rp279
(dp280
g18
I9
sg19
I4
sbaa(lp281
g0
(g14
g2
Ntp282
Rp283
(dp284
g18
I10
sg19
I4
sbaa(lp285
g0
(g14
g2
Ntp286
Rp287
(dp288
g18
I11
sg19
I4
sbaaa(lp289
(lp290
g0
(g14
g2
Ntp291
Rp292
(dp293
g18
I0
sg19
I5
sbaa(lp294
g0
(g14
g2
Ntp295
Rp296
(dp297
g18
I1
sg19
I5
sbaa(lp298
g0
(g14
g2
Ntp299
Rp300
(dp301
g18
I2
sg19
I5
sbaa(lp302
g0
(g14
g2
Ntp303
Rp304
(dp305
g18
I3
sg19
I5
sbaa(lp306
g0
(g14
g2
Ntp307
Rp308
(dp309
g18
I4
sg19
I5
sbaa(lp310
g0
(g14
g2
Ntp311
Rp312
(dp313
g18
I5
sg19
I5
sbaa(lp314
g0
(g265
g2
Ntp315
Rp316
(dp317
g18
I6
sg19
I5
sg90
I2
sbaa(lp318
g0
(g265
g2
Ntp319
Rp320
(dp321
g18
I7
sg19
I5
sg90
I9
sbaa(lp322
g0
(g265
g2
Ntp323
Rp324
(dp325
g18
I8
sg19
I5
sg90
I12
sbaa(lp326
g0
(g14
g2
Ntp327
Rp328
(dp329
g18
I9
sg19
I5
sbaa(lp330
g0
(g14
g2
Ntp331
Rp332
(dp333
g18
I10
sg19
I5
sbaa(lp334
g0
(g14
g2
Ntp335
Rp336
(dp337
g18
I11
sg19
I5
sbaaa(lp338
(lp339
g0
(g14
g2
Ntp340
Rp341
(dp342
g18
I0
sg19
I6
sbaa(lp343
g0
(g14
g2
Ntp344
Rp345
(dp346
g18
I1
sg19
I6
sbaa(lp347
g0
(g14
g2
Ntp348
Rp349
(dp350
g18
I2
sg19
I6
sbaa(lp351
g0
(g14
g2
Ntp352
Rp353
(dp354
g18
I3
sg19
I6
sbaa(lp355
g0
(g14
g2
Ntp356
Rp357
(dp358
g18
I4
sg19
I6
sbaa(lp359
g0
(g14
g2
Ntp360
Rp361
(dp362
g18
I5
sg19
I6
sbaa(lp363
g0
(g265
g2
Ntp364
Rp365
(dp366
g18
I6
sg19
I6
sg90
I3
sbaa(lp367
g0
(g265
g2
Ntp368
Rp369
(dp370
g18
I7
sg19
I6
sg90
I8
sbaa(lp371
g0
(g265
g2
Ntp372
Rp373
(dp374
g18
I8
sg19
I6
sg90
I7
sbaa(lp375
g0
(g14
g2
Ntp376
Rp377
(dp378
g18
I9
sg19
I6
sbaa(lp379
g0
(g14
g2
Ntp380
Rp381
(dp382
g18
I10
sg19
I6
sbaa(lp383
g0
(g14
g2
Ntp384
Rp385
(dp386
g18
I11
sg19
I6
sbaaa(lp387
(lp388
g0
(g14
g2
Ntp389
Rp390
(dp391
g18
I0
sg19
I7
sbaa(lp392
g0
(g14
g2
Ntp393
Rp394
(dp395
g18
I1
sg19
I7
sbaa(lp396
g0
(g14
g2
Ntp397
Rp398
(dp399
g18
I2
sg19
I7
sbaa(lp400
g0
(g14
g2
Ntp401
Rp402
(dp403
g18
I3
sg19
I7
sbaa(lp404
g0
(g14
g2
Ntp405
Rp406
(dp407
g18
I4
sg19
I7
sbaa(lp408
g0
(g14
g2
Ntp409
Rp410
(dp411
g18
I5
sg19
I7
sbaa(lp412
g0
(g265
g2
Ntp413
Rp414
(dp415
g18
I6
sg19
I7
sg90
I4
sbaa(lp416
g0
(g265
g2
Ntp417
Rp418
(dp419
g18
I7
sg19
I7
sg90
I5
sbaa(lp420
g0
(g265
g2
Ntp421
Rp422
(dp423
g18
I8
sg19
I7
sg90
I6
sbaa(lp424
g0
(g14
g2
Ntp425
Rp426
(dp427
g18
I9
sg19
I7
sbaa(lp428
g0
(g14
g2
Ntp429
Rp430
(dp431
g18
I10
sg19
I7
sbaa(lp432
g0
(g14
g2
Ntp433
Rp434
(dp435
g18
I11
sg19
I7
sbaaa(lp436
(lp437
g0
(g14
g2
Ntp438
Rp439
(dp440
g18
I0
sg19
I8
sbaa(lp441
g0
(g14
g2
Ntp442
Rp443
(dp444
g18
I1
sg19
I8
sbaa(lp445
g0
(g14
g2
Ntp446
Rp447
(dp448
g18
I2
sg19
I8
sbaa(lp449
g0
(g14
g2
Ntp450
Rp451
(dp452
g18
I3
sg19
I8
sbaa(lp453
g0
(g105
g2
Ntp454
Rp455
(dp456
g18
I4
sg19
I8
sg109
(I0
I1
I0
I1
tp457
sbaa(lp458
g0
(g14
g2
Ntp459
Rp460
(dp461
g18
I5
sg19
I8
sbaa(lp462
g0
(g14
g2
Ntp463
Rp464
(dp465
g18
I6
sg19
I8
sbaa(lp466
g0
(g14
g2
Ntp467
Rp468
(dp469
g18
I7
sg19
I8
sbaa(lp470
g0
(g14
g2
Ntp471
Rp472
(dp473
g18
I8
sg19
I8
sbaa(lp474
g0
(g14
g2
Ntp475
Rp476
(dp477
g18
I9
sg19
I8
sbaa(lp478
g0
(g14
g2
Ntp479
Rp480
(dp481
g18
I10
sg19
I8
sbaa(lp482
g0
(g14
g2
Ntp483
Rp484
(dp485
g18
I11
sg19
I8
sbaaa(lp486
(lp487
g0
(g14
g2
Ntp488
Rp489
(dp490
g18
I0
sg19
I9
sbaa(lp491
g0
(g14
g2
Ntp492
Rp493
(dp494
g18
I1
sg19
I9
sbaa(lp495
g0
(g14
g2
Ntp496
Rp497
(dp498
g18
I2
sg19
I9
sbaa(lp499
g0
(cTiles
Portal
p500
g2
Ntp501
Rp502
(dp503
g18
I3
sg19
I9
sS'i'
p504
I01
sbaa(lp505
g0
(g105
g2
Ntp506
Rp507
(dp508
g18
I4
sg19
I9
sg109
(I1
I1
I1
I1
tp509
sbaa(lp510
g0
(g14
g2
Ntp511
Rp512
(dp513
g18
I5
sg19
I9
sbaa(lp514
g0
(g14
g2
Ntp515
Rp516
(dp517
g18
I6
sg19
I9
sbaa(lp518
g0
(g14
g2
Ntp519
Rp520
(dp521
g18
I7
sg19
I9
sbaa(lp522
g0
(g14
g2
Ntp523
Rp524
(dp525
g18
I8
sg19
I9
sbaa(lp526
g0
(g14
g2
Ntp527
Rp528
(dp529
g18
I9
sg19
I9
sbaa(lp530
g0
(g14
g2
Ntp531
Rp532
(dp533
g18
I10
sg19
I9
sbaa(lp534
g0
(g14
g2
Ntp535
Rp536
(dp537
g18
I11
sg19
I9
sbaaa(lp538
(lp539
g0
(g14
g2
Ntp540
Rp541
(dp542
g18
I0
sg19
I10
sbaa(lp543
g0
(g14
g2
Ntp544
Rp545
(dp546
g18
I1
sg19
I10
sbaa(lp547
g0
(g14
g2
Ntp548
Rp549
(dp550
g18
I2
sg19
I10
sbaa(lp551
g0
(g14
g2
Ntp552
Rp553
(dp554
g18
I3
sg19
I10
sbaa(lp555
g0
(g105
g2
Ntp556
Rp557
(dp558
g18
I4
sg19
I10
sg109
(I1
I0
I1
I0
tp559
sbaa(lp560
g0
(g14
g2
Ntp561
Rp562
(dp563
g18
I5
sg19
I10
sbaa(lp564
g0
(g14
g2
Ntp565
Rp566
(dp567
g18
I6
sg19
I10
sbaa(lp568
g0
(g14
g2
Ntp569
Rp570
(dp571
g18
I7
sg19
I10
sbaa(lp572
g0
(g14
g2
Ntp573
Rp574
(dp575
g18
I8
sg19
I10
sbaa(lp576
g0
(g14
g2
Ntp577
Rp578
(dp579
g18
I9
sg19
I10
sbaa(lp580
g0
(g14
g2
Ntp581
Rp582
(dp583
g18
I10
sg19
I10
sbaa(lp584
g0
(g14
g2
Ntp585
Rp586
(dp587
g18
I11
sg19
I10
sbaaa(lp588
(lp589
g0
(g14
g2
Ntp590
Rp591
(dp592
g18
I0
sg19
I11
sbaa(lp593
g0
(g14
g2
Ntp594
Rp595
(dp596
g18
I1
sg19
I11
sbaa(lp597
g0
(g14
g2
Ntp598
Rp599
(dp600
g18
I2
sg19
I11
sbaa(lp601
g0
(g14
g2
Ntp602
Rp603
(dp604
g18
I3
sg19
I11
sbaa(lp605
g0
(g14
g2
Ntp606
Rp607
(dp608
g18
I4
sg19
I11
sbaa(lp609
g0
(g14
g2
Ntp610
Rp611
(dp612
g18
I5
sg19
I11
sbaa(lp613
g0
(g14
g2
Ntp614
Rp615
(dp616
g18
I6
sg19
I11
sbaa(lp617
g0
(g14
g2
Ntp618
Rp619
(dp620
g18
I7
sg19
I11
sbaa(lp621
g0
(g14
g2
Ntp622
Rp623
(dp624
g18
I8
sg19
I11
sbaa(lp625
g0
(g14
g2
Ntp626
Rp627
(dp628
g18
I9
sg19
I11
sbaa(lp629
g0
(g14
g2
Ntp630
Rp631
(dp632
g18
I10
sg19
I11
sbaa(lp633
g0
(g14
g2
Ntp634
Rp635
(dp636
g18
I11
sg19
I11
sbaaasS'iscale'
p637
I3
sb.