ccopy_reg
_reconstructor
p0
(cBoard
Board
p1
c__builtin__
object
p2
Ntp3
Rp4
(dp5
S'sy'
p6
I14
sS'sx'
p7
I19
sS'rscale'
p8
I64
sS'ascale'
p9
I4
sS't'
p10
(lp11
(lp12
(lp13
a(lp14
a(lp15
a(lp16
a(lp17
a(lp18
a(lp19
a(lp20
a(lp21
a(lp22
a(lp23
g0
(cSnake
SnakeSeg
p24
g2
Ntp25
Rp26
(dp27
S'gshape'
p28
g0
(cSnake
Snake
p29
g2
Ntp30
Rp31
(dp32
S'iid'
p33
I0
sS'tiles'
p34
(lp35
g26
ag0
(g24
g2
Ntp36
Rp37
(dp38
g28
g31
sS'snake'
p39
g31
sS'fdir'
p40
I1
sS'y'
p41
I10
sS'x'
p42
I1
sS'bdir'
p43
I3
sbag0
(g24
g2
Ntp44
Rp45
(dp46
g28
g31
sg39
g31
sg40
I1
sg41
I10
sg42
I2
sg43
I3
sbag0
(cSnake
SnakeHead
p47
g2
Ntp48
Rp49
(dp50
g41
I10
sg42
I3
sg28
g31
sg39
g31
sS'd'
p51
I1
sbasbsg39
g31
sg40
I1
sg41
I10
sg42
I0
sg43
Nsbaa(lp52
g0
(cTiles
Dirt
p53
g2
Ntp54
Rp55
(dp56
g41
I11
sg42
I0
sS'corners'
p57
(I1
I1
I4
I4
tp58
sbaa(lp59
g0
(g53
g2
Ntp60
Rp61
(dp62
g41
I12
sg42
I0
sg57
(I4
I4
I4
I4
tp63
sbaa(lp64
g0
(g53
g2
Ntp65
Rp66
(dp67
g41
I13
sg42
I0
sg57
(I4
I4
I4
I4
tp68
sbaaa(lp69
(lp70
a(lp71
a(lp72
a(lp73
a(lp74
a(lp75
a(lp76
a(lp77
a(lp78
a(lp79
a(lp80
g37
aa(lp81
g0
(g53
g2
Ntp82
Rp83
(dp84
g41
I11
sg42
I1
sg57
(I1
I1
I4
I4
tp85
sbaa(lp86
g0
(g53
g2
Ntp87
Rp88
(dp89
g41
I12
sg42
I1
sg57
(I4
I4
I4
I4
tp90
sbaa(lp91
g0
(g53
g2
Ntp92
Rp93
(dp94
g41
I13
sg42
I1
sg57
(I4
I4
I4
I4
tp95
sbaaa(lp96
(lp97
a(lp98
a(lp99
a(lp100
a(lp101
a(lp102
a(lp103
a(lp104
a(lp105
g0
(cTiles
Block
p106
g2
Ntp107
Rp108
(dp109
g41
I8
sg42
I2
sg28
g0
(cTiles
BGravShape
p110
g2
Ntp111
Rp112
(dp113
g33
I0
sg34
(lp114
g108
ag0
(g106
g2
Ntp115
Rp116
(dp117
g41
I9
sg42
I2
sg28
g112
sg57
(I2
I3
I0
I1
tp118
sbag0
(g106
g2
Ntp119
Rp120
(dp121
g41
I9
sg42
I3
sg28
g112
sg57
(I1
I1
I1
I1
tp122
sbag0
(g106
g2
Ntp123
Rp124
(dp125
g41
I9
sg42
I4
sg28
g112
sg57
(I1
I1
I1
I1
tp126
sbag0
(g106
g2
Ntp127
Rp128
(dp129
g41
I9
sg42
I5
sg28
g112
sg57
(I1
I1
I1
I1
tp130
sbag0
(g106
g2
Ntp131
Rp132
(dp133
g41
I9
sg42
I6
sg28
g112
sg57
(I3
I2
I1
I0
tp134
sbag0
(g106
g2
Ntp135
Rp136
(dp137
g41
I8
sg42
I6
sg28
g112
sg57
(I0
I0
I2
I2
tp138
sbasbsg57
(I0
I0
I2
I2
tp139
sbaa(lp140
g116
aa(lp141
g45
aa(lp142
g0
(g53
g2
Ntp143
Rp144
(dp145
g41
I11
sg42
I2
sg57
(I1
I1
I4
I4
tp146
sbaa(lp147
g0
(g53
g2
Ntp148
Rp149
(dp150
g41
I12
sg42
I2
sg57
(I4
I4
I4
I4
tp151
sbaa(lp152
g0
(g53
g2
Ntp153
Rp154
(dp155
g41
I13
sg42
I2
sg57
(I4
I4
I4
I4
tp156
sbaaa(lp157
(lp158
a(lp159
a(lp160
a(lp161
a(lp162
a(lp163
a(lp164
a(lp165
a(lp166
g0
(cTiles
Diamond
p167
g2
Ntp168
Rp169
(dp170
g41
I8
sg42
I3
sg28
g0
(cTiles
GravShape
p171
g2
Ntp172
Rp173
(dp174
g34
(lp175
g169
asbsbaa(lp176
g120
aa(lp177
g49
aa(lp178
g0
(g53
g2
Ntp179
Rp180
(dp181
g41
I11
sg42
I3
sg57
(I1
I1
I4
I4
tp182
sbaa(lp183
g0
(g53
g2
Ntp184
Rp185
(dp186
g41
I12
sg42
I3
sg57
(I4
I4
I4
I4
tp187
sbaa(lp188
g0
(g53
g2
Ntp189
Rp190
(dp191
g41
I13
sg42
I3
sg57
(I4
I4
I4
I4
tp192
sbaaa(lp193
(lp194
a(lp195
a(lp196
a(lp197
a(lp198
a(lp199
a(lp200
a(lp201
a(lp202
g0
(g167
g2
Ntp203
Rp204
(dp205
g41
I8
sg42
I4
sg28
g0
(g171
g2
Ntp206
Rp207
(dp208
g34
(lp209
g204
asbsbaa(lp210
g124
aa(lp211
a(lp212
g0
(g53
g2
Ntp213
Rp214
(dp215
g41
I11
sg42
I4
sg57
(I1
I1
I4
I4
tp216
sbaa(lp217
g0
(g53
g2
Ntp218
Rp219
(dp220
g41
I12
sg42
I4
sg57
(I4
I4
I4
I4
tp221
sbaa(lp222
g0
(g53
g2
Ntp223
Rp224
(dp225
g41
I13
sg42
I4
sg57
(I4
I4
I4
I4
tp226
sbaaa(lp227
(lp228
a(lp229
a(lp230
a(lp231
a(lp232
a(lp233
a(lp234
a(lp235
a(lp236
g0
(g167
g2
Ntp237
Rp238
(dp239
g41
I8
sg42
I5
sg28
g0
(g171
g2
Ntp240
Rp241
(dp242
g34
(lp243
g238
asbsbaa(lp244
g128
aa(lp245
g0
(g24
g2
Ntp246
Rp247
(dp248
g28
g0
(g29
g2
Ntp249
Rp250
(dp251
g33
I1
sg34
(lp252
g247
ag0
(g24
g2
Ntp253
Rp254
(dp255
g28
g250
sg39
g250
sg40
I1
sg41
I10
sg42
I6
sg43
I3
sbag0
(g24
g2
Ntp256
Rp257
(dp258
g28
g250
sg39
g250
sg40
I0
sg41
I10
sg42
I7
sg43
I3
sbag0
(g47
g2
Ntp259
Rp260
(dp261
g41
I9
sg42
I7
sg28
g250
sg39
g250
sg51
I0
sbasbsg39
g250
sg40
I1
sg41
I10
sg42
I5
sg43
Nsbaa(lp262
g0
(g53
g2
Ntp263
Rp264
(dp265
g41
I11
sg42
I5
sg57
(I1
I1
I4
I4
tp266
sbaa(lp267
g0
(g53
g2
Ntp268
Rp269
(dp270
g41
I12
sg42
I5
sg57
(I4
I4
I4
I4
tp271
sbaa(lp272
g0
(g53
g2
Ntp273
Rp274
(dp275
g41
I13
sg42
I5
sg57
(I4
I4
I4
I4
tp276
sbaaa(lp277
(lp278
a(lp279
a(lp280
a(lp281
a(lp282
a(lp283
a(lp284
a(lp285
a(lp286
g136
aa(lp287
g132
aa(lp288
g254
aa(lp289
g0
(g53
g2
Ntp290
Rp291
(dp292
g41
I11
sg42
I6
sg57
(I1
I1
I4
I4
tp293
sbaa(lp294
g0
(g53
g2
Ntp295
Rp296
(dp297
g41
I12
sg42
I6
sg57
(I4
I4
I4
I4
tp298
sbaa(lp299
g0
(g53
g2
Ntp300
Rp301
(dp302
g41
I13
sg42
I6
sg57
(I4
I4
I4
I4
tp303
sbaaa(lp304
(lp305
a(lp306
a(lp307
a(lp308
a(lp309
a(lp310
a(lp311
a(lp312
a(lp313
a(lp314
g260
aa(lp315
g257
aa(lp316
g0
(g53
g2
Ntp317
Rp318
(dp319
g41
I11
sg42
I7
sg57
(I1
I0
I4
I2
tp320
sbaa(lp321
g0
(g53
g2
Ntp322
Rp323
(dp324
g41
I12
sg42
I7
sg57
(I4
I2
I4
I2
tp325
sbaa(lp326
g0
(g53
g2
Ntp327
Rp328
(dp329
g41
I13
sg42
I7
sg57
(I4
I2
I4
I2
tp330
sbaaa(lp331
(lp332
g0
(g53
g2
Ntp333
Rp334
(dp335
g41
I0
sg42
I8
sg57
(I2
I2
I2
I2
tp336
sbaa(lp337
g0
(g53
g2
Ntp338
Rp339
(dp340
g41
I1
sg42
I8
sg57
(I2
I2
I2
I2
tp341
sbaa(lp342
g0
(g53
g2
Ntp343
Rp344
(dp345
g41
I2
sg42
I8
sg57
(I2
I3
I2
I4
tp346
sbaa(lp347
g0
(g53
g2
Ntp348
Rp349
(dp350
g41
I3
sg42
I8
sg57
(I2
I4
I0
I1
tp351
sbaa(lp352
a(lp353
a(lp354
a(lp355
a(lp356
a(lp357
a(lp358
a(lp359
a(lp360
a(lp361
aa(lp362
(lp363
a(lp364
a(lp365
g0
(g53
g2
Ntp366
Rp367
(dp368
g41
I2
sg42
I9
sg57
(I1
I0
I4
I2
tp369
sbaa(lp370
g0
(g53
g2
Ntp371
Rp372
(dp373
g41
I3
sg42
I9
sg57
(I4
I3
I1
I1
tp374
sbaa(lp375
a(lp376
a(lp377
a(lp378
a(lp379
g0
(g53
g2
Ntp380
Rp381
(dp382
g41
I8
sg42
I9
sg57
(I0
I0
I2
I2
tp383
sbaa(lp384
g0
(g53
g2
Ntp385
Rp386
(dp387
g41
I9
sg42
I9
sg57
(I2
I2
I2
I2
tp388
sbaa(lp389
g0
(g53
g2
Ntp390
Rp391
(dp392
g41
I10
sg42
I9
sg57
(I2
I2
I2
I2
tp393
sbaa(lp394
g0
(g53
g2
Ntp395
Rp396
(dp397
g41
I11
sg42
I9
sg57
(I2
I2
I2
I2
tp398
sbaa(lp399
g0
(g53
g2
Ntp400
Rp401
(dp402
g41
I12
sg42
I9
sg57
(I2
I2
I2
I2
tp403
sbaa(lp404
g0
(g53
g2
Ntp405
Rp406
(dp407
g41
I13
sg42
I9
sg57
(I2
I2
I2
I2
tp408
sbaaa(lp409
(lp410
a(lp411
a(lp412
a(lp413
g0
(g53
g2
Ntp414
Rp415
(dp416
g41
I3
sg42
I10
sg57
(I1
I1
I1
I1
tp417
sbaa(lp418
a(lp419
a(lp420
a(lp421
a(lp422
a(lp423
a(lp424
a(lp425
a(lp426
a(lp427
aa(lp428
(lp429
a(lp430
a(lp431
a(lp432
g0
(g53
g2
Ntp433
Rp434
(dp435
g41
I3
sg42
I11
sg57
(I1
I1
I1
I1
tp436
sbaa(lp437
g0
(cInteractives
XSwitch
p438
g2
Ntp439
Rp440
(dp441
g41
I4
sg42
I11
sS'r'
p442
I0
sS'active'
p443
I01
sS'col'
p444
I0
sbaa(lp445
a(lp446
a(lp447
a(lp448
a(lp449
a(lp450
a(lp451
a(lp452
a(lp453
aa(lp454
(lp455
a(lp456
a(lp457
a(lp458
g0
(g53
g2
Ntp459
Rp460
(dp461
g41
I3
sg42
I12
sg57
(I1
I0
I1
I0
tp462
sbaa(lp463
a(lp464
a(lp465
a(lp466
a(lp467
a(lp468
a(lp469
a(lp470
a(lp471
a(lp472
aa(lp473
(lp474
a(lp475
a(lp476
a(lp477
a(lp478
a(lp479
a(lp480
a(lp481
a(lp482
a(lp483
a(lp484
a(lp485
a(lp486
a(lp487
aa(lp488
(lp489
a(lp490
a(lp491
a(lp492
a(lp493
a(lp494
a(lp495
a(lp496
a(lp497
g0
(cInteractives
XBlock
p498
g2
Ntp499
Rp500
(dp501
g41
I8
sg42
I14
sg443
I0
sg444
I0
sbaa(lp502
a(lp503
a(lp504
a(lp505
a(lp506
aa(lp507
(lp508
a(lp509
g0
(cTiles
Portal
p510
g2
Ntp511
Rp512
(dp513
g41
I1
sg42
I15
sS'i'
p514
I01
sbaa(lp515
a(lp516
a(lp517
a(lp518
g0
(cTiles
WoodPlatform
p519
g2
Ntp520
Rp521
(dp522
g41
I5
sg42
I15
sg514
I2
sbaa(lp523
a(lp524
a(lp525
g0
(g53
g2
Ntp526
Rp527
(dp528
g41
I8
sg42
I15
sg57
(I0
I0
I2
I2
tp529
sbaa(lp530
g0
(g53
g2
Ntp531
Rp532
(dp533
g41
I9
sg42
I15
sg57
(I2
I3
I0
I1
tp534
sbaa(lp535
a(lp536
a(lp537
a(lp538
aa(lp539
(lp540
a(lp541
a(lp542
a(lp543
a(lp544
a(lp545
g0
(g519
g2
Ntp546
Rp547
(dp548
g41
I5
sg42
I16
sg514
I1
sbaa(lp549
a(lp550
a(lp551
a(lp552
g0
(g53
g2
Ntp553
Rp554
(dp555
g41
I9
sg42
I16
sg57
(I1
I1
I1
I1
tp556
sbaa(lp557
a(lp558
a(lp559
a(lp560
aa(lp561
(lp562
a(lp563
a(lp564
a(lp565
a(lp566
a(lp567
a(lp568
a(lp569
a(lp570
a(lp571
g0
(g53
g2
Ntp572
Rp573
(dp574
g41
I9
sg42
I17
sg57
(I1
I1
I1
I1
tp575
sbaa(lp576
a(lp577
a(lp578
a(lp579
aa(lp580
(lp581
a(lp582
a(lp583
a(lp584
a(lp585
a(lp586
a(lp587
a(lp588
a(lp589
a(lp590
g0
(g53
g2
Ntp591
Rp592
(dp593
g41
I9
sg42
I18
sg57
(I1
I1
I1
I1
tp594
sbaa(lp595
a(lp596
a(lp597
a(lp598
aasS'iscale'
p599
I3
sb.