ccopy_reg
_reconstructor
p0
(cBoard
Board
p1
c__builtin__
object
p2
Ntp3
Rp4
(dp5
S'sy'
p6
I12
sS'sx'
p7
I12
sS'rscale'
p8
I64
sS'ascale'
p9
I4
sS't'
p10
(lp11
(lp12
(lp13
g0
(cTiles
Dirt
p14
g2
Ntp15
Rp16
(dp17
S'y'
p18
I0
sS'x'
p19
I0
sS'corners'
p20
(I4
I4
I4
I4
tp21
sbaa(lp22
g0
(g14
g2
Ntp23
Rp24
(dp25
g18
I1
sg19
I0
sg20
(I4
I4
I1
I1
tp26
sbaa(lp27
g0
(cTiles
Air
p28
g2
Ntp29
Rp30
(dp31
g18
I2
sg19
I0
sbaa(lp32
g0
(g28
g2
Ntp33
Rp34
(dp35
g18
I3
sg19
I0
sbaa(lp36
g0
(g28
g2
Ntp37
Rp38
(dp39
g18
I4
sg19
I0
sbaa(lp40
g0
(g28
g2
Ntp41
Rp42
(dp43
g18
I5
sg19
I0
sbaa(lp44
g0
(g28
g2
Ntp45
Rp46
(dp47
g18
I6
sg19
I0
sbaa(lp48
g0
(g28
g2
Ntp49
Rp50
(dp51
g18
I7
sg19
I0
sbaa(lp52
g0
(g14
g2
Ntp53
Rp54
(dp55
g18
I8
sg19
I0
sg20
(I1
I0
I4
I2
tp56
sbaa(lp57
g0
(g14
g2
Ntp58
Rp59
(dp60
g18
I9
sg19
I0
sg20
(I4
I3
I4
I4
tp61
sbaa(lp62
g0
(g14
g2
Ntp63
Rp64
(dp65
g18
I10
sg19
I0
sg20
(I4
I4
I4
I4
tp66
sbaa(lp67
g0
(g14
g2
Ntp68
Rp69
(dp70
g18
I11
sg19
I0
sg20
(I4
I4
I4
I4
tp71
sbaaa(lp72
(lp73
g0
(g14
g2
Ntp74
Rp75
(dp76
g18
I0
sg19
I1
sg20
(I4
I4
I4
I3
tp77
sbaa(lp78
g0
(g14
g2
Ntp79
Rp80
(dp81
g18
I1
sg19
I1
sg20
(I4
I2
I1
I0
tp82
sbaa(lp83
g0
(g28
g2
Ntp84
Rp85
(dp86
g18
I2
sg19
I1
sbaa(lp87
g0
(g28
g2
Ntp88
Rp89
(dp90
g18
I3
sg19
I1
sbaa(lp91
g0
(g28
g2
Ntp92
Rp93
(dp94
g18
I4
sg19
I1
sbaa(lp95
g0
(g28
g2
Ntp96
Rp97
(dp98
g18
I5
sg19
I1
sbaa(lp99
g0
(g28
g2
Ntp100
Rp101
(dp102
g18
I6
sg19
I1
sbaa(lp103
g0
(g28
g2
Ntp104
Rp105
(dp106
g18
I7
sg19
I1
sbaa(lp107
g0
(g28
g2
Ntp108
Rp109
(dp110
g18
I8
sg19
I1
sbaa(lp111
g0
(g14
g2
Ntp112
Rp113
(dp114
g18
I9
sg19
I1
sg20
(I1
I0
I4
I2
tp115
sbaa(lp116
g0
(g14
g2
Ntp117
Rp118
(dp119
g18
I10
sg19
I1
sg20
(I4
I3
I4
I4
tp120
sbaa(lp121
g0
(g14
g2
Ntp122
Rp123
(dp124
g18
I11
sg19
I1
sg20
(I4
I4
I4
I4
tp125
sbaaa(lp126
(lp127
g0
(g14
g2
Ntp128
Rp129
(dp130
g18
I0
sg19
I2
sg20
(I4
I4
I1
I1
tp131
sbaa(lp132
g0
(cTiles
Spikes
p133
g2
Ntp134
Rp135
(dp136
g18
I1
sg19
I2
sS'i'
p137
I13
sbaa(lp138
g0
(g133
g2
Ntp139
Rp140
(dp141
g18
I2
sg19
I2
sg137
I1
sbaa(lp142
g0
(g28
g2
Ntp143
Rp144
(dp145
g18
I3
sg19
I2
sbaa(lp146
g0
(g28
g2
Ntp147
Rp148
(dp149
g18
I4
sg19
I2
sbaa(lp150
g0
(g28
g2
Ntp151
Rp152
(dp153
g18
I5
sg19
I2
sbaa(lp154
g0
(g28
g2
Ntp155
Rp156
(dp157
g18
I6
sg19
I2
sbaa(lp158
g0
(g28
g2
Ntp159
Rp160
(dp161
g18
I7
sg19
I2
sbag0
(cSnake
SnakeSeg
p162
g2
Ntp163
Rp164
(dp165
S'gshape'
p166
g0
(cSnake
Snake
p167
g2
Ntp168
Rp169
(dp170
S'iid'
p171
I9
sS'tiles'
p172
(lp173
g0
(g162
g2
Ntp174
Rp175
(dp176
g166
g169
sS'snake'
p177
g169
sS'fdir'
p178
I1
sg18
I9
sg19
I2
sS'bdir'
p179
I0
sbag0
(g162
g2
Ntp180
Rp181
(dp182
g166
g169
sg177
g169
sg178
I1
sg18
I8
sg19
I2
sg179
I4
sbag164
ag0
(g162
g2
Ntp183
Rp184
(dp185
g166
g169
sg177
g169
sg178
I2
sg18
I7
sg19
I3
sg179
I8
sbag0
(cSnake
SnakeHead
p186
g2
Ntp187
Rp188
(dp189
g18
I7
sg19
I4
sg166
g169
sg177
g169
sS'd'
p190
I1
sbasbsg177
g169
sg178
I2
sg18
I7
sg19
I2
sg179
I4
sbaa(lp191
g0
(g28
g2
Ntp192
Rp193
(dp194
g18
I8
sg19
I2
sbag181
aa(lp195
g0
(g28
g2
Ntp196
Rp197
(dp198
g18
I9
sg19
I2
sbag175
aa(lp199
g0
(g14
g2
Ntp200
Rp201
(dp202
g18
I10
sg19
I2
sg20
(I1
I1
I4
I4
tp203
sbaa(lp204
g0
(g14
g2
Ntp205
Rp206
(dp207
g18
I11
sg19
I2
sg20
(I4
I4
I4
I4
tp208
sbaaa(lp209
(lp210
g0
(g14
g2
Ntp211
Rp212
(dp213
g18
I0
sg19
I3
sg20
(I4
I4
I1
I1
tp214
sbaa(lp215
g0
(g28
g2
Ntp216
Rp217
(dp218
g18
I1
sg19
I3
sbaa(lp219
g0
(g28
g2
Ntp220
Rp221
(dp222
g18
I2
sg19
I3
sbaa(lp223
g0
(g28
g2
Ntp224
Rp225
(dp226
g18
I3
sg19
I3
sbaa(lp227
g0
(g28
g2
Ntp228
Rp229
(dp230
g18
I4
sg19
I3
sbaa(lp231
g0
(g28
g2
Ntp232
Rp233
(dp234
g18
I5
sg19
I3
sbaa(lp235
g0
(g28
g2
Ntp236
Rp237
(dp238
g18
I6
sg19
I3
sbaa(lp239
g0
(g28
g2
Ntp240
Rp241
(dp242
g18
I7
sg19
I3
sbag184
aa(lp243
g0
(g14
g2
Ntp244
Rp245
(dp246
g18
I8
sg19
I3
sg20
(I0
I1
I2
I4
tp247
sbaa(lp248
g0
(g14
g2
Ntp249
Rp250
(dp251
g18
I9
sg19
I3
sg20
(I2
I4
I2
I4
tp252
sbaa(lp253
g0
(g14
g2
Ntp254
Rp255
(dp256
g18
I10
sg19
I3
sg20
(I3
I4
I4
I4
tp257
sbaa(lp258
g0
(g14
g2
Ntp259
Rp260
(dp261
g18
I11
sg19
I3
sg20
(I4
I4
I4
I4
tp262
sbaaa(lp263
(lp264
g0
(g14
g2
Ntp265
Rp266
(dp267
g18
I0
sg19
I4
sg20
(I4
I4
I1
I1
tp268
sbaa(lp269
g0
(g133
g2
Ntp270
Rp271
(dp272
g18
I1
sg19
I4
sg137
I3
sbaa(lp273
g0
(g28
g2
Ntp274
Rp275
(dp276
g18
I2
sg19
I4
sbaa(lp277
g0
(g28
g2
Ntp278
Rp279
(dp280
g18
I3
sg19
I4
sbaa(lp281
g0
(g28
g2
Ntp282
Rp283
(dp284
g18
I4
sg19
I4
sbaa(lp285
g0
(g28
g2
Ntp286
Rp287
(dp288
g18
I5
sg19
I4
sbaa(lp289
g0
(g28
g2
Ntp290
Rp291
(dp292
g18
I6
sg19
I4
sbaa(lp293
g0
(g28
g2
Ntp294
Rp295
(dp296
g18
I7
sg19
I4
sbag188
aa(lp297
g0
(g14
g2
Ntp298
Rp299
(dp300
g18
I8
sg19
I4
sg20
(I1
I0
I4
I2
tp301
sbaa(lp302
g0
(g14
g2
Ntp303
Rp304
(dp305
g18
I9
sg19
I4
sg20
(I4
I3
I4
I4
tp306
sbaa(lp307
g0
(g14
g2
Ntp308
Rp309
(dp310
g18
I10
sg19
I4
sg20
(I4
I4
I4
I4
tp311
sbaa(lp312
g0
(g14
g2
Ntp313
Rp314
(dp315
g18
I11
sg19
I4
sg20
(I4
I4
I4
I4
tp316
sbaaa(lp317
(lp318
g0
(g14
g2
Ntp319
Rp320
(dp321
g18
I0
sg19
I5
sg20
(I4
I4
I1
I1
tp322
sbaa(lp323
g0
(g133
g2
Ntp324
Rp325
(dp326
g18
I1
sg19
I5
sg137
I11
sbaa(lp327
g0
(g28
g2
Ntp328
Rp329
(dp330
g18
I2
sg19
I5
sbaa(lp331
g0
(cTiles
Portal
p332
g2
Ntp333
Rp334
(dp335
g18
I3
sg19
I5
sg137
I01
sbaa(lp336
g0
(g28
g2
Ntp337
Rp338
(dp339
g18
I4
sg19
I5
sbaa(lp340
g0
(g28
g2
Ntp341
Rp342
(dp343
g18
I5
sg19
I5
sbaa(lp344
g0
(g28
g2
Ntp345
Rp346
(dp347
g18
I6
sg19
I5
sbaa(lp348
g0
(g28
g2
Ntp349
Rp350
(dp351
g18
I7
sg19
I5
sbaa(lp352
g0
(cInteractives
XButton
p353
g2
Ntp354
Rp355
(dp356
g18
I8
sg19
I5
sS'col'
p357
I0
sbaa(lp358
g0
(g14
g2
Ntp359
Rp360
(dp361
g18
I9
sg19
I5
sg20
(I1
I1
I4
I4
tp362
sbaa(lp363
g0
(g14
g2
Ntp364
Rp365
(dp366
g18
I10
sg19
I5
sg20
(I4
I4
I4
I4
tp367
sbaa(lp368
g0
(g14
g2
Ntp369
Rp370
(dp371
g18
I11
sg19
I5
sg20
(I4
I4
I4
I4
tp372
sbaaa(lp373
(lp374
g0
(g14
g2
Ntp375
Rp376
(dp377
g18
I0
sg19
I6
sg20
(I4
I2
I3
I2
tp378
sbaa(lp379
g0
(g14
g2
Ntp380
Rp381
(dp382
g18
I1
sg19
I6
sg20
(I2
I2
I0
I0
tp383
sbaa(lp384
g0
(g28
g2
Ntp385
Rp386
(dp387
g18
I2
sg19
I6
sbaa(lp388
g0
(g28
g2
Ntp389
Rp390
(dp391
g18
I3
sg19
I6
sbaa(lp392
g0
(g28
g2
Ntp393
Rp394
(dp395
g18
I4
sg19
I6
sbaa(lp396
g0
(g28
g2
Ntp397
Rp398
(dp399
g18
I5
sg19
I6
sbaa(lp400
g0
(g28
g2
Ntp401
Rp402
(dp403
g18
I6
sg19
I6
sbaa(lp404
g0
(g28
g2
Ntp405
Rp406
(dp407
g18
I7
sg19
I6
sbag0
(g186
g2
Ntp408
Rp409
(dp410
g18
I7
sg19
I6
sg166
g0
(g167
g2
Ntp411
Rp412
(dp413
g171
I7
sg172
(lp414
g0
(g162
g2
Ntp415
Rp416
(dp417
g166
g412
sg177
g412
sg178
I8
sg18
I7
sg19
I8
sg179
I0
sbag0
(g162
g2
Ntp418
Rp419
(dp420
g166
g412
sg177
g412
sg178
I8
sg18
I7
sg19
I7
sg179
I2
sbag409
asbsg177
g412
sg190
I3
sbaa(lp421
g0
(g14
g2
Ntp422
Rp423
(dp424
g18
I8
sg19
I6
sg20
(I0
I1
I2
I4
tp425
sbaa(lp426
g0
(g14
g2
Ntp427
Rp428
(dp429
g18
I9
sg19
I6
sg20
(I3
I4
I4
I4
tp430
sbaa(lp431
g0
(g14
g2
Ntp432
Rp433
(dp434
g18
I10
sg19
I6
sg20
(I4
I4
I4
I4
tp435
sbaa(lp436
g0
(g14
g2
Ntp437
Rp438
(dp439
g18
I11
sg19
I6
sg20
(I4
I4
I4
I4
tp440
sbaaa(lp441
(lp442
g0
(cTiles
Diamond
p443
g2
Ntp444
Rp445
(dp446
g18
I0
sg19
I7
sg166
g0
(cTiles
GravShape
p447
g2
Ntp448
Rp449
(dp450
g172
(lp451
g445
asbsbaa(lp452
g0
(cInteractives
XBlock
p453
g2
Ntp454
Rp455
(dp456
g18
I1
sg19
I7
sS'active'
p457
I1
sg357
I0
sbaa(lp458
g0
(g28
g2
Ntp459
Rp460
(dp461
g18
I2
sg19
I7
sbaa(lp462
g0
(g28
g2
Ntp463
Rp464
(dp465
g18
I3
sg19
I7
sbaa(lp466
g0
(g28
g2
Ntp467
Rp468
(dp469
g18
I4
sg19
I7
sbaa(lp470
g0
(g28
g2
Ntp471
Rp472
(dp473
g18
I5
sg19
I7
sbaa(lp474
g0
(g28
g2
Ntp475
Rp476
(dp477
g18
I6
sg19
I7
sbaa(lp478
g0
(g28
g2
Ntp479
Rp480
(dp481
g18
I7
sg19
I7
sbag419
aa(lp482
g0
(g14
g2
Ntp483
Rp484
(dp485
g18
I8
sg19
I7
sg20
(I1
I0
I4
I2
tp486
sbaa(lp487
g0
(g14
g2
Ntp488
Rp489
(dp490
g18
I9
sg19
I7
sg20
(I4
I3
I4
I4
tp491
sbaa(lp492
g0
(g14
g2
Ntp493
Rp494
(dp495
g18
I10
sg19
I7
sg20
(I4
I4
I4
I4
tp496
sbaa(lp497
g0
(g14
g2
Ntp498
Rp499
(dp500
g18
I11
sg19
I7
sg20
(I4
I4
I4
I4
tp501
sbaaa(lp502
(lp503
g0
(g14
g2
Ntp504
Rp505
(dp506
g18
I0
sg19
I8
sg20
(I2
I4
I2
I3
tp507
sbaa(lp508
g0
(g14
g2
Ntp509
Rp510
(dp511
g18
I1
sg19
I8
sg20
(I2
I2
I0
I0
tp512
sbaa(lp513
g0
(g28
g2
Ntp514
Rp515
(dp516
g18
I2
sg19
I8
sbaa(lp517
g0
(g28
g2
Ntp518
Rp519
(dp520
g18
I3
sg19
I8
sbaa(lp521
g0
(g28
g2
Ntp522
Rp523
(dp524
g18
I4
sg19
I8
sbaa(lp525
g0
(g28
g2
Ntp526
Rp527
(dp528
g18
I5
sg19
I8
sbaa(lp529
g0
(g28
g2
Ntp530
Rp531
(dp532
g18
I6
sg19
I8
sbaa(lp533
g0
(g28
g2
Ntp534
Rp535
(dp536
g18
I7
sg19
I8
sbag416
aa(lp537
g0
(g28
g2
Ntp538
Rp539
(dp540
g18
I8
sg19
I8
sbaa(lp541
g0
(g14
g2
Ntp542
Rp543
(dp544
g18
I9
sg19
I8
sg20
(I1
I0
I4
I2
tp545
sbaa(lp546
g0
(g14
g2
Ntp547
Rp548
(dp549
g18
I10
sg19
I8
sg20
(I4
I3
I4
I4
tp550
sbaa(lp551
g0
(g14
g2
Ntp552
Rp553
(dp554
g18
I11
sg19
I8
sg20
(I4
I4
I4
I4
tp555
sbaaa(lp556
(lp557
g0
(g14
g2
Ntp558
Rp559
(dp560
g18
I0
sg19
I9
sg20
(I4
I4
I1
I1
tp561
sbaa(lp562
g0
(g133
g2
Ntp563
Rp564
(dp565
g18
I1
sg19
I9
sg137
I9
sbaa(lp566
g0
(g28
g2
Ntp567
Rp568
(dp569
g18
I2
sg19
I9
sbaa(lp570
g0
(g28
g2
Ntp571
Rp572
(dp573
g18
I3
sg19
I9
sbaa(lp574
g0
(g28
g2
Ntp575
Rp576
(dp577
g18
I4
sg19
I9
sbaa(lp578
g0
(g28
g2
Ntp579
Rp580
(dp581
g18
I5
sg19
I9
sbaa(lp582
g0
(g28
g2
Ntp583
Rp584
(dp585
g18
I6
sg19
I9
sbaa(lp586
g0
(g28
g2
Ntp587
Rp588
(dp589
g18
I7
sg19
I9
sbaa(lp590
g0
(g28
g2
Ntp591
Rp592
(dp593
g18
I8
sg19
I9
sbaa(lp594
g0
(g28
g2
Ntp595
Rp596
(dp597
g18
I9
sg19
I9
sbaa(lp598
g0
(g14
g2
Ntp599
Rp600
(dp601
g18
I10
sg19
I9
sg20
(I1
I1
I4
I4
tp602
sbaa(lp603
g0
(g14
g2
Ntp604
Rp605
(dp606
g18
I11
sg19
I9
sg20
(I4
I4
I4
I4
tp607
sbaaa(lp608
(lp609
g0
(g14
g2
Ntp610
Rp611
(dp612
g18
I0
sg19
I10
sg20
(I4
I4
I1
I1
tp613
sbaa(lp614
g0
(g28
g2
Ntp615
Rp616
(dp617
g18
I1
sg19
I10
sbaa(lp618
g0
(g28
g2
Ntp619
Rp620
(dp621
g18
I2
sg19
I10
sbaa(lp622
g0
(g28
g2
Ntp623
Rp624
(dp625
g18
I3
sg19
I10
sbaa(lp626
g0
(g28
g2
Ntp627
Rp628
(dp629
g18
I4
sg19
I10
sbaa(lp630
g0
(g28
g2
Ntp631
Rp632
(dp633
g18
I5
sg19
I10
sbaa(lp634
g0
(g28
g2
Ntp635
Rp636
(dp637
g18
I6
sg19
I10
sbaa(lp638
g0
(g28
g2
Ntp639
Rp640
(dp641
g18
I7
sg19
I10
sbaa(lp642
g0
(g28
g2
Ntp643
Rp644
(dp645
g18
I8
sg19
I10
sbaa(lp646
g0
(g14
g2
Ntp647
Rp648
(dp649
g18
I9
sg19
I10
sg20
(I0
I1
I2
I4
tp650
sbaa(lp651
g0
(g14
g2
Ntp652
Rp653
(dp654
g18
I10
sg19
I10
sg20
(I3
I4
I4
I4
tp655
sbaa(lp656
g0
(g14
g2
Ntp657
Rp658
(dp659
g18
I11
sg19
I10
sg20
(I4
I4
I4
I4
tp660
sbaaa(lp661
(lp662
g0
(g14
g2
Ntp663
Rp664
(dp665
g18
I0
sg19
I11
sg20
(I4
I4
I3
I4
tp666
sbaa(lp667
g0
(g14
g2
Ntp668
Rp669
(dp670
g18
I1
sg19
I11
sg20
(I2
I4
I0
I1
tp671
sbaa(lp672
g0
(g133
g2
Ntp673
Rp674
(dp675
g18
I2
sg19
I11
sg137
I1
sbaa(lp676
g0
(g28
g2
Ntp677
Rp678
(dp679
g18
I3
sg19
I11
sbaa(lp680
g0
(g28
g2
Ntp681
Rp682
(dp683
g18
I4
sg19
I11
sbaa(lp684
g0
(g28
g2
Ntp685
Rp686
(dp687
g18
I5
sg19
I11
sbaa(lp688
g0
(g28
g2
Ntp689
Rp690
(dp691
g18
I6
sg19
I11
sbaa(lp692
g0
(g28
g2
Ntp693
Rp694
(dp695
g18
I7
sg19
I11
sbaa(lp696
g0
(g14
g2
Ntp697
Rp698
(dp699
g18
I8
sg19
I11
sg20
(I0
I1
I2
I4
tp700
sbaa(lp701
g0
(g14
g2
Ntp702
Rp703
(dp704
g18
I9
sg19
I11
sg20
(I3
I4
I4
I4
tp705
sbaa(lp706
g0
(g14
g2
Ntp707
Rp708
(dp709
g18
I10
sg19
I11
sg20
(I4
I4
I4
I4
tp710
sbaa(lp711
g0
(g14
g2
Ntp712
Rp713
(dp714
g18
I11
sg19
I11
sg20
(I4
I4
I4
I4
tp715
sbaaasS'iscale'
p716
I3
sb.