ccopy_reg
_reconstructor
p0
(cBoard
Board
p1
c__builtin__
object
p2
Ntp3
Rp4
(dp5
S'sy'
p6
I14
sS'sx'
p7
I19
sS'rscale'
p8
I64
sS'ascale'
p9
I4
sS't'
p10
(lp11
(lp12
(lp13
g0
(cTiles
Air
p14
g2
Ntp15
Rp16
(dp17
S'y'
p18
I0
sS'x'
p19
I0
sbaa(lp20
g0
(g14
g2
Ntp21
Rp22
(dp23
g18
I1
sg19
I0
sbaa(lp24
g0
(g14
g2
Ntp25
Rp26
(dp27
g18
I2
sg19
I0
sbaa(lp28
g0
(g14
g2
Ntp29
Rp30
(dp31
g18
I3
sg19
I0
sbaa(lp32
g0
(g14
g2
Ntp33
Rp34
(dp35
g18
I4
sg19
I0
sbaa(lp36
g0
(g14
g2
Ntp37
Rp38
(dp39
g18
I5
sg19
I0
sbaa(lp40
g0
(g14
g2
Ntp41
Rp42
(dp43
g18
I6
sg19
I0
sbaa(lp44
g0
(g14
g2
Ntp45
Rp46
(dp47
g18
I7
sg19
I0
sbaa(lp48
g0
(g14
g2
Ntp49
Rp50
(dp51
g18
I8
sg19
I0
sbaa(lp52
g0
(g14
g2
Ntp53
Rp54
(dp55
g18
I9
sg19
I0
sbaa(lp56
g0
(g14
g2
Ntp57
Rp58
(dp59
g18
I10
sg19
I0
sbag0
(cSnake
SnakeSeg
p60
g2
Ntp61
Rp62
(dp63
S'gshape'
p64
g0
(cSnake
Snake
p65
g2
Ntp66
Rp67
(dp68
S'iid'
p69
I0
sS'tiles'
p70
(lp71
g62
ag0
(g60
g2
Ntp72
Rp73
(dp74
g64
g67
sS'snake'
p75
g67
sS'fdir'
p76
I2
sg18
I10
sg19
I1
sS'bdir'
p77
I8
sbag0
(g60
g2
Ntp78
Rp79
(dp80
g64
g67
sg75
g67
sg76
I2
sg18
I10
sg19
I2
sg77
I8
sbag0
(cSnake
SnakeHead
p81
g2
Ntp82
Rp83
(dp84
g18
I10
sg19
I3
sg64
g67
sg75
g67
sS'd'
p85
I1
sbasbsg75
g67
sg76
I2
sg18
I10
sg19
I0
sg77
I0
sbaa(lp86
g0
(cTiles
Dirt
p87
g2
Ntp88
Rp89
(dp90
g18
I11
sg19
I0
sS'corners'
p91
(I1
I1
I4
I4
tp92
sbaa(lp93
g0
(g87
g2
Ntp94
Rp95
(dp96
g18
I12
sg19
I0
sg91
(I4
I4
I4
I4
tp97
sbaa(lp98
g0
(g87
g2
Ntp99
Rp100
(dp101
g18
I13
sg19
I0
sg91
(I4
I4
I4
I4
tp102
sbaaa(lp103
(lp104
g0
(g14
g2
Ntp105
Rp106
(dp107
g18
I0
sg19
I1
sbaa(lp108
g0
(g14
g2
Ntp109
Rp110
(dp111
g18
I1
sg19
I1
sbaa(lp112
g0
(g14
g2
Ntp113
Rp114
(dp115
g18
I2
sg19
I1
sbaa(lp116
g0
(g14
g2
Ntp117
Rp118
(dp119
g18
I3
sg19
I1
sbaa(lp120
g0
(g14
g2
Ntp121
Rp122
(dp123
g18
I4
sg19
I1
sbaa(lp124
g0
(g14
g2
Ntp125
Rp126
(dp127
g18
I5
sg19
I1
sbaa(lp128
g0
(g14
g2
Ntp129
Rp130
(dp131
g18
I6
sg19
I1
sbaa(lp132
g0
(g14
g2
Ntp133
Rp134
(dp135
g18
I7
sg19
I1
sbaa(lp136
g0
(g14
g2
Ntp137
Rp138
(dp139
g18
I8
sg19
I1
sbaa(lp140
g0
(g14
g2
Ntp141
Rp142
(dp143
g18
I9
sg19
I1
sbaa(lp144
g0
(g14
g2
Ntp145
Rp146
(dp147
g18
I10
sg19
I1
sbag73
aa(lp148
g0
(g87
g2
Ntp149
Rp150
(dp151
g18
I11
sg19
I1
sg91
(I1
I1
I4
I4
tp152
sbaa(lp153
g0
(g87
g2
Ntp154
Rp155
(dp156
g18
I12
sg19
I1
sg91
(I4
I4
I4
I4
tp157
sbaa(lp158
g0
(g87
g2
Ntp159
Rp160
(dp161
g18
I13
sg19
I1
sg91
(I4
I4
I4
I4
tp162
sbaaa(lp163
(lp164
g0
(g14
g2
Ntp165
Rp166
(dp167
g18
I0
sg19
I2
sbaa(lp168
g0
(g14
g2
Ntp169
Rp170
(dp171
g18
I1
sg19
I2
sbaa(lp172
g0
(g14
g2
Ntp173
Rp174
(dp175
g18
I2
sg19
I2
sbaa(lp176
g0
(g14
g2
Ntp177
Rp178
(dp179
g18
I3
sg19
I2
sbaa(lp180
g0
(g14
g2
Ntp181
Rp182
(dp183
g18
I4
sg19
I2
sbaa(lp184
g0
(g14
g2
Ntp185
Rp186
(dp187
g18
I5
sg19
I2
sbaa(lp188
g0
(g14
g2
Ntp189
Rp190
(dp191
g18
I6
sg19
I2
sbaa(lp192
g0
(g14
g2
Ntp193
Rp194
(dp195
g18
I7
sg19
I2
sbaa(lp196
g0
(g14
g2
Ntp197
Rp198
(dp199
g18
I8
sg19
I2
sbag0
(cTiles
Block
p200
g2
Ntp201
Rp202
(dp203
g18
I8
sg19
I2
sg64
g0
(cTiles
BGravShape
p204
g2
Ntp205
Rp206
(dp207
g69
I0
sg70
(lp208
g202
ag0
(g200
g2
Ntp209
Rp210
(dp211
g18
I9
sg19
I2
sg64
g206
sg91
(I2
I3
I0
I1
tp212
sbag0
(g200
g2
Ntp213
Rp214
(dp215
g18
I9
sg19
I3
sg64
g206
sg91
(I1
I1
I1
I1
tp216
sbag0
(g200
g2
Ntp217
Rp218
(dp219
g18
I9
sg19
I4
sg64
g206
sg91
(I1
I1
I1
I1
tp220
sbag0
(g200
g2
Ntp221
Rp222
(dp223
g18
I9
sg19
I5
sg64
g206
sg91
(I1
I1
I1
I1
tp224
sbag0
(g200
g2
Ntp225
Rp226
(dp227
g18
I9
sg19
I6
sg64
g206
sg91
(I3
I2
I1
I0
tp228
sbag0
(g200
g2
Ntp229
Rp230
(dp231
g18
I8
sg19
I6
sg64
g206
sg91
(I0
I0
I2
I2
tp232
sbasbsg91
(I0
I0
I2
I2
tp233
sbaa(lp234
g0
(g14
g2
Ntp235
Rp236
(dp237
g18
I9
sg19
I2
sbag210
aa(lp238
g0
(g14
g2
Ntp239
Rp240
(dp241
g18
I10
sg19
I2
sbag79
aa(lp242
g0
(g87
g2
Ntp243
Rp244
(dp245
g18
I11
sg19
I2
sg91
(I1
I1
I4
I4
tp246
sbaa(lp247
g0
(g87
g2
Ntp248
Rp249
(dp250
g18
I12
sg19
I2
sg91
(I4
I4
I4
I4
tp251
sbaa(lp252
g0
(g87
g2
Ntp253
Rp254
(dp255
g18
I13
sg19
I2
sg91
(I4
I4
I4
I4
tp256
sbaaa(lp257
(lp258
g0
(g14
g2
Ntp259
Rp260
(dp261
g18
I0
sg19
I3
sbaa(lp262
g0
(g14
g2
Ntp263
Rp264
(dp265
g18
I1
sg19
I3
sbaa(lp266
g0
(g14
g2
Ntp267
Rp268
(dp269
g18
I2
sg19
I3
sbaa(lp270
g0
(g14
g2
Ntp271
Rp272
(dp273
g18
I3
sg19
I3
sbaa(lp274
g0
(g14
g2
Ntp275
Rp276
(dp277
g18
I4
sg19
I3
sbaa(lp278
g0
(g14
g2
Ntp279
Rp280
(dp281
g18
I5
sg19
I3
sbaa(lp282
g0
(g14
g2
Ntp283
Rp284
(dp285
g18
I6
sg19
I3
sbaa(lp286
g0
(g14
g2
Ntp287
Rp288
(dp289
g18
I7
sg19
I3
sbaa(lp290
g0
(cTiles
Diamond
p291
g2
Ntp292
Rp293
(dp294
g18
I8
sg19
I3
sg64
g0
(cTiles
GravShape
p295
g2
Ntp296
Rp297
(dp298
g70
(lp299
g293
asbsbaa(lp300
g0
(g14
g2
Ntp301
Rp302
(dp303
g18
I9
sg19
I3
sbag214
aa(lp304
g0
(g14
g2
Ntp305
Rp306
(dp307
g18
I10
sg19
I3
sbag83
aa(lp308
g0
(g87
g2
Ntp309
Rp310
(dp311
g18
I11
sg19
I3
sg91
(I1
I1
I4
I4
tp312
sbaa(lp313
g0
(g87
g2
Ntp314
Rp315
(dp316
g18
I12
sg19
I3
sg91
(I4
I4
I4
I4
tp317
sbaa(lp318
g0
(g87
g2
Ntp319
Rp320
(dp321
g18
I13
sg19
I3
sg91
(I4
I4
I4
I4
tp322
sbaaa(lp323
(lp324
g0
(g14
g2
Ntp325
Rp326
(dp327
g18
I0
sg19
I4
sbaa(lp328
g0
(g14
g2
Ntp329
Rp330
(dp331
g18
I1
sg19
I4
sbaa(lp332
g0
(g14
g2
Ntp333
Rp334
(dp335
g18
I2
sg19
I4
sbaa(lp336
g0
(g14
g2
Ntp337
Rp338
(dp339
g18
I3
sg19
I4
sbaa(lp340
g0
(g14
g2
Ntp341
Rp342
(dp343
g18
I4
sg19
I4
sbaa(lp344
g0
(g14
g2
Ntp345
Rp346
(dp347
g18
I5
sg19
I4
sbaa(lp348
g0
(g14
g2
Ntp349
Rp350
(dp351
g18
I6
sg19
I4
sbaa(lp352
g0
(g14
g2
Ntp353
Rp354
(dp355
g18
I7
sg19
I4
sbaa(lp356
g0
(g291
g2
Ntp357
Rp358
(dp359
g18
I8
sg19
I4
sg64
g0
(g295
g2
Ntp360
Rp361
(dp362
g70
(lp363
g358
asbsbaa(lp364
g0
(g14
g2
Ntp365
Rp366
(dp367
g18
I9
sg19
I4
sbag218
aa(lp368
g0
(g14
g2
Ntp369
Rp370
(dp371
g18
I10
sg19
I4
sbaa(lp372
g0
(g87
g2
Ntp373
Rp374
(dp375
g18
I11
sg19
I4
sg91
(I1
I1
I4
I4
tp376
sbaa(lp377
g0
(g87
g2
Ntp378
Rp379
(dp380
g18
I12
sg19
I4
sg91
(I4
I4
I4
I4
tp381
sbaa(lp382
g0
(g87
g2
Ntp383
Rp384
(dp385
g18
I13
sg19
I4
sg91
(I4
I4
I4
I4
tp386
sbaaa(lp387
(lp388
g0
(g14
g2
Ntp389
Rp390
(dp391
g18
I0
sg19
I5
sbaa(lp392
g0
(g14
g2
Ntp393
Rp394
(dp395
g18
I1
sg19
I5
sbaa(lp396
g0
(g14
g2
Ntp397
Rp398
(dp399
g18
I2
sg19
I5
sbaa(lp400
g0
(g14
g2
Ntp401
Rp402
(dp403
g18
I3
sg19
I5
sbaa(lp404
g0
(g14
g2
Ntp405
Rp406
(dp407
g18
I4
sg19
I5
sbaa(lp408
g0
(g14
g2
Ntp409
Rp410
(dp411
g18
I5
sg19
I5
sbaa(lp412
g0
(g14
g2
Ntp413
Rp414
(dp415
g18
I6
sg19
I5
sbaa(lp416
g0
(g14
g2
Ntp417
Rp418
(dp419
g18
I7
sg19
I5
sbaa(lp420
g0
(g291
g2
Ntp421
Rp422
(dp423
g18
I8
sg19
I5
sg64
g0
(g295
g2
Ntp424
Rp425
(dp426
g70
(lp427
g422
asbsbaa(lp428
g0
(g14
g2
Ntp429
Rp430
(dp431
g18
I9
sg19
I5
sbag222
aa(lp432
g0
(g14
g2
Ntp433
Rp434
(dp435
g18
I10
sg19
I5
sbag0
(g60
g2
Ntp436
Rp437
(dp438
g64
g0
(g65
g2
Ntp439
Rp440
(dp441
g69
I1
sg70
(lp442
g437
ag0
(g60
g2
Ntp443
Rp444
(dp445
g64
g440
sg75
g440
sg76
I2
sg18
I10
sg19
I6
sg77
I8
sbag0
(g60
g2
Ntp446
Rp447
(dp448
g64
g440
sg75
g440
sg76
I1
sg18
I10
sg19
I7
sg77
I8
sbag0
(g81
g2
Ntp449
Rp450
(dp451
g18
I9
sg19
I7
sg64
g440
sg75
g440
sg85
I0
sbasbsg75
g440
sg76
I2
sg18
I10
sg19
I5
sg77
I0
sbaa(lp452
g0
(g87
g2
Ntp453
Rp454
(dp455
g18
I11
sg19
I5
sg91
(I1
I1
I4
I4
tp456
sbaa(lp457
g0
(g87
g2
Ntp458
Rp459
(dp460
g18
I12
sg19
I5
sg91
(I4
I4
I4
I4
tp461
sbaa(lp462
g0
(g87
g2
Ntp463
Rp464
(dp465
g18
I13
sg19
I5
sg91
(I4
I4
I4
I4
tp466
sbaaa(lp467
(lp468
g0
(g14
g2
Ntp469
Rp470
(dp471
g18
I0
sg19
I6
sbaa(lp472
g0
(g14
g2
Ntp473
Rp474
(dp475
g18
I1
sg19
I6
sbaa(lp476
g0
(g14
g2
Ntp477
Rp478
(dp479
g18
I2
sg19
I6
sbaa(lp480
g0
(g14
g2
Ntp481
Rp482
(dp483
g18
I3
sg19
I6
sbaa(lp484
g0
(g14
g2
Ntp485
Rp486
(dp487
g18
I4
sg19
I6
sbaa(lp488
g0
(g14
g2
Ntp489
Rp490
(dp491
g18
I5
sg19
I6
sbaa(lp492
g0
(g14
g2
Ntp493
Rp494
(dp495
g18
I6
sg19
I6
sbaa(lp496
g0
(g14
g2
Ntp497
Rp498
(dp499
g18
I7
sg19
I6
sbaa(lp500
g0
(g14
g2
Ntp501
Rp502
(dp503
g18
I8
sg19
I6
sbag230
aa(lp504
g0
(g14
g2
Ntp505
Rp506
(dp507
g18
I9
sg19
I6
sbag226
aa(lp508
g0
(g14
g2
Ntp509
Rp510
(dp511
g18
I10
sg19
I6
sbag444
aa(lp512
g0
(g87
g2
Ntp513
Rp514
(dp515
g18
I11
sg19
I6
sg91
(I1
I1
I4
I4
tp516
sbaa(lp517
g0
(g87
g2
Ntp518
Rp519
(dp520
g18
I12
sg19
I6
sg91
(I4
I4
I4
I4
tp521
sbaa(lp522
g0
(g87
g2
Ntp523
Rp524
(dp525
g18
I13
sg19
I6
sg91
(I4
I4
I4
I4
tp526
sbaaa(lp527
(lp528
g0
(g14
g2
Ntp529
Rp530
(dp531
g18
I0
sg19
I7
sbaa(lp532
g0
(g14
g2
Ntp533
Rp534
(dp535
g18
I1
sg19
I7
sbaa(lp536
g0
(g14
g2
Ntp537
Rp538
(dp539
g18
I2
sg19
I7
sbaa(lp540
g0
(g14
g2
Ntp541
Rp542
(dp543
g18
I3
sg19
I7
sbaa(lp544
g0
(g14
g2
Ntp545
Rp546
(dp547
g18
I4
sg19
I7
sbaa(lp548
g0
(g14
g2
Ntp549
Rp550
(dp551
g18
I5
sg19
I7
sbaa(lp552
g0
(g14
g2
Ntp553
Rp554
(dp555
g18
I6
sg19
I7
sbaa(lp556
g0
(g14
g2
Ntp557
Rp558
(dp559
g18
I7
sg19
I7
sbaa(lp560
g0
(g14
g2
Ntp561
Rp562
(dp563
g18
I8
sg19
I7
sbaa(lp564
g0
(g14
g2
Ntp565
Rp566
(dp567
g18
I9
sg19
I7
sbag450
aa(lp568
g0
(g14
g2
Ntp569
Rp570
(dp571
g18
I10
sg19
I7
sbag447
aa(lp572
g0
(g87
g2
Ntp573
Rp574
(dp575
g18
I11
sg19
I7
sg91
(I1
I0
I4
I2
tp576
sbaa(lp577
g0
(g87
g2
Ntp578
Rp579
(dp580
g18
I12
sg19
I7
sg91
(I4
I2
I4
I2
tp581
sbaa(lp582
g0
(g87
g2
Ntp583
Rp584
(dp585
g18
I13
sg19
I7
sg91
(I4
I2
I4
I2
tp586
sbaaa(lp587
(lp588
g0
(g87
g2
Ntp589
Rp590
(dp591
g18
I0
sg19
I8
sg91
(I2
I2
I2
I2
tp592
sbaa(lp593
g0
(g87
g2
Ntp594
Rp595
(dp596
g18
I1
sg19
I8
sg91
(I2
I2
I2
I2
tp597
sbaa(lp598
g0
(g87
g2
Ntp599
Rp600
(dp601
g18
I2
sg19
I8
sg91
(I2
I3
I2
I4
tp602
sbaa(lp603
g0
(g87
g2
Ntp604
Rp605
(dp606
g18
I3
sg19
I8
sg91
(I2
I4
I0
I1
tp607
sbaa(lp608
g0
(g14
g2
Ntp609
Rp610
(dp611
g18
I4
sg19
I8
sbaa(lp612
g0
(g14
g2
Ntp613
Rp614
(dp615
g18
I5
sg19
I8
sbaa(lp616
g0
(g14
g2
Ntp617
Rp618
(dp619
g18
I6
sg19
I8
sbaa(lp620
g0
(g14
g2
Ntp621
Rp622
(dp623
g18
I7
sg19
I8
sbaa(lp624
g0
(g14
g2
Ntp625
Rp626
(dp627
g18
I8
sg19
I8
sbaa(lp628
g0
(g14
g2
Ntp629
Rp630
(dp631
g18
I9
sg19
I8
sbaa(lp632
g0
(g14
g2
Ntp633
Rp634
(dp635
g18
I10
sg19
I8
sbaa(lp636
g0
(g14
g2
Ntp637
Rp638
(dp639
g18
I11
sg19
I8
sbaa(lp640
g0
(g14
g2
Ntp641
Rp642
(dp643
g18
I12
sg19
I8
sbaa(lp644
g0
(g14
g2
Ntp645
Rp646
(dp647
g18
I13
sg19
I8
sbaaa(lp648
(lp649
g0
(g14
g2
Ntp650
Rp651
(dp652
g18
I0
sg19
I9
sbaa(lp653
g0
(g14
g2
Ntp654
Rp655
(dp656
g18
I1
sg19
I9
sbaa(lp657
g0
(g87
g2
Ntp658
Rp659
(dp660
g18
I2
sg19
I9
sg91
(I1
I0
I4
I2
tp661
sbaa(lp662
g0
(g87
g2
Ntp663
Rp664
(dp665
g18
I3
sg19
I9
sg91
(I4
I3
I1
I1
tp666
sbaa(lp667
g0
(g14
g2
Ntp668
Rp669
(dp670
g18
I4
sg19
I9
sbaa(lp671
g0
(g14
g2
Ntp672
Rp673
(dp674
g18
I5
sg19
I9
sbaa(lp675
g0
(g14
g2
Ntp676
Rp677
(dp678
g18
I6
sg19
I9
sbaa(lp679
g0
(g14
g2
Ntp680
Rp681
(dp682
g18
I7
sg19
I9
sbaa(lp683
g0
(g87
g2
Ntp684
Rp685
(dp686
g18
I8
sg19
I9
sg91
(I0
I0
I2
I2
tp687
sbaa(lp688
g0
(g87
g2
Ntp689
Rp690
(dp691
g18
I9
sg19
I9
sg91
(I2
I2
I2
I2
tp692
sbaa(lp693
g0
(g87
g2
Ntp694
Rp695
(dp696
g18
I10
sg19
I9
sg91
(I2
I2
I2
I2
tp697
sbaa(lp698
g0
(g87
g2
Ntp699
Rp700
(dp701
g18
I11
sg19
I9
sg91
(I2
I2
I2
I2
tp702
sbaa(lp703
g0
(g87
g2
Ntp704
Rp705
(dp706
g18
I12
sg19
I9
sg91
(I2
I2
I2
I2
tp707
sbaa(lp708
g0
(g87
g2
Ntp709
Rp710
(dp711
g18
I13
sg19
I9
sg91
(I2
I2
I2
I2
tp712
sbaaa(lp713
(lp714
g0
(g14
g2
Ntp715
Rp716
(dp717
g18
I0
sg19
I10
sbaa(lp718
g0
(g14
g2
Ntp719
Rp720
(dp721
g18
I1
sg19
I10
sbaa(lp722
g0
(g14
g2
Ntp723
Rp724
(dp725
g18
I2
sg19
I10
sbaa(lp726
g0
(g87
g2
Ntp727
Rp728
(dp729
g18
I3
sg19
I10
sg91
(I1
I1
I1
I1
tp730
sbaa(lp731
g0
(g14
g2
Ntp732
Rp733
(dp734
g18
I4
sg19
I10
sbaa(lp735
g0
(g14
g2
Ntp736
Rp737
(dp738
g18
I5
sg19
I10
sbaa(lp739
g0
(g14
g2
Ntp740
Rp741
(dp742
g18
I6
sg19
I10
sbaa(lp743
g0
(g14
g2
Ntp744
Rp745
(dp746
g18
I7
sg19
I10
sbaa(lp747
g0
(g14
g2
Ntp748
Rp749
(dp750
g18
I8
sg19
I10
sbaa(lp751
g0
(g14
g2
Ntp752
Rp753
(dp754
g18
I9
sg19
I10
sbaa(lp755
g0
(g14
g2
Ntp756
Rp757
(dp758
g18
I10
sg19
I10
sbaa(lp759
g0
(g14
g2
Ntp760
Rp761
(dp762
g18
I11
sg19
I10
sbaa(lp763
g0
(g14
g2
Ntp764
Rp765
(dp766
g18
I12
sg19
I10
sbaa(lp767
g0
(g14
g2
Ntp768
Rp769
(dp770
g18
I13
sg19
I10
sbaaa(lp771
(lp772
g0
(g14
g2
Ntp773
Rp774
(dp775
g18
I0
sg19
I11
sbaa(lp776
g0
(g14
g2
Ntp777
Rp778
(dp779
g18
I1
sg19
I11
sbaa(lp780
g0
(g14
g2
Ntp781
Rp782
(dp783
g18
I2
sg19
I11
sbaa(lp784
g0
(g87
g2
Ntp785
Rp786
(dp787
g18
I3
sg19
I11
sg91
(I1
I1
I1
I1
tp788
sbaa(lp789
g0
(cInteractives
XSwitch
p790
g2
Ntp791
Rp792
(dp793
g18
I4
sg19
I11
sS'r'
p794
I0
sS'active'
p795
I01
sS'col'
p796
I0
sbaa(lp797
g0
(g14
g2
Ntp798
Rp799
(dp800
g18
I5
sg19
I11
sbaa(lp801
g0
(g14
g2
Ntp802
Rp803
(dp804
g18
I6
sg19
I11
sbaa(lp805
g0
(g14
g2
Ntp806
Rp807
(dp808
g18
I7
sg19
I11
sbaa(lp809
g0
(g14
g2
Ntp810
Rp811
(dp812
g18
I8
sg19
I11
sbaa(lp813
g0
(g14
g2
Ntp814
Rp815
(dp816
g18
I9
sg19
I11
sbaa(lp817
g0
(g14
g2
Ntp818
Rp819
(dp820
g18
I10
sg19
I11
sbaa(lp821
g0
(g14
g2
Ntp822
Rp823
(dp824
g18
I11
sg19
I11
sbaa(lp825
g0
(g14
g2
Ntp826
Rp827
(dp828
g18
I12
sg19
I11
sbaa(lp829
g0
(g14
g2
Ntp830
Rp831
(dp832
g18
I13
sg19
I11
sbaaa(lp833
(lp834
g0
(g14
g2
Ntp835
Rp836
(dp837
g18
I0
sg19
I12
sbaa(lp838
g0
(g14
g2
Ntp839
Rp840
(dp841
g18
I1
sg19
I12
sbaa(lp842
g0
(g14
g2
Ntp843
Rp844
(dp845
g18
I2
sg19
I12
sbaa(lp846
g0
(g87
g2
Ntp847
Rp848
(dp849
g18
I3
sg19
I12
sg91
(I1
I0
I1
I0
tp850
sbaa(lp851
g0
(g14
g2
Ntp852
Rp853
(dp854
g18
I4
sg19
I12
sbaa(lp855
g0
(g14
g2
Ntp856
Rp857
(dp858
g18
I5
sg19
I12
sbaa(lp859
g0
(g14
g2
Ntp860
Rp861
(dp862
g18
I6
sg19
I12
sbaa(lp863
g0
(g14
g2
Ntp864
Rp865
(dp866
g18
I7
sg19
I12
sbaa(lp867
g0
(g14
g2
Ntp868
Rp869
(dp870
g18
I8
sg19
I12
sbaa(lp871
g0
(g14
g2
Ntp872
Rp873
(dp874
g18
I9
sg19
I12
sbaa(lp875
g0
(g14
g2
Ntp876
Rp877
(dp878
g18
I10
sg19
I12
sbaa(lp879
g0
(g14
g2
Ntp880
Rp881
(dp882
g18
I11
sg19
I12
sbaa(lp883
g0
(g14
g2
Ntp884
Rp885
(dp886
g18
I12
sg19
I12
sbaa(lp887
g0
(g14
g2
Ntp888
Rp889
(dp890
g18
I13
sg19
I12
sbaaa(lp891
(lp892
g0
(g14
g2
Ntp893
Rp894
(dp895
g18
I0
sg19
I13
sbaa(lp896
g0
(g14
g2
Ntp897
Rp898
(dp899
g18
I1
sg19
I13
sbaa(lp900
g0
(g14
g2
Ntp901
Rp902
(dp903
g18
I2
sg19
I13
sbaa(lp904
g0
(g14
g2
Ntp905
Rp906
(dp907
g18
I3
sg19
I13
sbaa(lp908
g0
(g14
g2
Ntp909
Rp910
(dp911
g18
I4
sg19
I13
sbaa(lp912
g0
(g14
g2
Ntp913
Rp914
(dp915
g18
I5
sg19
I13
sbaa(lp916
g0
(g14
g2
Ntp917
Rp918
(dp919
g18
I6
sg19
I13
sbaa(lp920
g0
(g14
g2
Ntp921
Rp922
(dp923
g18
I7
sg19
I13
sbaa(lp924
g0
(g14
g2
Ntp925
Rp926
(dp927
g18
I8
sg19
I13
sbaa(lp928
g0
(g14
g2
Ntp929
Rp930
(dp931
g18
I9
sg19
I13
sbaa(lp932
g0
(g14
g2
Ntp933
Rp934
(dp935
g18
I10
sg19
I13
sbaa(lp936
g0
(g14
g2
Ntp937
Rp938
(dp939
g18
I11
sg19
I13
sbaa(lp940
g0
(g14
g2
Ntp941
Rp942
(dp943
g18
I12
sg19
I13
sbaa(lp944
g0
(g14
g2
Ntp945
Rp946
(dp947
g18
I13
sg19
I13
sbaaa(lp948
(lp949
g0
(g14
g2
Ntp950
Rp951
(dp952
g18
I0
sg19
I14
sbaa(lp953
g0
(g14
g2
Ntp954
Rp955
(dp956
g18
I1
sg19
I14
sbaa(lp957
g0
(g14
g2
Ntp958
Rp959
(dp960
g18
I2
sg19
I14
sbaa(lp961
g0
(g14
g2
Ntp962
Rp963
(dp964
g18
I3
sg19
I14
sbaa(lp965
g0
(g14
g2
Ntp966
Rp967
(dp968
g18
I4
sg19
I14
sbaa(lp969
g0
(g14
g2
Ntp970
Rp971
(dp972
g18
I5
sg19
I14
sbaa(lp973
g0
(g14
g2
Ntp974
Rp975
(dp976
g18
I6
sg19
I14
sbaa(lp977
g0
(g14
g2
Ntp978
Rp979
(dp980
g18
I7
sg19
I14
sbaa(lp981
g0
(cInteractives
XBlock
p982
g2
Ntp983
Rp984
(dp985
g18
I8
sg19
I14
sg795
I0
sg796
I0
sbaa(lp986
g0
(g14
g2
Ntp987
Rp988
(dp989
g18
I9
sg19
I14
sbaa(lp990
g0
(g14
g2
Ntp991
Rp992
(dp993
g18
I10
sg19
I14
sbaa(lp994
g0
(g14
g2
Ntp995
Rp996
(dp997
g18
I11
sg19
I14
sbaa(lp998
g0
(g14
g2
Ntp999
Rp1000
(dp1001
g18
I12
sg19
I14
sbaa(lp1002
g0
(g14
g2
Ntp1003
Rp1004
(dp1005
g18
I13
sg19
I14
sbaaa(lp1006
(lp1007
g0
(g14
g2
Ntp1008
Rp1009
(dp1010
g18
I0
sg19
I15
sbaa(lp1011
g0
(cTiles
Portal
p1012
g2
Ntp1013
Rp1014
(dp1015
g18
I1
sg19
I15
sS'i'
p1016
I01
sbaa(lp1017
g0
(g14
g2
Ntp1018
Rp1019
(dp1020
g18
I2
sg19
I15
sbaa(lp1021
g0
(g14
g2
Ntp1022
Rp1023
(dp1024
g18
I3
sg19
I15
sbaa(lp1025
g0
(g14
g2
Ntp1026
Rp1027
(dp1028
g18
I4
sg19
I15
sbaa(lp1029
g0
(cTiles
WoodPlatform
p1030
g2
Ntp1031
Rp1032
(dp1033
g18
I5
sg19
I15
sg1016
I2
sbaa(lp1034
g0
(g14
g2
Ntp1035
Rp1036
(dp1037
g18
I6
sg19
I15
sbaa(lp1038
g0
(g14
g2
Ntp1039
Rp1040
(dp1041
g18
I7
sg19
I15
sbaa(lp1042
g0
(g87
g2
Ntp1043
Rp1044
(dp1045
g18
I8
sg19
I15
sg91
(I0
I0
I2
I2
tp1046
sbaa(lp1047
g0
(g87
g2
Ntp1048
Rp1049
(dp1050
g18
I9
sg19
I15
sg91
(I2
I3
I0
I1
tp1051
sbaa(lp1052
g0
(g14
g2
Ntp1053
Rp1054
(dp1055
g18
I10
sg19
I15
sbaa(lp1056
g0
(g14
g2
Ntp1057
Rp1058
(dp1059
g18
I11
sg19
I15
sbaa(lp1060
g0
(g14
g2
Ntp1061
Rp1062
(dp1063
g18
I12
sg19
I15
sbaa(lp1064
g0
(g14
g2
Ntp1065
Rp1066
(dp1067
g18
I13
sg19
I15
sbaaa(lp1068
(lp1069
g0
(g14
g2
Ntp1070
Rp1071
(dp1072
g18
I0
sg19
I16
sbaa(lp1073
g0
(g14
g2
Ntp1074
Rp1075
(dp1076
g18
I1
sg19
I16
sbaa(lp1077
g0
(g14
g2
Ntp1078
Rp1079
(dp1080
g18
I2
sg19
I16
sbaa(lp1081
g0
(g14
g2
Ntp1082
Rp1083
(dp1084
g18
I3
sg19
I16
sbaa(lp1085
g0
(g14
g2
Ntp1086
Rp1087
(dp1088
g18
I4
sg19
I16
sbaa(lp1089
g0
(g1030
g2
Ntp1090
Rp1091
(dp1092
g18
I5
sg19
I16
sg1016
I1
sbaa(lp1093
g0
(g14
g2
Ntp1094
Rp1095
(dp1096
g18
I6
sg19
I16
sbaa(lp1097
g0
(g14
g2
Ntp1098
Rp1099
(dp1100
g18
I7
sg19
I16
sbaa(lp1101
g0
(g14
g2
Ntp1102
Rp1103
(dp1104
g18
I8
sg19
I16
sbaa(lp1105
g0
(g87
g2
Ntp1106
Rp1107
(dp1108
g18
I9
sg19
I16
sg91
(I1
I1
I1
I1
tp1109
sbaa(lp1110
g0
(g14
g2
Ntp1111
Rp1112
(dp1113
g18
I10
sg19
I16
sbaa(lp1114
g0
(g14
g2
Ntp1115
Rp1116
(dp1117
g18
I11
sg19
I16
sbaa(lp1118
g0
(g14
g2
Ntp1119
Rp1120
(dp1121
g18
I12
sg19
I16
sbaa(lp1122
g0
(g14
g2
Ntp1123
Rp1124
(dp1125
g18
I13
sg19
I16
sbaaa(lp1126
(lp1127
g0
(g14
g2
Ntp1128
Rp1129
(dp1130
g18
I0
sg19
I17
sbaa(lp1131
g0
(g14
g2
Ntp1132
Rp1133
(dp1134
g18
I1
sg19
I17
sbaa(lp1135
g0
(g14
g2
Ntp1136
Rp1137
(dp1138
g18
I2
sg19
I17
sbaa(lp1139
g0
(g14
g2
Ntp1140
Rp1141
(dp1142
g18
I3
sg19
I17
sbaa(lp1143
g0
(g14
g2
Ntp1144
Rp1145
(dp1146
g18
I4
sg19
I17
sbaa(lp1147
g0
(g14
g2
Ntp1148
Rp1149
(dp1150
g18
I5
sg19
I17
sbaa(lp1151
g0
(g14
g2
Ntp1152
Rp1153
(dp1154
g18
I6
sg19
I17
sbaa(lp1155
g0
(g14
g2
Ntp1156
Rp1157
(dp1158
g18
I7
sg19
I17
sbaa(lp1159
g0
(g14
g2
Ntp1160
Rp1161
(dp1162
g18
I8
sg19
I17
sbaa(lp1163
g0
(g87
g2
Ntp1164
Rp1165
(dp1166
g18
I9
sg19
I17
sg91
(I1
I1
I1
I1
tp1167
sbaa(lp1168
g0
(g14
g2
Ntp1169
Rp1170
(dp1171
g18
I10
sg19
I17
sbaa(lp1172
g0
(g14
g2
Ntp1173
Rp1174
(dp1175
g18
I11
sg19
I17
sbaa(lp1176
g0
(g14
g2
Ntp1177
Rp1178
(dp1179
g18
I12
sg19
I17
sbaa(lp1180
g0
(g14
g2
Ntp1181
Rp1182
(dp1183
g18
I13
sg19
I17
sbaaa(lp1184
(lp1185
g0
(g14
g2
Ntp1186
Rp1187
(dp1188
g18
I0
sg19
I18
sbaa(lp1189
g0
(g14
g2
Ntp1190
Rp1191
(dp1192
g18
I1
sg19
I18
sbaa(lp1193
g0
(g14
g2
Ntp1194
Rp1195
(dp1196
g18
I2
sg19
I18
sbaa(lp1197
g0
(g14
g2
Ntp1198
Rp1199
(dp1200
g18
I3
sg19
I18
sbaa(lp1201
g0
(g14
g2
Ntp1202
Rp1203
(dp1204
g18
I4
sg19
I18
sbaa(lp1205
g0
(g14
g2
Ntp1206
Rp1207
(dp1208
g18
I5
sg19
I18
sbaa(lp1209
g0
(g14
g2
Ntp1210
Rp1211
(dp1212
g18
I6
sg19
I18
sbaa(lp1213
g0
(g14
g2
Ntp1214
Rp1215
(dp1216
g18
I7
sg19
I18
sbaa(lp1217
g0
(g14
g2
Ntp1218
Rp1219
(dp1220
g18
I8
sg19
I18
sbaa(lp1221
g0
(g87
g2
Ntp1222
Rp1223
(dp1224
g18
I9
sg19
I18
sg91
(I1
I1
I1
I1
tp1225
sbaa(lp1226
g0
(g14
g2
Ntp1227
Rp1228
(dp1229
g18
I10
sg19
I18
sbaa(lp1230
g0
(g14
g2
Ntp1231
Rp1232
(dp1233
g18
I11
sg19
I18
sbaa(lp1234
g0
(g14
g2
Ntp1235
Rp1236
(dp1237
g18
I12
sg19
I18
sbaa(lp1238
g0
(g14
g2
Ntp1239
Rp1240
(dp1241
g18
I13
sg19
I18
sbaaasS'iscale'
p1242
I3
sb.