ccopy_reg
_reconstructor
p0
(cBoard
Board
p1
c__builtin__
object
p2
Ntp3
Rp4
(dp5
S'sy'
p6
I10
sS'sx'
p7
I15
sS'rscale'
p8
I64
sS'ascale'
p9
I4
sS't'
p10
(lp11
(lp12
(lp13
g0
(cTiles
Air
p14
g2
Ntp15
Rp16
(dp17
S'y'
p18
I0
sS'x'
p19
I0
sbaa(lp20
g0
(g14
g2
Ntp21
Rp22
(dp23
g18
I1
sg19
I0
sbaa(lp24
g0
(g14
g2
Ntp25
Rp26
(dp27
g18
I2
sg19
I0
sbaa(lp28
g0
(g14
g2
Ntp29
Rp30
(dp31
g18
I3
sg19
I0
sbaa(lp32
g0
(cTiles
Portal
p33
g2
Ntp34
Rp35
(dp36
g18
I4
sg19
I0
sS'i'
p37
I01
sbaa(lp38
g0
(g14
g2
Ntp39
Rp40
(dp41
g18
I5
sg19
I0
sbaa(lp42
g0
(g14
g2
Ntp43
Rp44
(dp45
g18
I6
sg19
I0
sbaa(lp46
g0
(cInteractives
XBlock
p47
g2
Ntp48
Rp49
(dp50
g18
I7
sg19
I0
sS'active'
p51
I0
sS'col'
p52
I0
sbaa(lp53
g0
(g14
g2
Ntp54
Rp55
(dp56
g18
I8
sg19
I0
sbag0
(cSnake
SnakeSeg
p57
g2
Ntp58
Rp59
(dp60
S'gshape'
p61
g0
(cSnake
Snake
p62
g2
Ntp63
Rp64
(dp65
S'iid'
p66
I0
sS'tiles'
p67
(lp68
g59
ag0
(g57
g2
Ntp69
Rp70
(dp71
g61
g64
sS'snake'
p72
g64
sS'fdir'
p73
I2
sg18
I8
sg19
I1
sS'bdir'
p74
I8
sbag0
(cSnake
SnakeHead
p75
g2
Ntp76
Rp77
(dp78
g18
I8
sg19
I2
sg61
g64
sg72
g64
sS'd'
p79
I1
sbasbsg72
g64
sg73
I2
sg18
I8
sg19
I0
sg74
I0
sbaa(lp80
g0
(cTiles
Dirt
p81
g2
Ntp82
Rp83
(dp84
g18
I9
sg19
I0
sS'corners'
p85
(I1
I1
I4
I4
tp86
sbaaa(lp87
(lp88
g0
(g14
g2
Ntp89
Rp90
(dp91
g18
I0
sg19
I1
sbaa(lp92
g0
(g14
g2
Ntp93
Rp94
(dp95
g18
I1
sg19
I1
sbaa(lp96
g0
(g14
g2
Ntp97
Rp98
(dp99
g18
I2
sg19
I1
sbaa(lp100
g0
(g14
g2
Ntp101
Rp102
(dp103
g18
I3
sg19
I1
sbaa(lp104
g0
(g14
g2
Ntp105
Rp106
(dp107
g18
I4
sg19
I1
sbaa(lp108
g0
(g14
g2
Ntp109
Rp110
(dp111
g18
I5
sg19
I1
sbaa(lp112
g0
(g14
g2
Ntp113
Rp114
(dp115
g18
I6
sg19
I1
sbaa(lp116
g0
(g14
g2
Ntp117
Rp118
(dp119
g18
I7
sg19
I1
sbag0
(cInteractives
Jelly
p120
g2
Ntp121
Rp122
(dp123
g18
I7
sg19
I1
sg61
g0
(cTiles
GravShape
p124
g2
Ntp125
Rp126
(dp127
g67
(lp128
g122
asbsg52
I0
sg85
(I0
I0
I0
I0
tp129
sbaa(lp130
g0
(g14
g2
Ntp131
Rp132
(dp133
g18
I8
sg19
I1
sbag70
aa(lp134
g0
(g81
g2
Ntp135
Rp136
(dp137
g18
I9
sg19
I1
sg85
(I1
I1
I4
I4
tp138
sbaaa(lp139
(lp140
g0
(g14
g2
Ntp141
Rp142
(dp143
g18
I0
sg19
I2
sbaa(lp144
g0
(g14
g2
Ntp145
Rp146
(dp147
g18
I1
sg19
I2
sbaa(lp148
g0
(g14
g2
Ntp149
Rp150
(dp151
g18
I2
sg19
I2
sbaa(lp152
g0
(g14
g2
Ntp153
Rp154
(dp155
g18
I3
sg19
I2
sbaa(lp156
g0
(g14
g2
Ntp157
Rp158
(dp159
g18
I4
sg19
I2
sbaa(lp160
g0
(g14
g2
Ntp161
Rp162
(dp163
g18
I5
sg19
I2
sbaa(lp164
g0
(g14
g2
Ntp165
Rp166
(dp167
g18
I6
sg19
I2
sbaa(lp168
g0
(g14
g2
Ntp169
Rp170
(dp171
g18
I7
sg19
I2
sbaa(lp172
g0
(g14
g2
Ntp173
Rp174
(dp175
g18
I8
sg19
I2
sbag77
aa(lp176
g0
(g81
g2
Ntp177
Rp178
(dp179
g18
I9
sg19
I2
sg85
(I1
I1
I4
I4
tp180
sbaaa(lp181
(lp182
g0
(g14
g2
Ntp183
Rp184
(dp185
g18
I0
sg19
I3
sbaa(lp186
g0
(g14
g2
Ntp187
Rp188
(dp189
g18
I1
sg19
I3
sbaa(lp190
g0
(g14
g2
Ntp191
Rp192
(dp193
g18
I2
sg19
I3
sbaa(lp194
g0
(g14
g2
Ntp195
Rp196
(dp197
g18
I3
sg19
I3
sbaa(lp198
g0
(g14
g2
Ntp199
Rp200
(dp201
g18
I4
sg19
I3
sbaa(lp202
g0
(g14
g2
Ntp203
Rp204
(dp205
g18
I5
sg19
I3
sbaa(lp206
g0
(g14
g2
Ntp207
Rp208
(dp209
g18
I6
sg19
I3
sbaa(lp210
g0
(g14
g2
Ntp211
Rp212
(dp213
g18
I7
sg19
I3
sbaa(lp214
g0
(g81
g2
Ntp215
Rp216
(dp217
g18
I8
sg19
I3
sg85
(I0
I1
I2
I4
tp218
sbaa(lp219
g0
(g81
g2
Ntp220
Rp221
(dp222
g18
I9
sg19
I3
sg85
(I3
I4
I4
I4
tp223
sbaaa(lp224
(lp225
g0
(g14
g2
Ntp226
Rp227
(dp228
g18
I0
sg19
I4
sbaa(lp229
g0
(g14
g2
Ntp230
Rp231
(dp232
g18
I1
sg19
I4
sbaa(lp233
g0
(g14
g2
Ntp234
Rp235
(dp236
g18
I2
sg19
I4
sbaa(lp237
g0
(g14
g2
Ntp238
Rp239
(dp240
g18
I3
sg19
I4
sbaa(lp241
g0
(g14
g2
Ntp242
Rp243
(dp244
g18
I4
sg19
I4
sbaa(lp245
g0
(g14
g2
Ntp246
Rp247
(dp248
g18
I5
sg19
I4
sbaa(lp249
g0
(g14
g2
Ntp250
Rp251
(dp252
g18
I6
sg19
I4
sbaa(lp253
g0
(g14
g2
Ntp254
Rp255
(dp256
g18
I7
sg19
I4
sbaa(lp257
g0
(g81
g2
Ntp258
Rp259
(dp260
g18
I8
sg19
I4
sg85
(I1
I0
I4
I2
tp261
sbaa(lp262
g0
(g81
g2
Ntp263
Rp264
(dp265
g18
I9
sg19
I4
sg85
(I4
I3
I4
I4
tp266
sbaaa(lp267
(lp268
g0
(g14
g2
Ntp269
Rp270
(dp271
g18
I0
sg19
I5
sbaa(lp272
g0
(g14
g2
Ntp273
Rp274
(dp275
g18
I1
sg19
I5
sbaa(lp276
g0
(g14
g2
Ntp277
Rp278
(dp279
g18
I2
sg19
I5
sbaa(lp280
g0
(g14
g2
Ntp281
Rp282
(dp283
g18
I3
sg19
I5
sbaa(lp284
g0
(g14
g2
Ntp285
Rp286
(dp287
g18
I4
sg19
I5
sbaa(lp288
g0
(g14
g2
Ntp289
Rp290
(dp291
g18
I5
sg19
I5
sbaa(lp292
g0
(g14
g2
Ntp293
Rp294
(dp295
g18
I6
sg19
I5
sbaa(lp296
g0
(g14
g2
Ntp297
Rp298
(dp299
g18
I7
sg19
I5
sbaa(lp300
g0
(g14
g2
Ntp301
Rp302
(dp303
g18
I8
sg19
I5
sbaa(lp304
g0
(g81
g2
Ntp305
Rp306
(dp307
g18
I9
sg19
I5
sg85
(I1
I1
I4
I4
tp308
sbaaa(lp309
(lp310
g0
(g14
g2
Ntp311
Rp312
(dp313
g18
I0
sg19
I6
sbaa(lp314
g0
(g14
g2
Ntp315
Rp316
(dp317
g18
I1
sg19
I6
sbaa(lp318
g0
(g14
g2
Ntp319
Rp320
(dp321
g18
I2
sg19
I6
sbaa(lp322
g0
(g14
g2
Ntp323
Rp324
(dp325
g18
I3
sg19
I6
sbaa(lp326
g0
(g14
g2
Ntp327
Rp328
(dp329
g18
I4
sg19
I6
sbaa(lp330
g0
(g14
g2
Ntp331
Rp332
(dp333
g18
I5
sg19
I6
sbaa(lp334
g0
(g14
g2
Ntp335
Rp336
(dp337
g18
I6
sg19
I6
sbaa(lp338
g0
(g14
g2
Ntp339
Rp340
(dp341
g18
I7
sg19
I6
sbaa(lp342
g0
(g14
g2
Ntp343
Rp344
(dp345
g18
I8
sg19
I6
sbaa(lp346
g0
(g81
g2
Ntp347
Rp348
(dp349
g18
I9
sg19
I6
sg85
(I1
I1
I4
I4
tp350
sbaaa(lp351
(lp352
g0
(g14
g2
Ntp353
Rp354
(dp355
g18
I0
sg19
I7
sbaa(lp356
g0
(g14
g2
Ntp357
Rp358
(dp359
g18
I1
sg19
I7
sbaa(lp360
g0
(g14
g2
Ntp361
Rp362
(dp363
g18
I2
sg19
I7
sbaa(lp364
g0
(g14
g2
Ntp365
Rp366
(dp367
g18
I3
sg19
I7
sbaa(lp368
g0
(g14
g2
Ntp369
Rp370
(dp371
g18
I4
sg19
I7
sbaa(lp372
g0
(g14
g2
Ntp373
Rp374
(dp375
g18
I5
sg19
I7
sbaa(lp376
g0
(g14
g2
Ntp377
Rp378
(dp379
g18
I6
sg19
I7
sbaa(lp380
g0
(g81
g2
Ntp381
Rp382
(dp383
g18
I7
sg19
I7
sg85
(I0
I1
I2
I4
tp384
sbaa(lp385
g0
(g81
g2
Ntp386
Rp387
(dp388
g18
I8
sg19
I7
sg85
(I2
I4
I2
I4
tp389
sbaa(lp390
g0
(g81
g2
Ntp391
Rp392
(dp393
g18
I9
sg19
I7
sg85
(I3
I4
I4
I4
tp394
sbaaa(lp395
(lp396
g0
(g14
g2
Ntp397
Rp398
(dp399
g18
I0
sg19
I8
sbaa(lp400
g0
(g14
g2
Ntp401
Rp402
(dp403
g18
I1
sg19
I8
sbaa(lp404
g0
(g14
g2
Ntp405
Rp406
(dp407
g18
I2
sg19
I8
sbaa(lp408
g0
(g14
g2
Ntp409
Rp410
(dp411
g18
I3
sg19
I8
sbaa(lp412
g0
(g14
g2
Ntp413
Rp414
(dp415
g18
I4
sg19
I8
sbaa(lp416
g0
(g14
g2
Ntp417
Rp418
(dp419
g18
I5
sg19
I8
sbaa(lp420
g0
(g14
g2
Ntp421
Rp422
(dp423
g18
I6
sg19
I8
sbaa(lp424
g0
(g81
g2
Ntp425
Rp426
(dp427
g18
I7
sg19
I8
sg85
(I1
I1
I4
I4
tp428
sbaa(lp429
g0
(g81
g2
Ntp430
Rp431
(dp432
g18
I8
sg19
I8
sg85
(I4
I4
I4
I4
tp433
sbaa(lp434
g0
(g81
g2
Ntp435
Rp436
(dp437
g18
I9
sg19
I8
sg85
(I4
I4
I4
I4
tp438
sbaaa(lp439
(lp440
g0
(g14
g2
Ntp441
Rp442
(dp443
g18
I0
sg19
I9
sbaa(lp444
g0
(g14
g2
Ntp445
Rp446
(dp447
g18
I1
sg19
I9
sbaa(lp448
g0
(g14
g2
Ntp449
Rp450
(dp451
g18
I2
sg19
I9
sbaa(lp452
g0
(g14
g2
Ntp453
Rp454
(dp455
g18
I3
sg19
I9
sbaa(lp456
g0
(g14
g2
Ntp457
Rp458
(dp459
g18
I4
sg19
I9
sbaa(lp460
g0
(g14
g2
Ntp461
Rp462
(dp463
g18
I5
sg19
I9
sbaa(lp464
g0
(g14
g2
Ntp465
Rp466
(dp467
g18
I6
sg19
I9
sbaa(lp468
g0
(g81
g2
Ntp469
Rp470
(dp471
g18
I7
sg19
I9
sg85
(I1
I0
I4
I2
tp472
sbaa(lp473
g0
(g81
g2
Ntp474
Rp475
(dp476
g18
I8
sg19
I9
sg85
(I4
I2
I4
I2
tp477
sbaa(lp478
g0
(g81
g2
Ntp479
Rp480
(dp481
g18
I9
sg19
I9
sg85
(I4
I3
I4
I4
tp482
sbaaa(lp483
(lp484
g0
(g14
g2
Ntp485
Rp486
(dp487
g18
I0
sg19
I10
sbaa(lp488
g0
(g14
g2
Ntp489
Rp490
(dp491
g18
I1
sg19
I10
sbaa(lp492
g0
(g14
g2
Ntp493
Rp494
(dp495
g18
I2
sg19
I10
sbaa(lp496
g0
(g14
g2
Ntp497
Rp498
(dp499
g18
I3
sg19
I10
sbaa(lp500
g0
(g14
g2
Ntp501
Rp502
(dp503
g18
I4
sg19
I10
sbaa(lp504
g0
(g14
g2
Ntp505
Rp506
(dp507
g18
I5
sg19
I10
sbaa(lp508
g0
(g14
g2
Ntp509
Rp510
(dp511
g18
I6
sg19
I10
sbaa(lp512
g0
(g14
g2
Ntp513
Rp514
(dp515
g18
I7
sg19
I10
sbaa(lp516
g0
(g14
g2
Ntp517
Rp518
(dp519
g18
I8
sg19
I10
sbaa(lp520
g0
(g81
g2
Ntp521
Rp522
(dp523
g18
I9
sg19
I10
sg85
(I1
I1
I4
I4
tp524
sbaaa(lp525
(lp526
g0
(g14
g2
Ntp527
Rp528
(dp529
g18
I0
sg19
I11
sbaa(lp530
g0
(g14
g2
Ntp531
Rp532
(dp533
g18
I1
sg19
I11
sbaa(lp534
g0
(g14
g2
Ntp535
Rp536
(dp537
g18
I2
sg19
I11
sbaa(lp538
g0
(g14
g2
Ntp539
Rp540
(dp541
g18
I3
sg19
I11
sbaa(lp542
g0
(g14
g2
Ntp543
Rp544
(dp545
g18
I4
sg19
I11
sbaa(lp546
g0
(g14
g2
Ntp547
Rp548
(dp549
g18
I5
sg19
I11
sbaa(lp550
g0
(g14
g2
Ntp551
Rp552
(dp553
g18
I6
sg19
I11
sbaa(lp554
g0
(g14
g2
Ntp555
Rp556
(dp557
g18
I7
sg19
I11
sbaa(lp558
g0
(g14
g2
Ntp559
Rp560
(dp561
g18
I8
sg19
I11
sbaa(lp562
g0
(g81
g2
Ntp563
Rp564
(dp565
g18
I9
sg19
I11
sg85
(I1
I1
I4
I4
tp566
sbaaa(lp567
(lp568
g0
(g14
g2
Ntp569
Rp570
(dp571
g18
I0
sg19
I12
sbaa(lp572
g0
(g14
g2
Ntp573
Rp574
(dp575
g18
I1
sg19
I12
sbaa(lp576
g0
(g14
g2
Ntp577
Rp578
(dp579
g18
I2
sg19
I12
sbaa(lp580
g0
(g14
g2
Ntp581
Rp582
(dp583
g18
I3
sg19
I12
sbaa(lp584
g0
(g14
g2
Ntp585
Rp586
(dp587
g18
I4
sg19
I12
sbag0
(g120
g2
Ntp588
Rp589
(dp590
g18
I4
sg19
I12
sg61
g0
(g124
g2
Ntp591
Rp592
(dp593
g67
(lp594
g589
asbsg52
I0
sg85
(I0
I0
I0
I0
tp595
sbaa(lp596
g0
(g81
g2
Ntp597
Rp598
(dp599
g18
I5
sg19
I12
sg85
(I0
I0
I2
I2
tp600
sbaa(lp601
g0
(g81
g2
Ntp602
Rp603
(dp604
g18
I6
sg19
I12
sg85
(I2
I2
I2
I2
tp605
sbaa(lp606
g0
(g81
g2
Ntp607
Rp608
(dp609
g18
I7
sg19
I12
sg85
(I2
I2
I2
I2
tp610
sbaa(lp611
g0
(g81
g2
Ntp612
Rp613
(dp614
g18
I8
sg19
I12
sg85
(I2
I2
I2
I2
tp615
sbaa(lp616
g0
(g81
g2
Ntp617
Rp618
(dp619
g18
I9
sg19
I12
sg85
(I3
I2
I4
I2
tp620
sbaaa(lp621
(lp622
g0
(g14
g2
Ntp623
Rp624
(dp625
g18
I0
sg19
I13
sbaa(lp626
g0
(g14
g2
Ntp627
Rp628
(dp629
g18
I1
sg19
I13
sbaa(lp630
g0
(g14
g2
Ntp631
Rp632
(dp633
g18
I2
sg19
I13
sbaa(lp634
g0
(g14
g2
Ntp635
Rp636
(dp637
g18
I3
sg19
I13
sbaa(lp638
g0
(g14
g2
Ntp639
Rp640
(dp641
g18
I4
sg19
I13
sbaa(lp642
g0
(g14
g2
Ntp643
Rp644
(dp645
g18
I5
sg19
I13
sbaa(lp646
g0
(g14
g2
Ntp647
Rp648
(dp649
g18
I6
sg19
I13
sbaa(lp650
g0
(g14
g2
Ntp651
Rp652
(dp653
g18
I7
sg19
I13
sbaa(lp654
g0
(g14
g2
Ntp655
Rp656
(dp657
g18
I8
sg19
I13
sbaa(lp658
g0
(cTiles
Spikes
p659
g2
Ntp660
Rp661
(dp662
g18
I9
sg19
I13
sg37
I10
sbaaa(lp663
(lp664
g0
(g14
g2
Ntp665
Rp666
(dp667
g18
I0
sg19
I14
sbaa(lp668
g0
(g14
g2
Ntp669
Rp670
(dp671
g18
I1
sg19
I14
sbaa(lp672
g0
(g14
g2
Ntp673
Rp674
(dp675
g18
I2
sg19
I14
sbaa(lp676
g0
(g14
g2
Ntp677
Rp678
(dp679
g18
I3
sg19
I14
sbaa(lp680
g0
(cInteractives
XSwitch
p681
g2
Ntp682
Rp683
(dp684
g18
I4
sg19
I14
sS'r'
p685
I2
sg51
I01
sg52
I0
sbaa(lp686
g0
(g81
g2
Ntp687
Rp688
(dp689
g18
I5
sg19
I14
sg85
(I0
I1
I2
I4
tp690
sbaa(lp691
g0
(g81
g2
Ntp692
Rp693
(dp694
g18
I6
sg19
I14
sg85
(I2
I4
I2
I4
tp695
sbaa(lp696
g0
(g81
g2
Ntp697
Rp698
(dp699
g18
I7
sg19
I14
sg85
(I2
I4
I2
I4
tp700
sbaa(lp701
g0
(g81
g2
Ntp702
Rp703
(dp704
g18
I8
sg19
I14
sg85
(I2
I4
I2
I4
tp705
sbaa(lp706
g0
(g81
g2
Ntp707
Rp708
(dp709
g18
I9
sg19
I14
sg85
(I2
I4
I2
I4
tp710
sbaaasS'iscale'
p711
I3
sb.