ccopy_reg
_reconstructor
p0
(cBoard
Board
p1
c__builtin__
object
p2
Ntp3
Rp4
(dp5
S'sy'
p6
I12
sS'sx'
p7
I12
sS'rscale'
p8
I64
sS'ascale'
p9
I4
sS't'
p10
(lp11
(lp12
(lp13
g0
(cTiles
Air
p14
g2
Ntp15
Rp16
(dp17
S'y'
p18
I0
sS'x'
p19
I0
sbaa(lp20
g0
(g14
g2
Ntp21
Rp22
(dp23
g18
I1
sg19
I0
sbaa(lp24
g0
(cTiles
Portal
p25
g2
Ntp26
Rp27
(dp28
g18
I2
sg19
I0
sS'i'
p29
I01
sbaa(lp30
g0
(g14
g2
Ntp31
Rp32
(dp33
g18
I3
sg19
I0
sbaa(lp34
g0
(cTiles
Dirt
p35
g2
Ntp36
Rp37
(dp38
g18
I4
sg19
I0
sS'corners'
p39
(I1
I0
I1
I0
tp40
sbaa(lp41
g0
(g14
g2
Ntp42
Rp43
(dp44
g18
I5
sg19
I0
sbaa(lp45
g0
(g14
g2
Ntp46
Rp47
(dp48
g18
I6
sg19
I0
sbaa(lp49
g0
(g14
g2
Ntp50
Rp51
(dp52
g18
I7
sg19
I0
sbaa(lp53
g0
(g14
g2
Ntp54
Rp55
(dp56
g18
I8
sg19
I0
sbag0
(cSnake
SnakeSeg
p57
g2
Ntp58
Rp59
(dp60
S'gshape'
p61
g0
(cSnake
Snake
p62
g2
Ntp63
Rp64
(dp65
S'iid'
p66
I2
sS'tiles'
p67
(lp68
g0
(g57
g2
Ntp69
Rp70
(dp71
g61
g64
sS'snake'
p72
g64
sS'fdir'
p73
I1
sg18
I10
sg19
I0
sS'bdir'
p74
I0
sbag0
(g57
g2
Ntp75
Rp76
(dp77
g61
g64
sg72
g64
sg73
I1
sg18
I9
sg19
I0
sg74
I4
sbag59
ag0
(cSnake
SnakeHead
p78
g2
Ntp79
Rp80
(dp81
g18
I8
sg19
I1
sg61
g64
sg72
g64
sS'd'
p82
I1
sbasbsg72
g64
sg73
I2
sg18
I8
sg19
I0
sg74
I4
sbaa(lp83
g0
(g14
g2
Ntp84
Rp85
(dp86
g18
I9
sg19
I0
sbag76
aa(lp87
g0
(g14
g2
Ntp88
Rp89
(dp90
g18
I10
sg19
I0
sbag70
aa(lp91
g0
(g35
g2
Ntp92
Rp93
(dp94
g18
I11
sg19
I0
sg39
(I1
I0
I4
I2
tp95
sbaaa(lp96
(lp97
g0
(g14
g2
Ntp98
Rp99
(dp100
g18
I0
sg19
I1
sbaa(lp101
g0
(g14
g2
Ntp102
Rp103
(dp104
g18
I1
sg19
I1
sbaa(lp105
g0
(g14
g2
Ntp106
Rp107
(dp108
g18
I2
sg19
I1
sbaa(lp109
g0
(g14
g2
Ntp110
Rp111
(dp112
g18
I3
sg19
I1
sbaa(lp113
g0
(g14
g2
Ntp114
Rp115
(dp116
g18
I4
sg19
I1
sbaa(lp117
g0
(g14
g2
Ntp118
Rp119
(dp120
g18
I5
sg19
I1
sbaa(lp121
g0
(g14
g2
Ntp122
Rp123
(dp124
g18
I6
sg19
I1
sbaa(lp125
g0
(g14
g2
Ntp126
Rp127
(dp128
g18
I7
sg19
I1
sbaa(lp129
g0
(g14
g2
Ntp130
Rp131
(dp132
g18
I8
sg19
I1
sbag80
aa(lp133
g0
(g14
g2
Ntp134
Rp135
(dp136
g18
I9
sg19
I1
sbaa(lp137
g0
(g14
g2
Ntp138
Rp139
(dp140
g18
I10
sg19
I1
sbaa(lp141
g0
(cTiles
Spikes
p142
g2
Ntp143
Rp144
(dp145
g18
I11
sg19
I1
sg29
I10
sbaaa(lp146
(lp147
g0
(g14
g2
Ntp148
Rp149
(dp150
g18
I0
sg19
I2
sbaa(lp151
g0
(g14
g2
Ntp152
Rp153
(dp154
g18
I1
sg19
I2
sbaa(lp155
g0
(g14
g2
Ntp156
Rp157
(dp158
g18
I2
sg19
I2
sbaa(lp159
g0
(g14
g2
Ntp160
Rp161
(dp162
g18
I3
sg19
I2
sbaa(lp163
g0
(g14
g2
Ntp164
Rp165
(dp166
g18
I4
sg19
I2
sbaa(lp167
g0
(g14
g2
Ntp168
Rp169
(dp170
g18
I5
sg19
I2
sbaa(lp171
g0
(g14
g2
Ntp172
Rp173
(dp174
g18
I6
sg19
I2
sbaa(lp175
g0
(g14
g2
Ntp176
Rp177
(dp178
g18
I7
sg19
I2
sbaa(lp179
g0
(g14
g2
Ntp180
Rp181
(dp182
g18
I8
sg19
I2
sbaa(lp183
g0
(g14
g2
Ntp184
Rp185
(dp186
g18
I9
sg19
I2
sbaa(lp187
g0
(g14
g2
Ntp188
Rp189
(dp190
g18
I10
sg19
I2
sbag0
(cSnake
IronSnakeSeg
p191
g2
Ntp192
Rp193
(dp194
g61
g0
(cSnake
IronSnake
p195
g2
Ntp196
Rp197
(dp198
g66
I0
sg67
(lp199
g193
ag0
(g191
g2
Ntp200
Rp201
(dp202
g61
g197
sg72
g197
sg73
I2
sg18
I10
sg19
I3
sg74
I8
sbag0
(g191
g2
Ntp203
Rp204
(dp205
g61
g197
sg72
g197
sg73
I2
sg18
I10
sg19
I4
sg74
I8
sbag0
(cSnake
IronSnakeHead
p206
g2
Ntp207
Rp208
(dp209
g18
I10
sg19
I5
sg61
g197
sg72
g197
sg82
I1
sbasbsg72
g197
sg73
I2
sg18
I10
sg19
I2
sg74
I0
sbaa(lp210
g0
(g142
g2
Ntp211
Rp212
(dp213
g18
I11
sg19
I2
sg29
I10
sbaaa(lp214
(lp215
g0
(g14
g2
Ntp216
Rp217
(dp218
g18
I0
sg19
I3
sbaa(lp219
g0
(g14
g2
Ntp220
Rp221
(dp222
g18
I1
sg19
I3
sbaa(lp223
g0
(g14
g2
Ntp224
Rp225
(dp226
g18
I2
sg19
I3
sbaa(lp227
g0
(g14
g2
Ntp228
Rp229
(dp230
g18
I3
sg19
I3
sbaa(lp231
g0
(g14
g2
Ntp232
Rp233
(dp234
g18
I4
sg19
I3
sbaa(lp235
g0
(g14
g2
Ntp236
Rp237
(dp238
g18
I5
sg19
I3
sbaa(lp239
g0
(g14
g2
Ntp240
Rp241
(dp242
g18
I6
sg19
I3
sbaa(lp243
g0
(g14
g2
Ntp244
Rp245
(dp246
g18
I7
sg19
I3
sbaa(lp247
g0
(g14
g2
Ntp248
Rp249
(dp250
g18
I8
sg19
I3
sbaa(lp251
g0
(g14
g2
Ntp252
Rp253
(dp254
g18
I9
sg19
I3
sbaa(lp255
g0
(g14
g2
Ntp256
Rp257
(dp258
g18
I10
sg19
I3
sbag201
aa(lp259
g0
(g142
g2
Ntp260
Rp261
(dp262
g18
I11
sg19
I3
sg29
I10
sbaaa(lp263
(lp264
g0
(g14
g2
Ntp265
Rp266
(dp267
g18
I0
sg19
I4
sbaa(lp268
g0
(g14
g2
Ntp269
Rp270
(dp271
g18
I1
sg19
I4
sbaa(lp272
g0
(g35
g2
Ntp273
Rp274
(dp275
g18
I2
sg19
I4
sg39
(I0
I1
I2
I3
tp276
sbaa(lp277
g0
(g35
g2
Ntp278
Rp279
(dp280
g18
I3
sg19
I4
sg39
(I2
I2
I2
I2
tp281
sbaa(lp282
g0
(g35
g2
Ntp283
Rp284
(dp285
g18
I4
sg19
I4
sg39
(I2
I3
I2
I4
tp286
sbaa(lp287
g0
(g35
g2
Ntp288
Rp289
(dp290
g18
I5
sg19
I4
sg39
(I2
I4
I0
I1
tp291
sbaa(lp292
g0
(g14
g2
Ntp293
Rp294
(dp295
g18
I6
sg19
I4
sbaa(lp296
g0
(g14
g2
Ntp297
Rp298
(dp299
g18
I7
sg19
I4
sbaa(lp300
g0
(g14
g2
Ntp301
Rp302
(dp303
g18
I8
sg19
I4
sbaa(lp304
g0
(g14
g2
Ntp305
Rp306
(dp307
g18
I9
sg19
I4
sbaa(lp308
g0
(g14
g2
Ntp309
Rp310
(dp311
g18
I10
sg19
I4
sbag204
aa(lp312
g0
(g142
g2
Ntp313
Rp314
(dp315
g18
I11
sg19
I4
sg29
I10
sbaaa(lp316
(lp317
g0
(g14
g2
Ntp318
Rp319
(dp320
g18
I0
sg19
I5
sbaa(lp321
g0
(g14
g2
Ntp322
Rp323
(dp324
g18
I1
sg19
I5
sbaa(lp325
g0
(g35
g2
Ntp326
Rp327
(dp328
g18
I2
sg19
I5
sg39
(I1
I1
I1
I1
tp329
sbaa(lp330
g0
(g14
g2
Ntp331
Rp332
(dp333
g18
I3
sg19
I5
sbag0
(cTiles
Block
p334
g2
Ntp335
Rp336
(dp337
g18
I3
sg19
I5
sg61
g0
(cTiles
BGravShape
p338
g2
Ntp339
Rp340
(dp341
g66
I0
sg67
(lp342
g0
(g334
g2
Ntp343
Rp344
(dp345
g18
I6
sg19
I5
sg61
g340
sg39
(I0
I0
I0
I0
tp346
sbag336
asbsg39
(I0
I0
I0
I0
tp347
sbaa(lp348
g0
(g35
g2
Ntp349
Rp350
(dp351
g18
I4
sg19
I5
sg39
(I1
I0
I4
I2
tp352
sbaa(lp353
g0
(g35
g2
Ntp354
Rp355
(dp356
g18
I5
sg19
I5
sg39
(I4
I3
I1
I1
tp357
sbaa(lp358
g0
(g14
g2
Ntp359
Rp360
(dp361
g18
I6
sg19
I5
sbag344
aa(lp362
g0
(g14
g2
Ntp363
Rp364
(dp365
g18
I7
sg19
I5
sbaa(lp366
g0
(g14
g2
Ntp367
Rp368
(dp369
g18
I8
sg19
I5
sbaa(lp370
g0
(g14
g2
Ntp371
Rp372
(dp373
g18
I9
sg19
I5
sbaa(lp374
g0
(g14
g2
Ntp375
Rp376
(dp377
g18
I10
sg19
I5
sbag208
aa(lp378
g0
(g142
g2
Ntp379
Rp380
(dp381
g18
I11
sg19
I5
sg29
I10
sbaaa(lp382
(lp383
g0
(g35
g2
Ntp384
Rp385
(dp386
g18
I0
sg19
I6
sg39
(I2
I4
I2
I4
tp387
sbaa(lp388
g0
(g35
g2
Ntp389
Rp390
(dp391
g18
I1
sg19
I6
sg39
(I2
I4
I2
I4
tp392
sbaa(lp393
g0
(g35
g2
Ntp394
Rp395
(dp396
g18
I2
sg19
I6
sg39
(I3
I4
I1
I1
tp397
sbaa(lp398
g0
(g14
g2
Ntp399
Rp400
(dp401
g18
I3
sg19
I6
sbaa(lp402
g0
(g14
g2
Ntp403
Rp404
(dp405
g18
I4
sg19
I6
sbaa(lp406
g0
(g35
g2
Ntp407
Rp408
(dp409
g18
I5
sg19
I6
sg39
(I1
I1
I1
I1
tp410
sbaa(lp411
g0
(g14
g2
Ntp412
Rp413
(dp414
g18
I6
sg19
I6
sbaa(lp415
g0
(g14
g2
Ntp416
Rp417
(dp418
g18
I7
sg19
I6
sbaa(lp419
g0
(g14
g2
Ntp420
Rp421
(dp422
g18
I8
sg19
I6
sbaa(lp423
g0
(g14
g2
Ntp424
Rp425
(dp426
g18
I9
sg19
I6
sbaa(lp427
g0
(g14
g2
Ntp428
Rp429
(dp430
g18
I10
sg19
I6
sbaa(lp431
g0
(g142
g2
Ntp432
Rp433
(dp434
g18
I11
sg19
I6
sg29
I10
sbaaa(lp435
(lp436
g0
(g35
g2
Ntp437
Rp438
(dp439
g18
I0
sg19
I7
sg39
(I4
I2
I4
I2
tp440
sbaa(lp441
g0
(g35
g2
Ntp442
Rp443
(dp444
g18
I1
sg19
I7
sg39
(I4
I2
I4
I2
tp445
sbaa(lp446
g0
(g35
g2
Ntp447
Rp448
(dp449
g18
I2
sg19
I7
sg39
(I4
I3
I3
I3
tp450
sbaa(lp451
g0
(g35
g2
Ntp452
Rp453
(dp454
g18
I3
sg19
I7
sg39
(I2
I2
I0
I0
tp455
sbaa(lp456
g0
(g14
g2
Ntp457
Rp458
(dp459
g18
I4
sg19
I7
sbaa(lp460
g0
(g35
g2
Ntp461
Rp462
(dp463
g18
I5
sg19
I7
sg39
(I1
I1
I1
I1
tp464
sbaa(lp465
g0
(g14
g2
Ntp466
Rp467
(dp468
g18
I6
sg19
I7
sbaa(lp469
g0
(g14
g2
Ntp470
Rp471
(dp472
g18
I7
sg19
I7
sbaa(lp473
g0
(g14
g2
Ntp474
Rp475
(dp476
g18
I8
sg19
I7
sbaa(lp477
g0
(g14
g2
Ntp478
Rp479
(dp480
g18
I9
sg19
I7
sbaa(lp481
g0
(g14
g2
Ntp482
Rp483
(dp484
g18
I10
sg19
I7
sbaa(lp485
g0
(g142
g2
Ntp486
Rp487
(dp488
g18
I11
sg19
I7
sg29
I10
sbaaa(lp489
(lp490
g0
(cTiles
Fruit
p491
g2
Ntp492
Rp493
(dp494
g18
I0
sg19
I8
sg66
I1
sbaa(lp495
g0
(g14
g2
Ntp496
Rp497
(dp498
g18
I1
sg19
I8
sbaa(lp499
g0
(g35
g2
Ntp500
Rp501
(dp502
g18
I2
sg19
I8
sg39
(I1
I0
I1
I0
tp503
sbaa(lp504
g0
(g14
g2
Ntp505
Rp506
(dp507
g18
I3
sg19
I8
sbaa(lp508
g0
(g14
g2
Ntp509
Rp510
(dp511
g18
I4
sg19
I8
sbaa(lp512
g0
(g35
g2
Ntp513
Rp514
(dp515
g18
I5
sg19
I8
sg39
(I1
I1
I1
I1
tp516
sbaa(lp517
g0
(g14
g2
Ntp518
Rp519
(dp520
g18
I6
sg19
I8
sbaa(lp521
g0
(g14
g2
Ntp522
Rp523
(dp524
g18
I7
sg19
I8
sbaa(lp525
g0
(g14
g2
Ntp526
Rp527
(dp528
g18
I8
sg19
I8
sbaa(lp529
g0
(g14
g2
Ntp530
Rp531
(dp532
g18
I9
sg19
I8
sbaa(lp533
g0
(g14
g2
Ntp534
Rp535
(dp536
g18
I10
sg19
I8
sbaa(lp537
g0
(g142
g2
Ntp538
Rp539
(dp540
g18
I11
sg19
I8
sg29
I10
sbaaa(lp541
(lp542
g0
(g14
g2
Ntp543
Rp544
(dp545
g18
I0
sg19
I9
sbaa(lp546
g0
(g14
g2
Ntp547
Rp548
(dp549
g18
I1
sg19
I9
sbaa(lp550
g0
(g14
g2
Ntp551
Rp552
(dp553
g18
I2
sg19
I9
sbaa(lp554
g0
(g14
g2
Ntp555
Rp556
(dp557
g18
I3
sg19
I9
sbaa(lp558
g0
(g35
g2
Ntp559
Rp560
(dp561
g18
I4
sg19
I9
sg39
(I0
I0
I2
I2
tp562
sbaa(lp563
g0
(g35
g2
Ntp564
Rp565
(dp566
g18
I5
sg19
I9
sg39
(I3
I2
I1
I0
tp567
sbaa(lp568
g0
(g14
g2
Ntp569
Rp570
(dp571
g18
I6
sg19
I9
sbaa(lp572
g0
(g14
g2
Ntp573
Rp574
(dp575
g18
I7
sg19
I9
sbaa(lp576
g0
(g14
g2
Ntp577
Rp578
(dp579
g18
I8
sg19
I9
sbaa(lp580
g0
(g14
g2
Ntp581
Rp582
(dp583
g18
I9
sg19
I9
sbaa(lp584
g0
(g14
g2
Ntp585
Rp586
(dp587
g18
I10
sg19
I9
sbaa(lp588
g0
(g142
g2
Ntp589
Rp590
(dp591
g18
I11
sg19
I9
sg29
I10
sbaaa(lp592
(lp593
g0
(g14
g2
Ntp594
Rp595
(dp596
g18
I0
sg19
I10
sbaa(lp597
g0
(g14
g2
Ntp598
Rp599
(dp600
g18
I1
sg19
I10
sbaa(lp601
g0
(g14
g2
Ntp602
Rp603
(dp604
g18
I2
sg19
I10
sbaa(lp605
g0
(g14
g2
Ntp606
Rp607
(dp608
g18
I3
sg19
I10
sbaa(lp609
g0
(g14
g2
Ntp610
Rp611
(dp612
g18
I4
sg19
I10
sbaa(lp613
g0
(g14
g2
Ntp614
Rp615
(dp616
g18
I5
sg19
I10
sbaa(lp617
g0
(g14
g2
Ntp618
Rp619
(dp620
g18
I6
sg19
I10
sbaa(lp621
g0
(g14
g2
Ntp622
Rp623
(dp624
g18
I7
sg19
I10
sbaa(lp625
g0
(g14
g2
Ntp626
Rp627
(dp628
g18
I8
sg19
I10
sbaa(lp629
g0
(g14
g2
Ntp630
Rp631
(dp632
g18
I9
sg19
I10
sbaa(lp633
g0
(g14
g2
Ntp634
Rp635
(dp636
g18
I10
sg19
I10
sbaa(lp637
g0
(g142
g2
Ntp638
Rp639
(dp640
g18
I11
sg19
I10
sg29
I10
sbaaa(lp641
(lp642
g0
(g14
g2
Ntp643
Rp644
(dp645
g18
I0
sg19
I11
sbaa(lp646
g0
(g14
g2
Ntp647
Rp648
(dp649
g18
I1
sg19
I11
sbaa(lp650
g0
(g14
g2
Ntp651
Rp652
(dp653
g18
I2
sg19
I11
sbaa(lp654
g0
(g14
g2
Ntp655
Rp656
(dp657
g18
I3
sg19
I11
sbaa(lp658
g0
(g14
g2
Ntp659
Rp660
(dp661
g18
I4
sg19
I11
sbaa(lp662
g0
(g14
g2
Ntp663
Rp664
(dp665
g18
I5
sg19
I11
sbaa(lp666
g0
(g14
g2
Ntp667
Rp668
(dp669
g18
I6
sg19
I11
sbaa(lp670
g0
(g14
g2
Ntp671
Rp672
(dp673
g18
I7
sg19
I11
sbaa(lp674
g0
(g14
g2
Ntp675
Rp676
(dp677
g18
I8
sg19
I11
sbaa(lp678
g0
(g14
g2
Ntp679
Rp680
(dp681
g18
I9
sg19
I11
sbaa(lp682
g0
(g14
g2
Ntp683
Rp684
(dp685
g18
I10
sg19
I11
sbaa(lp686
g0
(g35
g2
Ntp687
Rp688
(dp689
g18
I11
sg19
I11
sg39
(I0
I1
I2
I4
tp690
sbaaasS'iscale'
p691
I3
sb.