ccopy_reg
_reconstructor
p0
(cBoard
Board
p1
c__builtin__
object
p2
Ntp3
Rp4
(dp5
S'biome'
p6
cBiomes
Special
p7
sS'sy'
p8
I12
sS'sx'
p9
I16
sS'rscale'
p10
I64
sS'ascale'
p11
I4
sS't'
p12
(lp13
(lp14
(lp15
g0
(cTiles
Hex
p16
g2
Ntp17
Rp18
(dp19
S'y'
p20
I0
sS'x'
p21
I0
sS'col'
p22
I1
sS'corners'
p23
(I4
I4
I1
I1
tp24
sbaa(lp25
g0
(g16
g2
Ntp26
Rp27
(dp28
g20
I1
sg21
I0
sg22
I2
sg23
(I1
I0
I4
I2
tp29
sbaa(lp30
g0
(g16
g2
Ntp31
Rp32
(dp33
g20
I2
sg21
I0
sg22
I2
sg23
(I4
I2
I4
I2
tp34
sbaa(lp35
g0
(g16
g2
Ntp36
Rp37
(dp38
g20
I3
sg21
I0
sg22
I2
sg23
(I4
I2
I4
I2
tp39
sbaa(lp40
g0
(g16
g2
Ntp41
Rp42
(dp43
g20
I4
sg21
I0
sg22
I2
sg23
(I4
I2
I4
I2
tp44
sbaa(lp45
g0
(g16
g2
Ntp46
Rp47
(dp48
g20
I5
sg21
I0
sg22
I2
sg23
(I4
I2
I4
I2
tp49
sbaa(lp50
g0
(g16
g2
Ntp51
Rp52
(dp53
g20
I6
sg21
I0
sg22
I2
sg23
(I4
I2
I4
I2
tp54
sbaa(lp55
g0
(g16
g2
Ntp56
Rp57
(dp58
g20
I7
sg21
I0
sg22
I2
sg23
(I4
I2
I4
I2
tp59
sbaa(lp60
g0
(g16
g2
Ntp61
Rp62
(dp63
g20
I8
sg21
I0
sg22
I2
sg23
(I4
I2
I1
I0
tp64
sbaa(lp65
g0
(cTiles
OnceGoalBlock
p66
g2
Ntp67
Rp68
(dp69
g20
I9
sg21
I0
sS'r'
p70
I1
sbaa(lp71
g0
(g16
g2
Ntp72
Rp73
(dp74
g20
I10
sg21
I0
sg22
I2
sg23
(I1
I0
I4
I2
tp75
sbaa(lp76
g0
(g16
g2
Ntp77
Rp78
(dp79
g20
I11
sg21
I0
sg22
I2
sg23
(I4
I2
I4
I2
tp80
sbaaa(lp81
(lp82
g0
(g16
g2
Ntp83
Rp84
(dp85
g20
I0
sg21
I1
sg22
I1
sg23
(I4
I4
I1
I1
tp86
sbaa(lp87
a(lp88
a(lp89
a(lp90
a(lp91
a(lp92
a(lp93
a(lp94
a(lp95
a(lp96
a(lp97
aa(lp98
(lp99
g0
(g16
g2
Ntp100
Rp101
(dp102
g20
I0
sg21
I2
sg22
I1
sg23
(I4
I4
I1
I1
tp103
sbaa(lp104
a(lp105
a(lp106
a(lp107
a(lp108
a(lp109
a(lp110
a(lp111
a(lp112
a(lp113
a(lp114
aa(lp115
(lp116
g0
(g16
g2
Ntp117
Rp118
(dp119
g20
I0
sg21
I3
sg22
I1
sg23
(I4
I2
I1
I0
tp120
sbaa(lp121
a(lp122
a(lp123
a(lp124
a(lp125
a(lp126
a(lp127
a(lp128
a(lp129
a(lp130
a(lp131
aa(lp132
(lp133
g0
(g66
g2
Ntp134
Rp135
(dp136
g20
I0
sg21
I4
sg70
I2
sbaa(lp137
a(lp138
a(lp139
a(lp140
a(lp141
a(lp142
a(lp143
a(lp144
a(lp145
a(lp146
a(lp147
aa(lp148
(lp149
g0
(g16
g2
Ntp150
Rp151
(dp152
g20
I0
sg21
I5
sg22
I1
sg23
(I2
I4
I0
I1
tp153
sbaa(lp154
a(lp155
a(lp156
a(lp157
a(lp158
a(lp159
a(lp160
a(lp161
g0
(cSnake
SnakeSeg
p162
g2
Ntp163
Rp164
(dp165
S'i'
p166
I2
sS'gshape'
p167
g0
(cSnake
Snake
p168
g2
Ntp169
Rp170
(dp171
S'iid'
p172
I0
sS'tiles'
p173
(lp174
g164
ag0
(g162
g2
Ntp175
Rp176
(dp177
g166
I10
sg167
g170
sS'snake'
p178
g170
sS'fdir'
p179
I1
sg20
I8
sg21
I6
sS'bdir'
p180
I3
sbag0
(g162
g2
Ntp181
Rp182
(dp183
g166
I10
sg167
g170
sg178
g170
sg179
I1
sg20
I8
sg21
I7
sg180
I3
sbag0
(g162
g2
Ntp184
Rp185
(dp186
g166
I10
sg167
g170
sg178
g170
sg179
I1
sg20
I8
sg21
I8
sg180
I3
sbag0
(g162
g2
Ntp187
Rp188
(dp189
g166
I10
sg167
g170
sg178
g170
sg179
I1
sg20
I8
sg21
I9
sg180
I3
sbag0
(g162
g2
Ntp190
Rp191
(dp192
g166
I10
sg167
g170
sg178
g170
sg179
I1
sg20
I8
sg21
I10
sg180
I3
sbag0
(cSnake
SnakeHead
p193
g2
Ntp194
Rp195
(dp196
g20
I8
sg21
I11
sg167
g170
sg178
g170
sS'd'
p197
I1
sbasbsg178
g170
sg179
I1
sg20
I8
sg21
I5
sg180
Nsbaa(lp198
a(lp199
a(lp200
aa(lp201
(lp202
g0
(g16
g2
Ntp203
Rp204
(dp205
g20
I0
sg21
I6
sg22
I1
sg23
(I4
I4
I1
I1
tp206
sbaa(lp207
a(lp208
a(lp209
a(lp210
a(lp211
a(lp212
a(lp213
g0
(g162
g2
Ntp214
Rp215
(dp216
g166
I2
sg167
g0
(g168
g2
Ntp217
Rp218
(dp219
g172
I1
sg173
(lp220
g215
ag0
(g162
g2
Ntp221
Rp222
(dp223
g166
I10
sg167
g218
sg178
g218
sg179
I1
sg20
I7
sg21
I7
sg180
I3
sbag0
(g162
g2
Ntp224
Rp225
(dp226
g166
I10
sg167
g218
sg178
g218
sg179
I1
sg20
I7
sg21
I8
sg180
I3
sbag0
(g162
g2
Ntp227
Rp228
(dp229
g166
I10
sg167
g218
sg178
g218
sg179
I1
sg20
I7
sg21
I9
sg180
I3
sbag0
(g193
g2
Ntp230
Rp231
(dp232
g20
I7
sg21
I10
sg167
g218
sg178
g218
sg197
I1
sbasbsg178
g218
sg179
I1
sg20
I7
sg21
I6
sg180
Nsbaa(lp233
g176
aa(lp234
a(lp235
a(lp236
aa(lp237
(lp238
g0
(g16
g2
Ntp239
Rp240
(dp241
g20
I0
sg21
I7
sg22
I1
sg23
(I4
I4
I1
I1
tp242
sbaa(lp243
a(lp244
a(lp245
a(lp246
a(lp247
a(lp248
g0
(g162
g2
Ntp249
Rp250
(dp251
g166
I2
sg167
g0
(g168
g2
Ntp252
Rp253
(dp254
g172
I2
sg173
(lp255
g250
ag0
(g162
g2
Ntp256
Rp257
(dp258
g166
I10
sg167
g253
sg178
g253
sg179
I1
sg20
I6
sg21
I8
sg180
I3
sbag0
(g193
g2
Ntp259
Rp260
(dp261
g20
I6
sg21
I9
sg167
g253
sg178
g253
sg197
I1
sbasbsg178
g253
sg179
I1
sg20
I6
sg21
I7
sg180
Nsbaa(lp262
g222
aa(lp263
g182
aa(lp264
a(lp265
a(lp266
aa(lp267
(lp268
g0
(g16
g2
Ntp269
Rp270
(dp271
g20
I0
sg21
I8
sg22
I1
sg23
(I4
I4
I1
I1
tp272
sbaa(lp273
a(lp274
a(lp275
a(lp276
a(lp277
g0
(cTiles
Portal
p278
g2
Ntp279
Rp280
(dp281
g20
I5
sg21
I8
sg166
I01
sbaa(lp282
g257
aa(lp283
g225
aa(lp284
g185
aa(lp285
g0
(g16
g2
Ntp286
Rp287
(dp288
g20
I9
sg21
I8
sg22
I3
sg23
(I0
I0
I2
I2
tp289
sbaa(lp290
g0
(g16
g2
Ntp291
Rp292
(dp293
g20
I10
sg21
I8
sg22
I3
sg23
(I2
I2
I0
I0
tp294
sbaa(lp295
g0
(g66
g2
Ntp296
Rp297
(dp298
g20
I11
sg21
I8
sg70
I3
sbaaa(lp299
(lp300
g0
(g16
g2
Ntp301
Rp302
(dp303
g20
I0
sg21
I9
sg22
I1
sg23
(I4
I4
I1
I1
tp304
sbaa(lp305
a(lp306
a(lp307
a(lp308
a(lp309
a(lp310
g260
aa(lp311
g228
aa(lp312
g188
aa(lp313
a(lp314
a(lp315
aa(lp316
(lp317
g0
(g16
g2
Ntp318
Rp319
(dp320
g20
I0
sg21
I10
sg22
I1
sg23
(I4
I4
I1
I1
tp321
sbaa(lp322
a(lp323
a(lp324
a(lp325
a(lp326
a(lp327
a(lp328
g231
aa(lp329
g191
aa(lp330
a(lp331
a(lp332
aa(lp333
(lp334
g0
(g16
g2
Ntp335
Rp336
(dp337
g20
I0
sg21
I11
sg22
I1
sg23
(I4
I4
I1
I1
tp338
sbaa(lp339
a(lp340
a(lp341
a(lp342
a(lp343
a(lp344
a(lp345
a(lp346
g195
aa(lp347
a(lp348
a(lp349
aa(lp350
(lp351
g0
(g16
g2
Ntp352
Rp353
(dp354
g20
I0
sg21
I12
sg22
I1
sg23
(I4
I4
I1
I1
tp355
sbaa(lp356
a(lp357
a(lp358
a(lp359
a(lp360
a(lp361
a(lp362
a(lp363
a(lp364
a(lp365
a(lp366
aa(lp367
(lp368
g0
(g16
g2
Ntp369
Rp370
(dp371
g20
I0
sg21
I13
sg22
I1
sg23
(I4
I4
I1
I1
tp372
sbaa(lp373
a(lp374
a(lp375
a(lp376
a(lp377
a(lp378
a(lp379
a(lp380
a(lp381
a(lp382
a(lp383
aa(lp384
(lp385
g0
(g16
g2
Ntp386
Rp387
(dp388
g20
I0
sg21
I14
sg22
I1
sg23
(I4
I2
I1
I0
tp389
sbaa(lp390
a(lp391
a(lp392
a(lp393
a(lp394
a(lp395
a(lp396
a(lp397
a(lp398
a(lp399
a(lp400
aa(lp401
(lp402
g0
(g16
g2
Ntp403
Rp404
(dp405
g20
I0
sg21
I15
sg22
I0
sg23
(I2
I4
I2
I4
tp406
sbaa(lp407
g0
(g16
g2
Ntp408
Rp409
(dp410
g20
I1
sg21
I15
sg22
I0
sg23
(I2
I4
I0
I1
tp411
sbaa(lp412
g0
(g66
g2
Ntp413
Rp414
(dp415
g20
I2
sg21
I15
sg70
I3
sbaa(lp416
g0
(g16
g2
Ntp417
Rp418
(dp419
g20
I3
sg21
I15
sg22
I0
sg23
(I0
I1
I2
I4
tp420
sbaa(lp421
g0
(g16
g2
Ntp422
Rp423
(dp424
g20
I4
sg21
I15
sg22
I0
sg23
(I2
I4
I2
I4
tp425
sbaa(lp426
g0
(g16
g2
Ntp427
Rp428
(dp429
g20
I5
sg21
I15
sg22
I0
sg23
(I2
I4
I2
I4
tp430
sbaa(lp431
g0
(g16
g2
Ntp432
Rp433
(dp434
g20
I6
sg21
I15
sg22
I0
sg23
(I2
I4
I2
I4
tp435
sbaa(lp436
g0
(g16
g2
Ntp437
Rp438
(dp439
g20
I7
sg21
I15
sg22
I0
sg23
(I2
I4
I2
I4
tp440
sbaa(lp441
g0
(g16
g2
Ntp442
Rp443
(dp444
g20
I8
sg21
I15
sg22
I0
sg23
(I2
I4
I2
I4
tp445
sbaa(lp446
g0
(g16
g2
Ntp447
Rp448
(dp449
g20
I9
sg21
I15
sg22
I0
sg23
(I2
I4
I2
I4
tp450
sbaa(lp451
g0
(g16
g2
Ntp452
Rp453
(dp454
g20
I10
sg21
I15
sg22
I0
sg23
(I2
I4
I2
I4
tp455
sbaa(lp456
g0
(g16
g2
Ntp457
Rp458
(dp459
g20
I11
sg21
I15
sg22
I0
sg23
(I2
I4
I2
I4
tp460
sbaaasS'iscale'
p461
I3
sb.