ccopy_reg
_reconstructor
p0
(cBoard
Board
p1
c__builtin__
object
p2
Ntp3
Rp4
(dp5
S'sy'
p6
I12
sS'sx'
p7
I12
sS'rscale'
p8
I64
sS'ascale'
p9
I4
sS'music'
p10
S'Snow'
p11
sS't'
p12
(lp13
(lp14
(lp15
a(lp16
a(lp17
g0
(cTiles
Snow
p18
g2
Ntp19
Rp20
(dp21
S'y'
p22
I2
sS'x'
p23
I0
sS'corners'
p24
(I1
I1
I4
I4
tp25
sbaa(lp26
g0
(g18
g2
Ntp27
Rp28
(dp29
g22
I3
sg23
I0
sg24
(I4
I4
I1
I1
tp30
sbaa(lp31
g0
(cTiles
Portal
p32
g2
Ntp33
Rp34
(dp35
g22
I4
sg23
I0
sS'i'
p36
I01
sbaa(lp37
g0
(cInteractives
XBlock
p38
g2
Ntp39
Rp40
(dp41
g22
I5
sg23
I0
sS'active'
p42
I0
sS'col'
p43
I1
sbaa(lp44
a(lp45
a(lp46
a(lp47
a(lp48
a(lp49
aa(lp50
(lp51
a(lp52
g0
(cInteractives
Penguin
p53
g2
Ntp54
Rp55
(dp56
g22
I1
sg23
I1
sS'gshape'
p57
g0
(cTiles
GravShape
p58
g2
Ntp59
Rp60
(dp61
S'tiles'
p62
(lp63
g55
asbsbaa(lp64
g0
(g18
g2
Ntp65
Rp66
(dp67
g22
I2
sg23
I1
sg24
(I1
I1
I4
I4
tp68
sbaa(lp69
g0
(g18
g2
Ntp70
Rp71
(dp72
g22
I3
sg23
I1
sg24
(I4
I4
I1
I1
tp73
sbaa(lp74
a(lp75
g0
(g38
g2
Ntp76
Rp77
(dp78
g22
I5
sg23
I1
sg42
I0
sg43
I1
sbaa(lp79
a(lp80
a(lp81
a(lp82
a(lp83
a(lp84
aa(lp85
(lp86
a(lp87
g0
(g53
g2
Ntp88
Rp89
(dp90
g22
I1
sg23
I2
sg57
g0
(g58
g2
Ntp91
Rp92
(dp93
g62
(lp94
g89
asbsbaa(lp95
g0
(g18
g2
Ntp96
Rp97
(dp98
g22
I2
sg23
I2
sg24
(I1
I1
I4
I4
tp99
sbaa(lp100
g0
(g18
g2
Ntp101
Rp102
(dp103
g22
I3
sg23
I2
sg24
(I4
I4
I1
I1
tp104
sbaa(lp105
a(lp106
g0
(g38
g2
Ntp107
Rp108
(dp109
g22
I5
sg23
I2
sg42
I0
sg43
I1
sbaa(lp110
a(lp111
a(lp112
a(lp113
a(lp114
a(lp115
aa(lp116
(lp117
a(lp118
g0
(g53
g2
Ntp119
Rp120
(dp121
g22
I1
sg23
I3
sg57
g0
(g58
g2
Ntp122
Rp123
(dp124
g62
(lp125
g120
asbsbaa(lp126
g0
(g18
g2
Ntp127
Rp128
(dp129
g22
I2
sg23
I3
sg24
(I1
I1
I4
I4
tp130
sbaa(lp131
g0
(g18
g2
Ntp132
Rp133
(dp134
g22
I3
sg23
I3
sg24
(I4
I4
I1
I1
tp135
sbaa(lp136
a(lp137
g0
(g38
g2
Ntp138
Rp139
(dp140
g22
I5
sg23
I3
sg42
I0
sg43
I1
sbaa(lp141
a(lp142
a(lp143
a(lp144
a(lp145
a(lp146
aa(lp147
(lp148
a(lp149
a(lp150
g0
(g18
g2
Ntp151
Rp152
(dp153
g22
I2
sg23
I4
sg24
(I1
I1
I4
I3
tp154
sbaa(lp155
g0
(g18
g2
Ntp156
Rp157
(dp158
g22
I3
sg23
I4
sg24
(I4
I2
I1
I0
tp159
sbaa(lp160
a(lp161
g0
(g38
g2
Ntp162
Rp163
(dp164
g22
I5
sg23
I4
sg42
I0
sg43
I1
sbaa(lp165
a(lp166
g0
(g18
g2
Ntp167
Rp168
(dp169
g22
I7
sg23
I4
sg24
(I0
I1
I2
I4
tp170
sbaa(lp171
g0
(g18
g2
Ntp172
Rp173
(dp174
g22
I8
sg23
I4
sg24
(I2
I4
I2
I4
tp175
sbaa(lp176
g0
(g18
g2
Ntp177
Rp178
(dp179
g22
I9
sg23
I4
sg24
(I2
I4
I2
I4
tp180
sbaa(lp181
g0
(g18
g2
Ntp182
Rp183
(dp184
g22
I10
sg23
I4
sg24
(I2
I4
I2
I4
tp185
sbaa(lp186
g0
(g18
g2
Ntp187
Rp188
(dp189
g22
I11
sg23
I4
sg24
(I2
I4
I2
I4
tp190
sbaaa(lp191
(lp192
a(lp193
a(lp194
g0
(g18
g2
Ntp195
Rp196
(dp197
g22
I2
sg23
I5
sg24
(I1
I0
I1
I0
tp198
sbaa(lp199
a(lp200
a(lp201
g0
(g38
g2
Ntp202
Rp203
(dp204
g22
I5
sg23
I5
sg42
I0
sg43
I1
sbaa(lp205
g0
(g18
g2
Ntp206
Rp207
(dp208
g22
I6
sg23
I5
sg24
(I0
I1
I2
I4
tp209
sbaa(lp210
g0
(g18
g2
Ntp211
Rp212
(dp213
g22
I7
sg23
I5
sg24
(I3
I4
I4
I4
tp214
sbaa(lp215
g0
(g18
g2
Ntp216
Rp217
(dp218
g22
I8
sg23
I5
sg24
(I4
I4
I4
I4
tp219
sbaa(lp220
g0
(g18
g2
Ntp221
Rp222
(dp223
g22
I9
sg23
I5
sg24
(I4
I4
I4
I4
tp224
sbaa(lp225
g0
(g18
g2
Ntp226
Rp227
(dp228
g22
I10
sg23
I5
sg24
(I4
I4
I4
I4
tp229
sbaa(lp230
g0
(g18
g2
Ntp231
Rp232
(dp233
g22
I11
sg23
I5
sg24
(I4
I4
I4
I4
tp234
sbaaa(lp235
(lp236
a(lp237
a(lp238
a(lp239
a(lp240
a(lp241
g0
(g18
g2
Ntp242
Rp243
(dp244
g22
I5
sg23
I6
sg24
(I0
I1
I2
I4
tp245
sbaa(lp246
g0
(g18
g2
Ntp247
Rp248
(dp249
g22
I6
sg23
I6
sg24
(I3
I4
I4
I4
tp250
sbaa(lp251
g0
(g18
g2
Ntp252
Rp253
(dp254
g22
I7
sg23
I6
sg24
(I4
I4
I4
I4
tp255
sbaa(lp256
g0
(g18
g2
Ntp257
Rp258
(dp259
g22
I8
sg23
I6
sg24
(I4
I4
I4
I4
tp260
sbaa(lp261
g0
(g18
g2
Ntp262
Rp263
(dp264
g22
I9
sg23
I6
sg24
(I4
I4
I4
I4
tp265
sbaa(lp266
g0
(g18
g2
Ntp267
Rp268
(dp269
g22
I10
sg23
I6
sg24
(I4
I4
I4
I4
tp270
sbaa(lp271
g0
(g18
g2
Ntp272
Rp273
(dp274
g22
I11
sg23
I6
sg24
(I4
I4
I4
I4
tp275
sbaaa(lp276
(lp277
a(lp278
a(lp279
a(lp280
a(lp281
a(lp282
g0
(g18
g2
Ntp283
Rp284
(dp285
g22
I5
sg23
I7
sg24
(I1
I1
I4
I4
tp286
sbaa(lp287
g0
(g18
g2
Ntp288
Rp289
(dp290
g22
I6
sg23
I7
sg24
(I4
I4
I4
I4
tp291
sbaa(lp292
g0
(g18
g2
Ntp293
Rp294
(dp295
g22
I7
sg23
I7
sg24
(I4
I4
I4
I4
tp296
sbaa(lp297
g0
(g18
g2
Ntp298
Rp299
(dp300
g22
I8
sg23
I7
sg24
(I4
I4
I4
I4
tp301
sbaa(lp302
g0
(g18
g2
Ntp303
Rp304
(dp305
g22
I9
sg23
I7
sg24
(I4
I4
I4
I4
tp306
sbaa(lp307
g0
(g18
g2
Ntp308
Rp309
(dp310
g22
I10
sg23
I7
sg24
(I4
I4
I4
I4
tp311
sbaa(lp312
g0
(g18
g2
Ntp313
Rp314
(dp315
g22
I11
sg23
I7
sg24
(I4
I4
I4
I4
tp316
sbaaa(lp317
(lp318
a(lp319
a(lp320
a(lp321
a(lp322
a(lp323
g0
(g18
g2
Ntp324
Rp325
(dp326
g22
I5
sg23
I8
sg24
(I1
I1
I4
I4
tp327
sbaa(lp328
g0
(g18
g2
Ntp329
Rp330
(dp331
g22
I6
sg23
I8
sg24
(I4
I4
I4
I4
tp332
sbaa(lp333
g0
(g18
g2
Ntp334
Rp335
(dp336
g22
I7
sg23
I8
sg24
(I4
I4
I4
I4
tp337
sbaa(lp338
g0
(g18
g2
Ntp339
Rp340
(dp341
g22
I8
sg23
I8
sg24
(I4
I4
I4
I4
tp342
sbaa(lp343
g0
(g18
g2
Ntp344
Rp345
(dp346
g22
I9
sg23
I8
sg24
(I4
I4
I4
I4
tp347
sbaa(lp348
g0
(g18
g2
Ntp349
Rp350
(dp351
g22
I10
sg23
I8
sg24
(I4
I4
I4
I4
tp352
sbaa(lp353
g0
(g18
g2
Ntp354
Rp355
(dp356
g22
I11
sg23
I8
sg24
(I4
I4
I4
I4
tp357
sbaaa(lp358
(lp359
a(lp360
a(lp361
a(lp362
g0
(cInteractives
XSwitch
p363
g2
Ntp364
Rp365
(dp366
g22
I3
sg23
I9
sS'r'
p367
I1
sg42
I01
sg43
I1
sbaa(lp368
a(lp369
g0
(g18
g2
Ntp370
Rp371
(dp372
g22
I5
sg23
I9
sg24
(I1
I1
I4
I4
tp373
sbaa(lp374
g0
(g18
g2
Ntp375
Rp376
(dp377
g22
I6
sg23
I9
sg24
(I4
I4
I4
I4
tp378
sbaa(lp379
g0
(g18
g2
Ntp380
Rp381
(dp382
g22
I7
sg23
I9
sg24
(I4
I4
I4
I4
tp383
sbaa(lp384
g0
(g18
g2
Ntp385
Rp386
(dp387
g22
I8
sg23
I9
sg24
(I4
I4
I4
I4
tp388
sbaa(lp389
g0
(g18
g2
Ntp390
Rp391
(dp392
g22
I9
sg23
I9
sg24
(I4
I4
I4
I4
tp393
sbaa(lp394
g0
(g18
g2
Ntp395
Rp396
(dp397
g22
I10
sg23
I9
sg24
(I4
I4
I4
I4
tp398
sbaa(lp399
g0
(g18
g2
Ntp400
Rp401
(dp402
g22
I11
sg23
I9
sg24
(I4
I4
I4
I4
tp403
sbaaa(lp404
(lp405
a(lp406
a(lp407
a(lp408
g0
(g18
g2
Ntp409
Rp410
(dp411
g22
I3
sg23
I10
sg24
(I0
I0
I2
I2
tp412
sbaa(lp413
g0
(g18
g2
Ntp414
Rp415
(dp416
g22
I4
sg23
I10
sg24
(I2
I3
I2
I4
tp417
sbaa(lp418
g0
(g18
g2
Ntp419
Rp420
(dp421
g22
I5
sg23
I10
sg24
(I3
I4
I4
I4
tp422
sbaa(lp423
g0
(g18
g2
Ntp424
Rp425
(dp426
g22
I6
sg23
I10
sg24
(I4
I4
I4
I4
tp427
sbaa(lp428
g0
(g18
g2
Ntp429
Rp430
(dp431
g22
I7
sg23
I10
sg24
(I4
I4
I4
I4
tp432
sbaa(lp433
g0
(g18
g2
Ntp434
Rp435
(dp436
g22
I8
sg23
I10
sg24
(I4
I4
I4
I4
tp437
sbaa(lp438
g0
(g18
g2
Ntp439
Rp440
(dp441
g22
I9
sg23
I10
sg24
(I4
I4
I4
I4
tp442
sbaa(lp443
g0
(g18
g2
Ntp444
Rp445
(dp446
g22
I10
sg23
I10
sg24
(I4
I4
I4
I4
tp447
sbaa(lp448
g0
(g18
g2
Ntp449
Rp450
(dp451
g22
I11
sg23
I10
sg24
(I4
I4
I4
I4
tp452
sbaaa(lp453
(lp454
a(lp455
a(lp456
a(lp457
a(lp458
g0
(g18
g2
Ntp459
Rp460
(dp461
g22
I4
sg23
I11
sg24
(I1
I1
I4
I4
tp462
sbaa(lp463
g0
(g18
g2
Ntp464
Rp465
(dp466
g22
I5
sg23
I11
sg24
(I4
I4
I4
I4
tp467
sbaa(lp468
g0
(g18
g2
Ntp469
Rp470
(dp471
g22
I6
sg23
I11
sg24
(I4
I4
I4
I4
tp472
sbaa(lp473
g0
(g18
g2
Ntp474
Rp475
(dp476
g22
I7
sg23
I11
sg24
(I4
I4
I4
I4
tp477
sbaa(lp478
g0
(g18
g2
Ntp479
Rp480
(dp481
g22
I8
sg23
I11
sg24
(I4
I4
I4
I4
tp482
sbaa(lp483
g0
(g18
g2
Ntp484
Rp485
(dp486
g22
I9
sg23
I11
sg24
(I4
I4
I4
I4
tp487
sbaa(lp488
g0
(g18
g2
Ntp489
Rp490
(dp491
g22
I10
sg23
I11
sg24
(I4
I4
I4
I4
tp492
sbaa(lp493
g0
(g18
g2
Ntp494
Rp495
(dp496
g22
I11
sg23
I11
sg24
(I4
I4
I4
I4
tp497
sbaaasS'iscale'
p498
I3
sb.