ccopy_reg
_reconstructor
p0
(cBoard
Board
p1
c__builtin__
object
p2
Ntp3
Rp4
(dp5
S'sy'
p6
I12
sS'sx'
p7
I12
sS'rscale'
p8
I64
sS'ascale'
p9
I4
sS'music'
p10
S'Snow'
p11
sS't'
p12
(lp13
(lp14
(lp15
g0
(cTiles
Air
p16
g2
Ntp17
Rp18
(dp19
S'y'
p20
I0
sS'x'
p21
I0
sbaa(lp22
g0
(g16
g2
Ntp23
Rp24
(dp25
g20
I1
sg21
I0
sbaa(lp26
g0
(cTiles
Snow
p27
g2
Ntp28
Rp29
(dp30
g20
I2
sg21
I0
sS'corners'
p31
(I1
I1
I4
I4
tp32
sbaa(lp33
g0
(g27
g2
Ntp34
Rp35
(dp36
g20
I3
sg21
I0
sg31
(I4
I4
I1
I1
tp37
sbaa(lp38
g0
(cTiles
Portal
p39
g2
Ntp40
Rp41
(dp42
g20
I4
sg21
I0
sS'i'
p43
I01
sbaa(lp44
g0
(cInteractives
XBlock
p45
g2
Ntp46
Rp47
(dp48
g20
I5
sg21
I0
sS'active'
p49
I0
sS'col'
p50
I1
sbaa(lp51
g0
(g16
g2
Ntp52
Rp53
(dp54
g20
I6
sg21
I0
sbaa(lp55
g0
(g16
g2
Ntp56
Rp57
(dp58
g20
I7
sg21
I0
sbaa(lp59
g0
(g16
g2
Ntp60
Rp61
(dp62
g20
I8
sg21
I0
sbaa(lp63
g0
(g16
g2
Ntp64
Rp65
(dp66
g20
I9
sg21
I0
sbaa(lp67
g0
(g16
g2
Ntp68
Rp69
(dp70
g20
I10
sg21
I0
sbaa(lp71
g0
(g16
g2
Ntp72
Rp73
(dp74
g20
I11
sg21
I0
sbaaa(lp75
(lp76
g0
(g16
g2
Ntp77
Rp78
(dp79
g20
I0
sg21
I1
sbaa(lp80
g0
(cInteractives
Penguin
p81
g2
Ntp82
Rp83
(dp84
g20
I1
sg21
I1
sS'gshape'
p85
g0
(cTiles
GravShape
p86
g2
Ntp87
Rp88
(dp89
S'tiles'
p90
(lp91
g83
asbsbaa(lp92
g0
(g27
g2
Ntp93
Rp94
(dp95
g20
I2
sg21
I1
sg31
(I1
I1
I4
I4
tp96
sbaa(lp97
g0
(g27
g2
Ntp98
Rp99
(dp100
g20
I3
sg21
I1
sg31
(I4
I4
I1
I1
tp101
sbaa(lp102
g0
(g16
g2
Ntp103
Rp104
(dp105
g20
I4
sg21
I1
sbaa(lp106
g0
(g45
g2
Ntp107
Rp108
(dp109
g20
I5
sg21
I1
sg49
I0
sg50
I1
sbaa(lp110
g0
(g16
g2
Ntp111
Rp112
(dp113
g20
I6
sg21
I1
sbaa(lp114
g0
(g16
g2
Ntp115
Rp116
(dp117
g20
I7
sg21
I1
sbaa(lp118
g0
(g16
g2
Ntp119
Rp120
(dp121
g20
I8
sg21
I1
sbaa(lp122
g0
(g16
g2
Ntp123
Rp124
(dp125
g20
I9
sg21
I1
sbaa(lp126
g0
(g16
g2
Ntp127
Rp128
(dp129
g20
I10
sg21
I1
sbaa(lp130
g0
(g16
g2
Ntp131
Rp132
(dp133
g20
I11
sg21
I1
sbaaa(lp134
(lp135
g0
(g16
g2
Ntp136
Rp137
(dp138
g20
I0
sg21
I2
sbaa(lp139
g0
(g81
g2
Ntp140
Rp141
(dp142
g20
I1
sg21
I2
sg85
g0
(g86
g2
Ntp143
Rp144
(dp145
g90
(lp146
g141
asbsbaa(lp147
g0
(g27
g2
Ntp148
Rp149
(dp150
g20
I2
sg21
I2
sg31
(I1
I1
I4
I4
tp151
sbaa(lp152
g0
(g27
g2
Ntp153
Rp154
(dp155
g20
I3
sg21
I2
sg31
(I4
I4
I1
I1
tp156
sbaa(lp157
g0
(g16
g2
Ntp158
Rp159
(dp160
g20
I4
sg21
I2
sbaa(lp161
g0
(g45
g2
Ntp162
Rp163
(dp164
g20
I5
sg21
I2
sg49
I0
sg50
I1
sbaa(lp165
g0
(g16
g2
Ntp166
Rp167
(dp168
g20
I6
sg21
I2
sbaa(lp169
g0
(g16
g2
Ntp170
Rp171
(dp172
g20
I7
sg21
I2
sbaa(lp173
g0
(g16
g2
Ntp174
Rp175
(dp176
g20
I8
sg21
I2
sbaa(lp177
g0
(g16
g2
Ntp178
Rp179
(dp180
g20
I9
sg21
I2
sbaa(lp181
g0
(g16
g2
Ntp182
Rp183
(dp184
g20
I10
sg21
I2
sbaa(lp185
g0
(g16
g2
Ntp186
Rp187
(dp188
g20
I11
sg21
I2
sbaaa(lp189
(lp190
g0
(g16
g2
Ntp191
Rp192
(dp193
g20
I0
sg21
I3
sbaa(lp194
g0
(g81
g2
Ntp195
Rp196
(dp197
g20
I1
sg21
I3
sg85
g0
(g86
g2
Ntp198
Rp199
(dp200
g90
(lp201
g196
asbsbaa(lp202
g0
(g27
g2
Ntp203
Rp204
(dp205
g20
I2
sg21
I3
sg31
(I1
I1
I4
I4
tp206
sbaa(lp207
g0
(g27
g2
Ntp208
Rp209
(dp210
g20
I3
sg21
I3
sg31
(I4
I4
I1
I1
tp211
sbaa(lp212
g0
(g16
g2
Ntp213
Rp214
(dp215
g20
I4
sg21
I3
sbaa(lp216
g0
(g45
g2
Ntp217
Rp218
(dp219
g20
I5
sg21
I3
sg49
I0
sg50
I1
sbaa(lp220
g0
(g16
g2
Ntp221
Rp222
(dp223
g20
I6
sg21
I3
sbaa(lp224
g0
(g16
g2
Ntp225
Rp226
(dp227
g20
I7
sg21
I3
sbaa(lp228
g0
(g16
g2
Ntp229
Rp230
(dp231
g20
I8
sg21
I3
sbaa(lp232
g0
(g16
g2
Ntp233
Rp234
(dp235
g20
I9
sg21
I3
sbaa(lp236
g0
(g16
g2
Ntp237
Rp238
(dp239
g20
I10
sg21
I3
sbaa(lp240
g0
(g16
g2
Ntp241
Rp242
(dp243
g20
I11
sg21
I3
sbaaa(lp244
(lp245
g0
(g16
g2
Ntp246
Rp247
(dp248
g20
I0
sg21
I4
sbaa(lp249
g0
(g16
g2
Ntp250
Rp251
(dp252
g20
I1
sg21
I4
sbaa(lp253
g0
(g27
g2
Ntp254
Rp255
(dp256
g20
I2
sg21
I4
sg31
(I1
I1
I4
I3
tp257
sbaa(lp258
g0
(g27
g2
Ntp259
Rp260
(dp261
g20
I3
sg21
I4
sg31
(I4
I2
I1
I0
tp262
sbaa(lp263
g0
(g16
g2
Ntp264
Rp265
(dp266
g20
I4
sg21
I4
sbaa(lp267
g0
(g45
g2
Ntp268
Rp269
(dp270
g20
I5
sg21
I4
sg49
I0
sg50
I1
sbaa(lp271
g0
(g16
g2
Ntp272
Rp273
(dp274
g20
I6
sg21
I4
sbaa(lp275
g0
(g27
g2
Ntp276
Rp277
(dp278
g20
I7
sg21
I4
sg31
(I0
I1
I2
I4
tp279
sbaa(lp280
g0
(g27
g2
Ntp281
Rp282
(dp283
g20
I8
sg21
I4
sg31
(I2
I4
I2
I4
tp284
sbaa(lp285
g0
(g27
g2
Ntp286
Rp287
(dp288
g20
I9
sg21
I4
sg31
(I2
I4
I2
I4
tp289
sbaa(lp290
g0
(g27
g2
Ntp291
Rp292
(dp293
g20
I10
sg21
I4
sg31
(I2
I4
I2
I4
tp294
sbaa(lp295
g0
(g27
g2
Ntp296
Rp297
(dp298
g20
I11
sg21
I4
sg31
(I2
I4
I2
I4
tp299
sbaaa(lp300
(lp301
g0
(g16
g2
Ntp302
Rp303
(dp304
g20
I0
sg21
I5
sbaa(lp305
g0
(g16
g2
Ntp306
Rp307
(dp308
g20
I1
sg21
I5
sbaa(lp309
g0
(g27
g2
Ntp310
Rp311
(dp312
g20
I2
sg21
I5
sg31
(I1
I0
I1
I0
tp313
sbaa(lp314
g0
(g16
g2
Ntp315
Rp316
(dp317
g20
I3
sg21
I5
sbaa(lp318
g0
(g16
g2
Ntp319
Rp320
(dp321
g20
I4
sg21
I5
sbaa(lp322
g0
(g45
g2
Ntp323
Rp324
(dp325
g20
I5
sg21
I5
sg49
I0
sg50
I1
sbaa(lp326
g0
(g27
g2
Ntp327
Rp328
(dp329
g20
I6
sg21
I5
sg31
(I0
I1
I2
I4
tp330
sbaa(lp331
g0
(g27
g2
Ntp332
Rp333
(dp334
g20
I7
sg21
I5
sg31
(I3
I4
I4
I4
tp335
sbaa(lp336
g0
(g27
g2
Ntp337
Rp338
(dp339
g20
I8
sg21
I5
sg31
(I4
I4
I4
I4
tp340
sbaa(lp341
g0
(g27
g2
Ntp342
Rp343
(dp344
g20
I9
sg21
I5
sg31
(I4
I4
I4
I4
tp345
sbaa(lp346
g0
(g27
g2
Ntp347
Rp348
(dp349
g20
I10
sg21
I5
sg31
(I4
I4
I4
I4
tp350
sbaa(lp351
g0
(g27
g2
Ntp352
Rp353
(dp354
g20
I11
sg21
I5
sg31
(I4
I4
I4
I4
tp355
sbaaa(lp356
(lp357
g0
(g16
g2
Ntp358
Rp359
(dp360
g20
I0
sg21
I6
sbaa(lp361
g0
(g16
g2
Ntp362
Rp363
(dp364
g20
I1
sg21
I6
sbaa(lp365
g0
(g16
g2
Ntp366
Rp367
(dp368
g20
I2
sg21
I6
sbaa(lp369
g0
(g16
g2
Ntp370
Rp371
(dp372
g20
I3
sg21
I6
sbaa(lp373
g0
(g16
g2
Ntp374
Rp375
(dp376
g20
I4
sg21
I6
sbaa(lp377
g0
(g27
g2
Ntp378
Rp379
(dp380
g20
I5
sg21
I6
sg31
(I0
I1
I2
I4
tp381
sbaa(lp382
g0
(g27
g2
Ntp383
Rp384
(dp385
g20
I6
sg21
I6
sg31
(I3
I4
I4
I4
tp386
sbaa(lp387
g0
(g27
g2
Ntp388
Rp389
(dp390
g20
I7
sg21
I6
sg31
(I4
I4
I4
I4
tp391
sbaa(lp392
g0
(g27
g2
Ntp393
Rp394
(dp395
g20
I8
sg21
I6
sg31
(I4
I4
I4
I4
tp396
sbaa(lp397
g0
(g27
g2
Ntp398
Rp399
(dp400
g20
I9
sg21
I6
sg31
(I4
I4
I4
I4
tp401
sbaa(lp402
g0
(g27
g2
Ntp403
Rp404
(dp405
g20
I10
sg21
I6
sg31
(I4
I4
I4
I4
tp406
sbaa(lp407
g0
(g27
g2
Ntp408
Rp409
(dp410
g20
I11
sg21
I6
sg31
(I4
I4
I4
I4
tp411
sbaaa(lp412
(lp413
g0
(g16
g2
Ntp414
Rp415
(dp416
g20
I0
sg21
I7
sbaa(lp417
g0
(g16
g2
Ntp418
Rp419
(dp420
g20
I1
sg21
I7
sbaa(lp421
g0
(g16
g2
Ntp422
Rp423
(dp424
g20
I2
sg21
I7
sbaa(lp425
g0
(g16
g2
Ntp426
Rp427
(dp428
g20
I3
sg21
I7
sbaa(lp429
g0
(g16
g2
Ntp430
Rp431
(dp432
g20
I4
sg21
I7
sbaa(lp433
g0
(g27
g2
Ntp434
Rp435
(dp436
g20
I5
sg21
I7
sg31
(I1
I1
I4
I4
tp437
sbaa(lp438
g0
(g27
g2
Ntp439
Rp440
(dp441
g20
I6
sg21
I7
sg31
(I4
I4
I4
I4
tp442
sbaa(lp443
g0
(g27
g2
Ntp444
Rp445
(dp446
g20
I7
sg21
I7
sg31
(I4
I4
I4
I4
tp447
sbaa(lp448
g0
(g27
g2
Ntp449
Rp450
(dp451
g20
I8
sg21
I7
sg31
(I4
I4
I4
I4
tp452
sbaa(lp453
g0
(g27
g2
Ntp454
Rp455
(dp456
g20
I9
sg21
I7
sg31
(I4
I4
I4
I4
tp457
sbaa(lp458
g0
(g27
g2
Ntp459
Rp460
(dp461
g20
I10
sg21
I7
sg31
(I4
I4
I4
I4
tp462
sbaa(lp463
g0
(g27
g2
Ntp464
Rp465
(dp466
g20
I11
sg21
I7
sg31
(I4
I4
I4
I4
tp467
sbaaa(lp468
(lp469
g0
(g16
g2
Ntp470
Rp471
(dp472
g20
I0
sg21
I8
sbaa(lp473
g0
(g16
g2
Ntp474
Rp475
(dp476
g20
I1
sg21
I8
sbaa(lp477
g0
(g16
g2
Ntp478
Rp479
(dp480
g20
I2
sg21
I8
sbaa(lp481
g0
(g16
g2
Ntp482
Rp483
(dp484
g20
I3
sg21
I8
sbaa(lp485
g0
(g16
g2
Ntp486
Rp487
(dp488
g20
I4
sg21
I8
sbaa(lp489
g0
(g27
g2
Ntp490
Rp491
(dp492
g20
I5
sg21
I8
sg31
(I1
I1
I4
I4
tp493
sbaa(lp494
g0
(g27
g2
Ntp495
Rp496
(dp497
g20
I6
sg21
I8
sg31
(I4
I4
I4
I4
tp498
sbaa(lp499
g0
(g27
g2
Ntp500
Rp501
(dp502
g20
I7
sg21
I8
sg31
(I4
I4
I4
I4
tp503
sbaa(lp504
g0
(g27
g2
Ntp505
Rp506
(dp507
g20
I8
sg21
I8
sg31
(I4
I4
I4
I4
tp508
sbaa(lp509
g0
(g27
g2
Ntp510
Rp511
(dp512
g20
I9
sg21
I8
sg31
(I4
I4
I4
I4
tp513
sbaa(lp514
g0
(g27
g2
Ntp515
Rp516
(dp517
g20
I10
sg21
I8
sg31
(I4
I4
I4
I4
tp518
sbaa(lp519
g0
(g27
g2
Ntp520
Rp521
(dp522
g20
I11
sg21
I8
sg31
(I4
I4
I4
I4
tp523
sbaaa(lp524
(lp525
g0
(g16
g2
Ntp526
Rp527
(dp528
g20
I0
sg21
I9
sbaa(lp529
g0
(g16
g2
Ntp530
Rp531
(dp532
g20
I1
sg21
I9
sbaa(lp533
g0
(g16
g2
Ntp534
Rp535
(dp536
g20
I2
sg21
I9
sbaa(lp537
g0
(cInteractives
XSwitch
p538
g2
Ntp539
Rp540
(dp541
g20
I3
sg21
I9
sS'r'
p542
I1
sg49
I01
sg50
I1
sbaa(lp543
g0
(g16
g2
Ntp544
Rp545
(dp546
g20
I4
sg21
I9
sbaa(lp547
g0
(g27
g2
Ntp548
Rp549
(dp550
g20
I5
sg21
I9
sg31
(I1
I1
I4
I4
tp551
sbaa(lp552
g0
(g27
g2
Ntp553
Rp554
(dp555
g20
I6
sg21
I9
sg31
(I4
I4
I4
I4
tp556
sbaa(lp557
g0
(g27
g2
Ntp558
Rp559
(dp560
g20
I7
sg21
I9
sg31
(I4
I4
I4
I4
tp561
sbaa(lp562
g0
(g27
g2
Ntp563
Rp564
(dp565
g20
I8
sg21
I9
sg31
(I4
I4
I4
I4
tp566
sbaa(lp567
g0
(g27
g2
Ntp568
Rp569
(dp570
g20
I9
sg21
I9
sg31
(I4
I4
I4
I4
tp571
sbaa(lp572
g0
(g27
g2
Ntp573
Rp574
(dp575
g20
I10
sg21
I9
sg31
(I4
I4
I4
I4
tp576
sbaa(lp577
g0
(g27
g2
Ntp578
Rp579
(dp580
g20
I11
sg21
I9
sg31
(I4
I4
I4
I4
tp581
sbaaa(lp582
(lp583
g0
(g16
g2
Ntp584
Rp585
(dp586
g20
I0
sg21
I10
sbaa(lp587
g0
(g16
g2
Ntp588
Rp589
(dp590
g20
I1
sg21
I10
sbaa(lp591
g0
(g16
g2
Ntp592
Rp593
(dp594
g20
I2
sg21
I10
sbaa(lp595
g0
(g27
g2
Ntp596
Rp597
(dp598
g20
I3
sg21
I10
sg31
(I0
I0
I2
I2
tp599
sbaa(lp600
g0
(g27
g2
Ntp601
Rp602
(dp603
g20
I4
sg21
I10
sg31
(I2
I3
I2
I4
tp604
sbaa(lp605
g0
(g27
g2
Ntp606
Rp607
(dp608
g20
I5
sg21
I10
sg31
(I3
I4
I4
I4
tp609
sbaa(lp610
g0
(g27
g2
Ntp611
Rp612
(dp613
g20
I6
sg21
I10
sg31
(I4
I4
I4
I4
tp614
sbaa(lp615
g0
(g27
g2
Ntp616
Rp617
(dp618
g20
I7
sg21
I10
sg31
(I4
I4
I4
I4
tp619
sbaa(lp620
g0
(g27
g2
Ntp621
Rp622
(dp623
g20
I8
sg21
I10
sg31
(I4
I4
I4
I4
tp624
sbaa(lp625
g0
(g27
g2
Ntp626
Rp627
(dp628
g20
I9
sg21
I10
sg31
(I4
I4
I4
I4
tp629
sbaa(lp630
g0
(g27
g2
Ntp631
Rp632
(dp633
g20
I10
sg21
I10
sg31
(I4
I4
I4
I4
tp634
sbaa(lp635
g0
(g27
g2
Ntp636
Rp637
(dp638
g20
I11
sg21
I10
sg31
(I4
I4
I4
I4
tp639
sbaaa(lp640
(lp641
g0
(g16
g2
Ntp642
Rp643
(dp644
g20
I0
sg21
I11
sbaa(lp645
g0
(g16
g2
Ntp646
Rp647
(dp648
g20
I1
sg21
I11
sbaa(lp649
g0
(g16
g2
Ntp650
Rp651
(dp652
g20
I2
sg21
I11
sbaa(lp653
g0
(g16
g2
Ntp654
Rp655
(dp656
g20
I3
sg21
I11
sbaa(lp657
g0
(g27
g2
Ntp658
Rp659
(dp660
g20
I4
sg21
I11
sg31
(I1
I1
I4
I4
tp661
sbaa(lp662
g0
(g27
g2
Ntp663
Rp664
(dp665
g20
I5
sg21
I11
sg31
(I4
I4
I4
I4
tp666
sbaa(lp667
g0
(g27
g2
Ntp668
Rp669
(dp670
g20
I6
sg21
I11
sg31
(I4
I4
I4
I4
tp671
sbaa(lp672
g0
(g27
g2
Ntp673
Rp674
(dp675
g20
I7
sg21
I11
sg31
(I4
I4
I4
I4
tp676
sbaa(lp677
g0
(g27
g2
Ntp678
Rp679
(dp680
g20
I8
sg21
I11
sg31
(I4
I4
I4
I4
tp681
sbaa(lp682
g0
(g27
g2
Ntp683
Rp684
(dp685
g20
I9
sg21
I11
sg31
(I4
I4
I4
I4
tp686
sbaa(lp687
g0
(g27
g2
Ntp688
Rp689
(dp690
g20
I10
sg21
I11
sg31
(I4
I4
I4
I4
tp691
sbaa(lp692
g0
(g27
g2
Ntp693
Rp694
(dp695
g20
I11
sg21
I11
sg31
(I4
I4
I4
I4
tp696
sbaaasS'iscale'
p697
I3
sb.