ccopy_reg
_reconstructor
p0
(cBoard
Board
p1
c__builtin__
object
p2
Ntp3
Rp4
(dp5
S'sy'
p6
I12
sS'sx'
p7
I12
sS'rscale'
p8
I64
sS'ascale'
p9
I4
sS't'
p10
(lp11
(lp12
(lp13
g0
(cTiles
Air
p14
g2
Ntp15
Rp16
(dp17
S'y'
p18
I0
sS'x'
p19
I0
sbaa(lp20
g0
(g14
g2
Ntp21
Rp22
(dp23
g18
I1
sg19
I0
sbaa(lp24
g0
(g14
g2
Ntp25
Rp26
(dp27
g18
I2
sg19
I0
sbaa(lp28
g0
(g14
g2
Ntp29
Rp30
(dp31
g18
I3
sg19
I0
sbaa(lp32
g0
(g14
g2
Ntp33
Rp34
(dp35
g18
I4
sg19
I0
sbaa(lp36
g0
(g14
g2
Ntp37
Rp38
(dp39
g18
I5
sg19
I0
sbaa(lp40
g0
(g14
g2
Ntp41
Rp42
(dp43
g18
I6
sg19
I0
sbag0
(cTiles
Cheese
p44
g2
Ntp45
Rp46
(dp47
g18
I6
sg19
I0
sS'gshape'
p48
g0
(cTiles
GravShape
p49
g2
Ntp50
Rp51
(dp52
S'tiles'
p53
(lp54
g0
(g44
g2
Ntp55
Rp56
(dp57
g18
I8
sg19
I0
sg48
g51
sS'corners'
p58
(I2
I4
I0
I1
tp59
sbag0
(g44
g2
Ntp60
Rp61
(dp62
g18
I7
sg19
I0
sg48
g51
sg58
(I2
I4
I2
I4
tp63
sbag46
ag0
(g44
g2
Ntp64
Rp65
(dp66
g18
I6
sg19
I1
sg48
g51
sg58
(I1
I1
I4
I4
tp67
sbag0
(g44
g2
Ntp68
Rp69
(dp70
g18
I6
sg19
I2
sg48
g51
sg58
(I1
I0
I4
I2
tp71
sbag0
(g44
g2
Ntp72
Rp73
(dp74
g18
I7
sg19
I2
sg48
g51
sg58
(I4
I2
I4
I2
tp75
sbag0
(g44
g2
Ntp76
Rp77
(dp78
g18
I8
sg19
I2
sg48
g51
sg58
(I4
I2
I1
I0
tp79
sbag0
(g44
g2
Ntp80
Rp81
(dp82
g18
I8
sg19
I1
sg48
g51
sg58
(I4
I4
I1
I1
tp83
sbag0
(g44
g2
Ntp84
Rp85
(dp86
g18
I7
sg19
I1
sg48
g51
sg58
(I4
I4
I4
I4
tp87
sbasbsg58
(I0
I1
I2
I4
tp88
sbaa(lp89
g0
(g14
g2
Ntp90
Rp91
(dp92
g18
I7
sg19
I0
sbag61
aa(lp93
g0
(g14
g2
Ntp94
Rp95
(dp96
g18
I8
sg19
I0
sbag56
aa(lp97
g0
(g14
g2
Ntp98
Rp99
(dp100
g18
I9
sg19
I0
sbaa(lp101
g0
(g14
g2
Ntp102
Rp103
(dp104
g18
I10
sg19
I0
sbag0
(cSnake
SnakeSeg
p105
g2
Ntp106
Rp107
(dp108
g48
g0
(cSnake
Snake
p109
g2
Ntp110
Rp111
(dp112
S'iid'
p113
I3
sg53
(lp114
g107
ag0
(g105
g2
Ntp115
Rp116
(dp117
g48
g111
sS'snake'
p118
g111
sS'fdir'
p119
I2
sg18
I10
sg19
I1
sS'bdir'
p120
I8
sbag0
(cSnake
SnakeHead
p121
g2
Ntp122
Rp123
(dp124
g18
I10
sg19
I2
sg48
g111
sg118
g111
sS'd'
p125
I1
sbasbsg118
g111
sg119
I2
sg18
I10
sg19
I0
sg120
I0
sbaa(lp126
g0
(cTiles
Dirt
p127
g2
Ntp128
Rp129
(dp130
g18
I11
sg19
I0
sg58
(I1
I1
I4
I4
tp131
sbaaa(lp132
(lp133
g0
(g14
g2
Ntp134
Rp135
(dp136
g18
I0
sg19
I1
sbaa(lp137
g0
(g14
g2
Ntp138
Rp139
(dp140
g18
I1
sg19
I1
sbaa(lp141
g0
(g14
g2
Ntp142
Rp143
(dp144
g18
I2
sg19
I1
sbaa(lp145
g0
(g14
g2
Ntp146
Rp147
(dp148
g18
I3
sg19
I1
sbaa(lp149
g0
(g14
g2
Ntp150
Rp151
(dp152
g18
I4
sg19
I1
sbaa(lp153
g0
(g14
g2
Ntp154
Rp155
(dp156
g18
I5
sg19
I1
sbaa(lp157
g0
(g14
g2
Ntp158
Rp159
(dp160
g18
I6
sg19
I1
sbag65
aa(lp161
g0
(g14
g2
Ntp162
Rp163
(dp164
g18
I7
sg19
I1
sbag85
aa(lp165
g0
(g14
g2
Ntp166
Rp167
(dp168
g18
I8
sg19
I1
sbag81
aa(lp169
g0
(cTiles
WoodPlatform
p170
g2
Ntp171
Rp172
(dp173
g18
I9
sg19
I1
sS'i'
p174
I0
sbaa(lp175
g0
(g14
g2
Ntp176
Rp177
(dp178
g18
I10
sg19
I1
sbag116
aa(lp179
g0
(g127
g2
Ntp180
Rp181
(dp182
g18
I11
sg19
I1
sg58
(I1
I1
I4
I4
tp183
sbaaa(lp184
(lp185
g0
(g14
g2
Ntp186
Rp187
(dp188
g18
I0
sg19
I2
sbaa(lp189
g0
(g14
g2
Ntp190
Rp191
(dp192
g18
I1
sg19
I2
sbaa(lp193
g0
(g14
g2
Ntp194
Rp195
(dp196
g18
I2
sg19
I2
sbaa(lp197
g0
(g14
g2
Ntp198
Rp199
(dp200
g18
I3
sg19
I2
sbaa(lp201
g0
(g14
g2
Ntp202
Rp203
(dp204
g18
I4
sg19
I2
sbaa(lp205
g0
(g14
g2
Ntp206
Rp207
(dp208
g18
I5
sg19
I2
sbaa(lp209
g0
(g14
g2
Ntp210
Rp211
(dp212
g18
I6
sg19
I2
sbag69
aa(lp213
g0
(g14
g2
Ntp214
Rp215
(dp216
g18
I7
sg19
I2
sbag73
aa(lp217
g0
(g14
g2
Ntp218
Rp219
(dp220
g18
I8
sg19
I2
sbag77
aa(lp221
g0
(g14
g2
Ntp222
Rp223
(dp224
g18
I9
sg19
I2
sbaa(lp225
g0
(g14
g2
Ntp226
Rp227
(dp228
g18
I10
sg19
I2
sbag123
aa(lp229
g0
(g127
g2
Ntp230
Rp231
(dp232
g18
I11
sg19
I2
sg58
(I1
I1
I4
I4
tp233
sbaaa(lp234
(lp235
g0
(g14
g2
Ntp236
Rp237
(dp238
g18
I0
sg19
I3
sbaa(lp239
g0
(g14
g2
Ntp240
Rp241
(dp242
g18
I1
sg19
I3
sbaa(lp243
g0
(g14
g2
Ntp244
Rp245
(dp246
g18
I2
sg19
I3
sbaa(lp247
g0
(g14
g2
Ntp248
Rp249
(dp250
g18
I3
sg19
I3
sbaa(lp251
g0
(g14
g2
Ntp252
Rp253
(dp254
g18
I4
sg19
I3
sbaa(lp255
g0
(g14
g2
Ntp256
Rp257
(dp258
g18
I5
sg19
I3
sbaa(lp259
g0
(g14
g2
Ntp260
Rp261
(dp262
g18
I6
sg19
I3
sbaa(lp263
g0
(g14
g2
Ntp264
Rp265
(dp266
g18
I7
sg19
I3
sbaa(lp267
g0
(g14
g2
Ntp268
Rp269
(dp270
g18
I8
sg19
I3
sbaa(lp271
g0
(g14
g2
Ntp272
Rp273
(dp274
g18
I9
sg19
I3
sbaa(lp275
g0
(g14
g2
Ntp276
Rp277
(dp278
g18
I10
sg19
I3
sbaa(lp279
g0
(g127
g2
Ntp280
Rp281
(dp282
g18
I11
sg19
I3
sg58
(I1
I1
I4
I4
tp283
sbaaa(lp284
(lp285
g0
(g14
g2
Ntp286
Rp287
(dp288
g18
I0
sg19
I4
sbaa(lp289
g0
(g14
g2
Ntp290
Rp291
(dp292
g18
I1
sg19
I4
sbaa(lp293
g0
(g14
g2
Ntp294
Rp295
(dp296
g18
I2
sg19
I4
sbaa(lp297
g0
(g14
g2
Ntp298
Rp299
(dp300
g18
I3
sg19
I4
sbaa(lp301
g0
(g14
g2
Ntp302
Rp303
(dp304
g18
I4
sg19
I4
sbaa(lp305
g0
(g14
g2
Ntp306
Rp307
(dp308
g18
I5
sg19
I4
sbaa(lp309
g0
(g14
g2
Ntp310
Rp311
(dp312
g18
I6
sg19
I4
sbaa(lp313
g0
(g14
g2
Ntp314
Rp315
(dp316
g18
I7
sg19
I4
sbaa(lp317
g0
(g14
g2
Ntp318
Rp319
(dp320
g18
I8
sg19
I4
sbaa(lp321
g0
(g14
g2
Ntp322
Rp323
(dp324
g18
I9
sg19
I4
sbaa(lp325
g0
(g14
g2
Ntp326
Rp327
(dp328
g18
I10
sg19
I4
sbaa(lp329
g0
(g127
g2
Ntp330
Rp331
(dp332
g18
I11
sg19
I4
sg58
(I1
I1
I4
I4
tp333
sbaaa(lp334
(lp335
g0
(g127
g2
Ntp336
Rp337
(dp338
g18
I0
sg19
I5
sg58
(I2
I4
I2
I4
tp339
sbaa(lp340
g0
(g127
g2
Ntp341
Rp342
(dp343
g18
I1
sg19
I5
sg58
(I2
I4
I2
I4
tp344
sbaa(lp345
g0
(g127
g2
Ntp346
Rp347
(dp348
g18
I2
sg19
I5
sg58
(I2
I4
I2
I4
tp349
sbaa(lp350
g0
(g127
g2
Ntp351
Rp352
(dp353
g18
I3
sg19
I5
sg58
(I2
I4
I2
I4
tp354
sbaa(lp355
g0
(g127
g2
Ntp356
Rp357
(dp358
g18
I4
sg19
I5
sg58
(I2
I4
I2
I4
tp359
sbaa(lp360
g0
(g127
g2
Ntp361
Rp362
(dp363
g18
I5
sg19
I5
sg58
(I2
I4
I2
I4
tp364
sbaa(lp365
g0
(g127
g2
Ntp366
Rp367
(dp368
g18
I6
sg19
I5
sg58
(I2
I4
I2
I4
tp369
sbaa(lp370
g0
(g127
g2
Ntp371
Rp372
(dp373
g18
I7
sg19
I5
sg58
(I2
I4
I2
I4
tp374
sbaa(lp375
g0
(g127
g2
Ntp376
Rp377
(dp378
g18
I8
sg19
I5
sg58
(I2
I4
I0
I1
tp379
sbaa(lp380
g0
(g14
g2
Ntp381
Rp382
(dp383
g18
I9
sg19
I5
sbaa(lp384
g0
(g14
g2
Ntp385
Rp386
(dp387
g18
I10
sg19
I5
sbag0
(g121
g2
Ntp388
Rp389
(dp390
g18
I10
sg19
I5
sg48
g0
(g109
g2
Ntp391
Rp392
(dp393
g113
I5
sg53
(lp394
g0
(g105
g2
Ntp395
Rp396
(dp397
g48
g392
sg118
g392
sg119
I8
sg18
I10
sg19
I6
sg120
I0
sbag389
asbsg118
g392
sg125
I3
sbaa(lp398
g0
(g127
g2
Ntp399
Rp400
(dp401
g18
I11
sg19
I5
sg58
(I1
I1
I4
I4
tp402
sbaaa(lp403
(lp404
g0
(g127
g2
Ntp405
Rp406
(dp407
g18
I0
sg19
I6
sg58
(I4
I2
I4
I2
tp408
sbaa(lp409
g0
(g127
g2
Ntp410
Rp411
(dp412
g18
I1
sg19
I6
sg58
(I4
I2
I4
I2
tp413
sbaa(lp414
g0
(g127
g2
Ntp415
Rp416
(dp417
g18
I2
sg19
I6
sg58
(I4
I2
I4
I2
tp418
sbaa(lp419
g0
(g127
g2
Ntp420
Rp421
(dp422
g18
I3
sg19
I6
sg58
(I4
I2
I4
I2
tp423
sbaa(lp424
g0
(g127
g2
Ntp425
Rp426
(dp427
g18
I4
sg19
I6
sg58
(I4
I2
I4
I2
tp428
sbaa(lp429
g0
(g127
g2
Ntp430
Rp431
(dp432
g18
I5
sg19
I6
sg58
(I4
I2
I4
I2
tp433
sbaa(lp434
g0
(g127
g2
Ntp435
Rp436
(dp437
g18
I6
sg19
I6
sg58
(I4
I2
I4
I2
tp438
sbaa(lp439
g0
(g127
g2
Ntp440
Rp441
(dp442
g18
I7
sg19
I6
sg58
(I4
I2
I4
I2
tp443
sbaa(lp444
g0
(g127
g2
Ntp445
Rp446
(dp447
g18
I8
sg19
I6
sg58
(I4
I2
I1
I0
tp448
sbaa(lp449
g0
(g14
g2
Ntp450
Rp451
(dp452
g18
I9
sg19
I6
sbaa(lp453
g0
(g14
g2
Ntp454
Rp455
(dp456
g18
I10
sg19
I6
sbag396
aa(lp457
g0
(g127
g2
Ntp458
Rp459
(dp460
g18
I11
sg19
I6
sg58
(I1
I1
I4
I4
tp461
sbaaa(lp462
(lp463
g0
(g14
g2
Ntp464
Rp465
(dp466
g18
I0
sg19
I7
sbaa(lp467
g0
(g14
g2
Ntp468
Rp469
(dp470
g18
I1
sg19
I7
sbaa(lp471
g0
(g14
g2
Ntp472
Rp473
(dp474
g18
I2
sg19
I7
sbaa(lp475
g0
(g14
g2
Ntp476
Rp477
(dp478
g18
I3
sg19
I7
sbaa(lp479
g0
(g14
g2
Ntp480
Rp481
(dp482
g18
I4
sg19
I7
sbaa(lp483
g0
(g14
g2
Ntp484
Rp485
(dp486
g18
I5
sg19
I7
sbaa(lp487
g0
(g14
g2
Ntp488
Rp489
(dp490
g18
I6
sg19
I7
sbaa(lp491
g0
(g14
g2
Ntp492
Rp493
(dp494
g18
I7
sg19
I7
sbaa(lp495
g0
(g14
g2
Ntp496
Rp497
(dp498
g18
I8
sg19
I7
sbaa(lp499
g0
(g14
g2
Ntp500
Rp501
(dp502
g18
I9
sg19
I7
sbaa(lp503
g0
(g14
g2
Ntp504
Rp505
(dp506
g18
I10
sg19
I7
sbaa(lp507
g0
(g127
g2
Ntp508
Rp509
(dp510
g18
I11
sg19
I7
sg58
(I1
I1
I4
I4
tp511
sbaaa(lp512
(lp513
g0
(g14
g2
Ntp514
Rp515
(dp516
g18
I0
sg19
I8
sbaa(lp517
g0
(g14
g2
Ntp518
Rp519
(dp520
g18
I1
sg19
I8
sbaa(lp521
g0
(g14
g2
Ntp522
Rp523
(dp524
g18
I2
sg19
I8
sbaa(lp525
g0
(g14
g2
Ntp526
Rp527
(dp528
g18
I3
sg19
I8
sbaa(lp529
g0
(g14
g2
Ntp530
Rp531
(dp532
g18
I4
sg19
I8
sbaa(lp533
g0
(g14
g2
Ntp534
Rp535
(dp536
g18
I5
sg19
I8
sbaa(lp537
g0
(g14
g2
Ntp538
Rp539
(dp540
g18
I6
sg19
I8
sbaa(lp541
g0
(g14
g2
Ntp542
Rp543
(dp544
g18
I7
sg19
I8
sbaa(lp545
g0
(g14
g2
Ntp546
Rp547
(dp548
g18
I8
sg19
I8
sbaa(lp549
g0
(g14
g2
Ntp550
Rp551
(dp552
g18
I9
sg19
I8
sbaa(lp553
g0
(g14
g2
Ntp554
Rp555
(dp556
g18
I10
sg19
I8
sbaa(lp557
g0
(g127
g2
Ntp558
Rp559
(dp560
g18
I11
sg19
I8
sg58
(I1
I1
I4
I4
tp561
sbaaa(lp562
(lp563
g0
(g14
g2
Ntp564
Rp565
(dp566
g18
I0
sg19
I9
sbaa(lp567
g0
(g14
g2
Ntp568
Rp569
(dp570
g18
I1
sg19
I9
sbaa(lp571
g0
(g14
g2
Ntp572
Rp573
(dp574
g18
I2
sg19
I9
sbaa(lp575
g0
(g14
g2
Ntp576
Rp577
(dp578
g18
I3
sg19
I9
sbaa(lp579
g0
(g14
g2
Ntp580
Rp581
(dp582
g18
I4
sg19
I9
sbaa(lp583
g0
(g14
g2
Ntp584
Rp585
(dp586
g18
I5
sg19
I9
sbaa(lp587
g0
(g14
g2
Ntp588
Rp589
(dp590
g18
I6
sg19
I9
sbaa(lp591
g0
(g14
g2
Ntp592
Rp593
(dp594
g18
I7
sg19
I9
sbaa(lp595
g0
(g14
g2
Ntp596
Rp597
(dp598
g18
I8
sg19
I9
sbaa(lp599
g0
(g14
g2
Ntp600
Rp601
(dp602
g18
I9
sg19
I9
sbaa(lp603
g0
(g14
g2
Ntp604
Rp605
(dp606
g18
I10
sg19
I9
sbaa(lp607
g0
(g127
g2
Ntp608
Rp609
(dp610
g18
I11
sg19
I9
sg58
(I1
I1
I4
I4
tp611
sbaaa(lp612
(lp613
g0
(g14
g2
Ntp614
Rp615
(dp616
g18
I0
sg19
I10
sbaa(lp617
g0
(g14
g2
Ntp618
Rp619
(dp620
g18
I1
sg19
I10
sbaa(lp621
g0
(g14
g2
Ntp622
Rp623
(dp624
g18
I2
sg19
I10
sbaa(lp625
g0
(g14
g2
Ntp626
Rp627
(dp628
g18
I3
sg19
I10
sbaa(lp629
g0
(g14
g2
Ntp630
Rp631
(dp632
g18
I4
sg19
I10
sbaa(lp633
g0
(g14
g2
Ntp634
Rp635
(dp636
g18
I5
sg19
I10
sbaa(lp637
g0
(g14
g2
Ntp638
Rp639
(dp640
g18
I6
sg19
I10
sbaa(lp641
g0
(g14
g2
Ntp642
Rp643
(dp644
g18
I7
sg19
I10
sbaa(lp645
g0
(g127
g2
Ntp646
Rp647
(dp648
g18
I8
sg19
I10
sg58
(I0
I1
I0
I1
tp649
sbaa(lp650
g0
(g14
g2
Ntp651
Rp652
(dp653
g18
I9
sg19
I10
sbaa(lp654
g0
(g14
g2
Ntp655
Rp656
(dp657
g18
I10
sg19
I10
sbaa(lp658
g0
(g127
g2
Ntp659
Rp660
(dp661
g18
I11
sg19
I10
sg58
(I1
I1
I4
I4
tp662
sbaaa(lp663
(lp664
g0
(g14
g2
Ntp665
Rp666
(dp667
g18
I0
sg19
I11
sbaa(lp668
g0
(g14
g2
Ntp669
Rp670
(dp671
g18
I1
sg19
I11
sbaa(lp672
g0
(g14
g2
Ntp673
Rp674
(dp675
g18
I2
sg19
I11
sbaa(lp676
g0
(g14
g2
Ntp677
Rp678
(dp679
g18
I3
sg19
I11
sbaa(lp680
g0
(g14
g2
Ntp681
Rp682
(dp683
g18
I4
sg19
I11
sbaa(lp684
g0
(g14
g2
Ntp685
Rp686
(dp687
g18
I5
sg19
I11
sbaa(lp688
g0
(g14
g2
Ntp689
Rp690
(dp691
g18
I6
sg19
I11
sbaa(lp692
g0
(cTiles
Portal
p693
g2
Ntp694
Rp695
(dp696
g18
I7
sg19
I11
sg174
I01
sbaa(lp697
g0
(g127
g2
Ntp698
Rp699
(dp700
g18
I8
sg19
I11
sg58
(I1
I1
I1
I1
tp701
sbaa(lp702
g0
(g14
g2
Ntp703
Rp704
(dp705
g18
I9
sg19
I11
sbaa(lp706
g0
(g14
g2
Ntp707
Rp708
(dp709
g18
I10
sg19
I11
sbaa(lp710
g0
(g127
g2
Ntp711
Rp712
(dp713
g18
I11
sg19
I11
sg58
(I1
I1
I4
I4
tp714
sbaaasS'iscale'
p715
I3
sb.