ccopy_reg
_reconstructor
p0
(cBoard
Board
p1
c__builtin__
object
p2
Ntp3
Rp4
(dp5
S'sy'
p6
I12
sS'sx'
p7
I15
sS'rscale'
p8
I64
sS'ascale'
p9
I4
sS't'
p10
(lp11
(lp12
(lp13
a(lp14
a(lp15
a(lp16
a(lp17
a(lp18
a(lp19
a(lp20
g0
(cSnake
SnakeSeg
p21
g2
Ntp22
Rp23
(dp24
S'gshape'
p25
g0
(cSnake
Snake
p26
g2
Ntp27
Rp28
(dp29
S'iid'
p30
I2
sS'tiles'
p31
(lp32
g0
(g21
g2
Ntp33
Rp34
(dp35
g25
g28
sS'snake'
p36
g28
sS'fdir'
p37
I1
sS'y'
p38
I8
sS'x'
p39
I0
sS'bdir'
p40
I0
sbag23
ag0
(g21
g2
Ntp41
Rp42
(dp43
g25
g28
sg36
g28
sg37
I4
sg38
I7
sg39
I1
sg40
I8
sbag0
(g21
g2
Ntp44
Rp45
(dp46
g25
g28
sg36
g28
sg37
I2
sg38
I8
sg39
I1
sg40
I1
sbag0
(cSnake
SnakeHead
p47
g2
Ntp48
Rp49
(dp50
g38
I8
sg39
I2
sg25
g28
sg36
g28
sS'd'
p51
I1
sbasbsg36
g28
sg37
I2
sg38
I7
sg39
I0
sg40
I4
sbaa(lp52
g34
aa(lp53
g0
(cTiles
Dirt
p54
g2
Ntp55
Rp56
(dp57
g38
I9
sg39
I0
sS'corners'
p58
(I1
I1
I4
I4
tp59
sbaa(lp60
g0
(g54
g2
Ntp61
Rp62
(dp63
g38
I10
sg39
I0
sg58
(I4
I4
I4
I4
tp64
sbaa(lp65
g0
(g54
g2
Ntp66
Rp67
(dp68
g38
I11
sg39
I0
sg58
(I4
I4
I4
I4
tp69
sbaaa(lp70
(lp71
a(lp72
a(lp73
a(lp74
a(lp75
a(lp76
a(lp77
a(lp78
g42
aa(lp79
g45
aa(lp80
g0
(g54
g2
Ntp81
Rp82
(dp83
g38
I9
sg39
I1
sg58
(I1
I1
I4
I4
tp84
sbaa(lp85
g0
(g54
g2
Ntp86
Rp87
(dp88
g38
I10
sg39
I1
sg58
(I4
I4
I4
I4
tp89
sbaa(lp90
g0
(g54
g2
Ntp91
Rp92
(dp93
g38
I11
sg39
I1
sg58
(I4
I4
I4
I4
tp94
sbaaa(lp95
(lp96
a(lp97
a(lp98
a(lp99
a(lp100
a(lp101
a(lp102
a(lp103
a(lp104
g49
aa(lp105
g0
(g54
g2
Ntp106
Rp107
(dp108
g38
I9
sg39
I2
sg58
(I1
I1
I4
I4
tp109
sbaa(lp110
g0
(g54
g2
Ntp111
Rp112
(dp113
g38
I10
sg39
I2
sg58
(I4
I4
I4
I4
tp114
sbaa(lp115
g0
(g54
g2
Ntp116
Rp117
(dp118
g38
I11
sg39
I2
sg58
(I4
I4
I4
I4
tp119
sbaaa(lp120
(lp121
a(lp122
a(lp123
a(lp124
a(lp125
a(lp126
a(lp127
a(lp128
a(lp129
a(lp130
g0
(g54
g2
Ntp131
Rp132
(dp133
g38
I9
sg39
I3
sg58
(I1
I1
I4
I4
tp134
sbaa(lp135
g0
(g54
g2
Ntp136
Rp137
(dp138
g38
I10
sg39
I3
sg58
(I4
I4
I4
I4
tp139
sbaa(lp140
g0
(g54
g2
Ntp141
Rp142
(dp143
g38
I11
sg39
I3
sg58
(I4
I4
I4
I4
tp144
sbaaa(lp145
(lp146
a(lp147
a(lp148
a(lp149
a(lp150
a(lp151
a(lp152
a(lp153
g0
(cTiles
Block
p154
g2
Ntp155
Rp156
(dp157
g38
I7
sg39
I4
sg25
g0
(cTiles
BGravShape
p158
g2
Ntp159
Rp160
(dp161
g30
I0
sg31
(lp162
g0
(g154
g2
Ntp163
Rp164
(dp165
g38
I8
sg39
I4
sg25
g160
sg58
(I2
I4
I0
I1
tp166
sbag156
ag0
(g154
g2
Ntp167
Rp168
(dp169
g38
I7
sg39
I5
sg25
g160
sg58
(I1
I0
I4
I2
tp170
sbag0
(g154
g2
Ntp171
Rp172
(dp173
g38
I8
sg39
I5
sg25
g160
sg58
(I4
I2
I1
I0
tp174
sbasbsg58
(I0
I1
I2
I4
tp175
sbaa(lp176
g164
aa(lp177
g0
(g54
g2
Ntp178
Rp179
(dp180
g38
I9
sg39
I4
sg58
(I1
I1
I4
I4
tp181
sbaa(lp182
g0
(g54
g2
Ntp183
Rp184
(dp185
g38
I10
sg39
I4
sg58
(I4
I4
I4
I4
tp186
sbaa(lp187
g0
(g54
g2
Ntp188
Rp189
(dp190
g38
I11
sg39
I4
sg58
(I4
I4
I4
I4
tp191
sbaaa(lp192
(lp193
a(lp194
a(lp195
a(lp196
a(lp197
a(lp198
a(lp199
a(lp200
g168
aa(lp201
g172
aa(lp202
g0
(g54
g2
Ntp203
Rp204
(dp205
g38
I9
sg39
I5
sg58
(I1
I1
I4
I4
tp206
sbaa(lp207
g0
(g54
g2
Ntp208
Rp209
(dp210
g38
I10
sg39
I5
sg58
(I4
I4
I4
I4
tp211
sbaa(lp212
g0
(g54
g2
Ntp213
Rp214
(dp215
g38
I11
sg39
I5
sg58
(I4
I4
I4
I4
tp216
sbaaa(lp217
(lp218
a(lp219
a(lp220
a(lp221
a(lp222
a(lp223
a(lp224
a(lp225
a(lp226
a(lp227
g0
(g54
g2
Ntp228
Rp229
(dp230
g38
I9
sg39
I6
sg58
(I1
I0
I4
I2
tp231
sbaa(lp232
g0
(g54
g2
Ntp233
Rp234
(dp235
g38
I10
sg39
I6
sg58
(I4
I3
I4
I4
tp236
sbaa(lp237
g0
(g54
g2
Ntp238
Rp239
(dp240
g38
I11
sg39
I6
sg58
(I4
I4
I4
I4
tp241
sbaaa(lp242
(lp243
a(lp244
a(lp245
a(lp246
a(lp247
a(lp248
a(lp249
a(lp250
a(lp251
a(lp252
a(lp253
g0
(g54
g2
Ntp254
Rp255
(dp256
g38
I10
sg39
I7
sg58
(I1
I1
I4
I4
tp257
sbaa(lp258
g0
(g54
g2
Ntp259
Rp260
(dp261
g38
I11
sg39
I7
sg58
(I4
I4
I4
I4
tp262
sbaaa(lp263
(lp264
a(lp265
a(lp266
a(lp267
a(lp268
a(lp269
a(lp270
a(lp271
a(lp272
a(lp273
a(lp274
g0
(g54
g2
Ntp275
Rp276
(dp277
g38
I10
sg39
I8
sg58
(I1
I1
I4
I4
tp278
sbaa(lp279
g0
(g54
g2
Ntp280
Rp281
(dp282
g38
I11
sg39
I8
sg58
(I4
I4
I4
I4
tp283
sbaaa(lp284
(lp285
a(lp286
a(lp287
a(lp288
a(lp289
a(lp290
a(lp291
a(lp292
a(lp293
g0
(g54
g2
Ntp294
Rp295
(dp296
g38
I8
sg39
I9
sg58
(I0
I1
I2
I4
tp297
sbaa(lp298
g0
(g54
g2
Ntp299
Rp300
(dp301
g38
I9
sg39
I9
sg58
(I2
I4
I2
I4
tp302
sbaa(lp303
g0
(g54
g2
Ntp304
Rp305
(dp306
g38
I10
sg39
I9
sg58
(I3
I4
I4
I4
tp307
sbaa(lp308
g0
(g54
g2
Ntp309
Rp310
(dp311
g38
I11
sg39
I9
sg58
(I4
I4
I4
I4
tp312
sbaaa(lp313
(lp314
a(lp315
a(lp316
a(lp317
a(lp318
a(lp319
a(lp320
a(lp321
a(lp322
g0
(g54
g2
Ntp323
Rp324
(dp325
g38
I8
sg39
I10
sg58
(I1
I1
I4
I4
tp326
sbaa(lp327
g0
(g54
g2
Ntp328
Rp329
(dp330
g38
I9
sg39
I10
sg58
(I4
I4
I4
I4
tp331
sbaa(lp332
g0
(g54
g2
Ntp333
Rp334
(dp335
g38
I10
sg39
I10
sg58
(I4
I4
I4
I4
tp336
sbaa(lp337
g0
(g54
g2
Ntp338
Rp339
(dp340
g38
I11
sg39
I10
sg58
(I4
I4
I4
I4
tp341
sbaaa(lp342
(lp343
a(lp344
a(lp345
a(lp346
a(lp347
a(lp348
a(lp349
a(lp350
g0
(cTiles
Portal
p351
g2
Ntp352
Rp353
(dp354
g38
I7
sg39
I11
sS'i'
p355
I01
sbaa(lp356
g0
(g54
g2
Ntp357
Rp358
(dp359
g38
I8
sg39
I11
sg58
(I1
I1
I4
I4
tp360
sbaa(lp361
g0
(g54
g2
Ntp362
Rp363
(dp364
g38
I9
sg39
I11
sg58
(I4
I4
I4
I4
tp365
sbaa(lp366
g0
(g54
g2
Ntp367
Rp368
(dp369
g38
I10
sg39
I11
sg58
(I4
I4
I4
I4
tp370
sbaa(lp371
g0
(g54
g2
Ntp372
Rp373
(dp374
g38
I11
sg39
I11
sg58
(I4
I4
I4
I4
tp375
sbaaa(lp376
(lp377
a(lp378
a(lp379
a(lp380
g0
(g54
g2
Ntp381
Rp382
(dp383
g38
I3
sg39
I12
sg58
(I0
I1
I2
I4
tp384
sbaa(lp385
g0
(g54
g2
Ntp386
Rp387
(dp388
g38
I4
sg39
I12
sg58
(I2
I4
I2
I4
tp389
sbaa(lp390
g0
(g54
g2
Ntp391
Rp392
(dp393
g38
I5
sg39
I12
sg58
(I2
I4
I2
I4
tp394
sbaa(lp395
g0
(g54
g2
Ntp396
Rp397
(dp398
g38
I6
sg39
I12
sg58
(I2
I4
I2
I4
tp399
sbaa(lp400
g0
(g54
g2
Ntp401
Rp402
(dp403
g38
I7
sg39
I12
sg58
(I2
I4
I2
I4
tp404
sbaa(lp405
g0
(g54
g2
Ntp406
Rp407
(dp408
g38
I8
sg39
I12
sg58
(I3
I4
I4
I4
tp409
sbaa(lp410
g0
(g54
g2
Ntp411
Rp412
(dp413
g38
I9
sg39
I12
sg58
(I4
I4
I4
I4
tp414
sbaa(lp415
g0
(g54
g2
Ntp416
Rp417
(dp418
g38
I10
sg39
I12
sg58
(I4
I4
I4
I4
tp419
sbaa(lp420
g0
(g54
g2
Ntp421
Rp422
(dp423
g38
I11
sg39
I12
sg58
(I4
I4
I4
I4
tp424
sbaaa(lp425
(lp426
a(lp427
g0
(cTiles
Fruit
p428
g2
Ntp429
Rp430
(dp431
g38
I1
sg39
I13
sg30
I2
sbaa(lp432
a(lp433
g0
(g54
g2
Ntp434
Rp435
(dp436
g38
I3
sg39
I13
sg58
(I1
I1
I4
I4
tp437
sbaa(lp438
g0
(g54
g2
Ntp439
Rp440
(dp441
g38
I4
sg39
I13
sg58
(I4
I4
I4
I4
tp442
sbaa(lp443
g0
(g54
g2
Ntp444
Rp445
(dp446
g38
I5
sg39
I13
sg58
(I4
I4
I4
I4
tp447
sbaa(lp448
g0
(g54
g2
Ntp449
Rp450
(dp451
g38
I6
sg39
I13
sg58
(I4
I4
I4
I4
tp452
sbaa(lp453
g0
(g54
g2
Ntp454
Rp455
(dp456
g38
I7
sg39
I13
sg58
(I4
I4
I4
I4
tp457
sbaa(lp458
g0
(g54
g2
Ntp459
Rp460
(dp461
g38
I8
sg39
I13
sg58
(I4
I4
I4
I4
tp462
sbaa(lp463
g0
(g54
g2
Ntp464
Rp465
(dp466
g38
I9
sg39
I13
sg58
(I4
I4
I4
I4
tp467
sbaa(lp468
g0
(g54
g2
Ntp469
Rp470
(dp471
g38
I10
sg39
I13
sg58
(I4
I4
I4
I4
tp472
sbaa(lp473
g0
(g54
g2
Ntp474
Rp475
(dp476
g38
I11
sg39
I13
sg58
(I4
I4
I4
I4
tp477
sbaaa(lp478
(lp479
a(lp480
a(lp481
a(lp482
g0
(g54
g2
Ntp483
Rp484
(dp485
g38
I3
sg39
I14
sg58
(I1
I1
I4
I4
tp486
sbaa(lp487
g0
(g54
g2
Ntp488
Rp489
(dp490
g38
I4
sg39
I14
sg58
(I4
I4
I4
I4
tp491
sbaa(lp492
g0
(g54
g2
Ntp493
Rp494
(dp495
g38
I5
sg39
I14
sg58
(I4
I4
I4
I4
tp496
sbaa(lp497
g0
(g54
g2
Ntp498
Rp499
(dp500
g38
I6
sg39
I14
sg58
(I4
I4
I4
I4
tp501
sbaa(lp502
g0
(g54
g2
Ntp503
Rp504
(dp505
g38
I7
sg39
I14
sg58
(I4
I4
I4
I4
tp506
sbaa(lp507
g0
(g54
g2
Ntp508
Rp509
(dp510
g38
I8
sg39
I14
sg58
(I4
I4
I4
I4
tp511
sbaa(lp512
g0
(g54
g2
Ntp513
Rp514
(dp515
g38
I9
sg39
I14
sg58
(I4
I4
I4
I4
tp516
sbaa(lp517
g0
(g54
g2
Ntp518
Rp519
(dp520
g38
I10
sg39
I14
sg58
(I4
I4
I4
I4
tp521
sbaa(lp522
g0
(g54
g2
Ntp523
Rp524
(dp525
g38
I11
sg39
I14
sg58
(I4
I4
I4
I4
tp526
sbaaasS'iscale'
p527
I3
sb.