ccopy_reg
_reconstructor
p0
(cBoard
Board
p1
c__builtin__
object
p2
Ntp3
Rp4
(dp5
S'sy'
p6
I12
sS'sx'
p7
I12
sS'rscale'
p8
I64
sS'ascale'
p9
I4
sS't'
p10
(lp11
(lp12
(lp13
g0
(cTiles
Air
p14
g2
Ntp15
Rp16
(dp17
S'y'
p18
I0
sS'x'
p19
I0
sbaa(lp20
g0
(g14
g2
Ntp21
Rp22
(dp23
g18
I1
sg19
I0
sbaa(lp24
g0
(g14
g2
Ntp25
Rp26
(dp27
g18
I2
sg19
I0
sbaa(lp28
g0
(g14
g2
Ntp29
Rp30
(dp31
g18
I3
sg19
I0
sbaa(lp32
g0
(g14
g2
Ntp33
Rp34
(dp35
g18
I4
sg19
I0
sbaa(lp36
g0
(g14
g2
Ntp37
Rp38
(dp39
g18
I5
sg19
I0
sbaa(lp40
g0
(g14
g2
Ntp41
Rp42
(dp43
g18
I6
sg19
I0
sbaa(lp44
g0
(cTiles
Dirt
p45
g2
Ntp46
Rp47
(dp48
g18
I7
sg19
I0
sS'corners'
p49
(I1
I0
I4
I2
tp50
sbaa(lp51
g0
(g45
g2
Ntp52
Rp53
(dp54
g18
I8
sg19
I0
sg49
(I4
I2
I1
I0
tp55
sbaa(lp56
g0
(cTiles
Spikes
p57
g2
Ntp58
Rp59
(dp60
g18
I9
sg19
I0
sS'i'
p61
I5
sbaa(lp62
g0
(g57
g2
Ntp63
Rp64
(dp65
g18
I10
sg19
I0
sg61
I5
sbaa(lp66
g0
(g57
g2
Ntp67
Rp68
(dp69
g18
I11
sg19
I0
sg61
I3
sbaaa(lp70
(lp71
g0
(g14
g2
Ntp72
Rp73
(dp74
g18
I0
sg19
I1
sbaa(lp75
g0
(g14
g2
Ntp76
Rp77
(dp78
g18
I1
sg19
I1
sbaa(lp79
g0
(g14
g2
Ntp80
Rp81
(dp82
g18
I2
sg19
I1
sbaa(lp83
g0
(g14
g2
Ntp84
Rp85
(dp86
g18
I3
sg19
I1
sbaa(lp87
g0
(g14
g2
Ntp88
Rp89
(dp90
g18
I4
sg19
I1
sbaa(lp91
g0
(g14
g2
Ntp92
Rp93
(dp94
g18
I5
sg19
I1
sbaa(lp95
g0
(g14
g2
Ntp96
Rp97
(dp98
g18
I6
sg19
I1
sbaa(lp99
g0
(g14
g2
Ntp100
Rp101
(dp102
g18
I7
sg19
I1
sbaa(lp103
g0
(g14
g2
Ntp104
Rp105
(dp106
g18
I8
sg19
I1
sbaa(lp107
g0
(g14
g2
Ntp108
Rp109
(dp110
g18
I9
sg19
I1
sbaa(lp111
g0
(g14
g2
Ntp112
Rp113
(dp114
g18
I10
sg19
I1
sbaa(lp115
g0
(g57
g2
Ntp116
Rp117
(dp118
g18
I11
sg19
I1
sg61
I10
sbaaa(lp119
(lp120
g0
(g14
g2
Ntp121
Rp122
(dp123
g18
I0
sg19
I2
sbaa(lp124
g0
(g14
g2
Ntp125
Rp126
(dp127
g18
I1
sg19
I2
sbaa(lp128
g0
(g14
g2
Ntp129
Rp130
(dp131
g18
I2
sg19
I2
sbaa(lp132
g0
(g14
g2
Ntp133
Rp134
(dp135
g18
I3
sg19
I2
sbaa(lp136
g0
(g14
g2
Ntp137
Rp138
(dp139
g18
I4
sg19
I2
sbaa(lp140
g0
(g14
g2
Ntp141
Rp142
(dp143
g18
I5
sg19
I2
sbaa(lp144
g0
(g14
g2
Ntp145
Rp146
(dp147
g18
I6
sg19
I2
sbaa(lp148
g0
(g14
g2
Ntp149
Rp150
(dp151
g18
I7
sg19
I2
sbaa(lp152
g0
(g14
g2
Ntp153
Rp154
(dp155
g18
I8
sg19
I2
sbag0
(cSnake
SnakeSeg
p156
g2
Ntp157
Rp158
(dp159
S'gshape'
p160
g0
(cSnake
Snake
p161
g2
Ntp162
Rp163
(dp164
S'iid'
p165
I6
sS'tiles'
p166
(lp167
g158
ag0
(g156
g2
Ntp168
Rp169
(dp170
g160
g163
sS'snake'
p171
g163
sS'fdir'
p172
I2
sg18
I8
sg19
I3
sS'bdir'
p173
I8
sbag0
(g156
g2
Ntp174
Rp175
(dp176
g160
g163
sg171
g163
sg172
I2
sg18
I8
sg19
I4
sg173
I8
sbag0
(g156
g2
Ntp177
Rp178
(dp179
g160
g163
sg171
g163
sg172
I2
sg18
I8
sg19
I5
sg173
I8
sbag0
(cSnake
SnakeHead
p180
g2
Ntp181
Rp182
(dp183
g18
I8
sg19
I6
sg160
g163
sg171
g163
sS'd'
p184
I1
sbasbsg171
g163
sg172
I2
sg18
I8
sg19
I2
sg173
I0
sbaa(lp185
g0
(g45
g2
Ntp186
Rp187
(dp188
g18
I9
sg19
I2
sg49
(I0
I1
I0
I1
tp189
sbaa(lp190
g0
(g14
g2
Ntp191
Rp192
(dp193
g18
I10
sg19
I2
sbaa(lp194
g0
(g57
g2
Ntp195
Rp196
(dp197
g18
I11
sg19
I2
sg61
I10
sbaaa(lp198
(lp199
g0
(g14
g2
Ntp200
Rp201
(dp202
g18
I0
sg19
I3
sbaa(lp203
g0
(g14
g2
Ntp204
Rp205
(dp206
g18
I1
sg19
I3
sbaa(lp207
g0
(cTiles
Fruit
p208
g2
Ntp209
Rp210
(dp211
g18
I2
sg19
I3
sg165
I1
sbaa(lp212
g0
(g14
g2
Ntp213
Rp214
(dp215
g18
I3
sg19
I3
sbaa(lp216
g0
(g14
g2
Ntp217
Rp218
(dp219
g18
I4
sg19
I3
sbaa(lp220
g0
(g14
g2
Ntp221
Rp222
(dp223
g18
I5
sg19
I3
sbaa(lp224
g0
(g14
g2
Ntp225
Rp226
(dp227
g18
I6
sg19
I3
sbaa(lp228
g0
(g14
g2
Ntp229
Rp230
(dp231
g18
I7
sg19
I3
sbaa(lp232
g0
(g14
g2
Ntp233
Rp234
(dp235
g18
I8
sg19
I3
sbag169
aa(lp236
g0
(g45
g2
Ntp237
Rp238
(dp239
g18
I9
sg19
I3
sg49
(I1
I1
I1
I1
tp240
sbaa(lp241
g0
(g14
g2
Ntp242
Rp243
(dp244
g18
I10
sg19
I3
sbaa(lp245
g0
(g57
g2
Ntp246
Rp247
(dp248
g18
I11
sg19
I3
sg61
I10
sbaaa(lp249
(lp250
g0
(g14
g2
Ntp251
Rp252
(dp253
g18
I0
sg19
I4
sbaa(lp254
g0
(g14
g2
Ntp255
Rp256
(dp257
g18
I1
sg19
I4
sbaa(lp258
g0
(g14
g2
Ntp259
Rp260
(dp261
g18
I2
sg19
I4
sbaa(lp262
g0
(g14
g2
Ntp263
Rp264
(dp265
g18
I3
sg19
I4
sbaa(lp266
g0
(g14
g2
Ntp267
Rp268
(dp269
g18
I4
sg19
I4
sbaa(lp270
g0
(g14
g2
Ntp271
Rp272
(dp273
g18
I5
sg19
I4
sbaa(lp274
g0
(g14
g2
Ntp275
Rp276
(dp277
g18
I6
sg19
I4
sbaa(lp278
g0
(g14
g2
Ntp279
Rp280
(dp281
g18
I7
sg19
I4
sbaa(lp282
g0
(g14
g2
Ntp283
Rp284
(dp285
g18
I8
sg19
I4
sbag175
aa(lp286
g0
(g45
g2
Ntp287
Rp288
(dp289
g18
I9
sg19
I4
sg49
(I1
I1
I1
I1
tp290
sbaa(lp291
g0
(g14
g2
Ntp292
Rp293
(dp294
g18
I10
sg19
I4
sbaa(lp295
g0
(g57
g2
Ntp296
Rp297
(dp298
g18
I11
sg19
I4
sg61
I10
sbaaa(lp299
(lp300
g0
(g14
g2
Ntp301
Rp302
(dp303
g18
I0
sg19
I5
sbaa(lp304
g0
(g14
g2
Ntp305
Rp306
(dp307
g18
I1
sg19
I5
sbaa(lp308
g0
(g14
g2
Ntp309
Rp310
(dp311
g18
I2
sg19
I5
sbaa(lp312
g0
(g14
g2
Ntp313
Rp314
(dp315
g18
I3
sg19
I5
sbaa(lp316
g0
(g14
g2
Ntp317
Rp318
(dp319
g18
I4
sg19
I5
sbaa(lp320
g0
(g14
g2
Ntp321
Rp322
(dp323
g18
I5
sg19
I5
sbaa(lp324
g0
(g14
g2
Ntp325
Rp326
(dp327
g18
I6
sg19
I5
sbaa(lp328
g0
(g14
g2
Ntp329
Rp330
(dp331
g18
I7
sg19
I5
sbaa(lp332
g0
(g14
g2
Ntp333
Rp334
(dp335
g18
I8
sg19
I5
sbag178
aa(lp336
g0
(g45
g2
Ntp337
Rp338
(dp339
g18
I9
sg19
I5
sg49
(I1
I1
I1
I1
tp340
sbaa(lp341
g0
(g14
g2
Ntp342
Rp343
(dp344
g18
I10
sg19
I5
sbaa(lp345
g0
(g57
g2
Ntp346
Rp347
(dp348
g18
I11
sg19
I5
sg61
I10
sbaaa(lp349
(lp350
g0
(g14
g2
Ntp351
Rp352
(dp353
g18
I0
sg19
I6
sbaa(lp354
g0
(g14
g2
Ntp355
Rp356
(dp357
g18
I1
sg19
I6
sbaa(lp358
g0
(g14
g2
Ntp359
Rp360
(dp361
g18
I2
sg19
I6
sbaa(lp362
g0
(g14
g2
Ntp363
Rp364
(dp365
g18
I3
sg19
I6
sbaa(lp366
g0
(g14
g2
Ntp367
Rp368
(dp369
g18
I4
sg19
I6
sbaa(lp370
g0
(g14
g2
Ntp371
Rp372
(dp373
g18
I5
sg19
I6
sbaa(lp374
g0
(g14
g2
Ntp375
Rp376
(dp377
g18
I6
sg19
I6
sbaa(lp378
g0
(g14
g2
Ntp379
Rp380
(dp381
g18
I7
sg19
I6
sbaa(lp382
g0
(g14
g2
Ntp383
Rp384
(dp385
g18
I8
sg19
I6
sbag182
aa(lp386
g0
(g45
g2
Ntp387
Rp388
(dp389
g18
I9
sg19
I6
sg49
(I1
I1
I1
I1
tp390
sbaa(lp391
g0
(g14
g2
Ntp392
Rp393
(dp394
g18
I10
sg19
I6
sbaa(lp395
g0
(g57
g2
Ntp396
Rp397
(dp398
g18
I11
sg19
I6
sg61
I10
sbaaa(lp399
(lp400
g0
(g14
g2
Ntp401
Rp402
(dp403
g18
I0
sg19
I7
sbaa(lp404
g0
(g14
g2
Ntp405
Rp406
(dp407
g18
I1
sg19
I7
sbaa(lp408
g0
(g14
g2
Ntp409
Rp410
(dp411
g18
I2
sg19
I7
sbaa(lp412
g0
(g14
g2
Ntp413
Rp414
(dp415
g18
I3
sg19
I7
sbaa(lp416
g0
(g14
g2
Ntp417
Rp418
(dp419
g18
I4
sg19
I7
sbaa(lp420
g0
(g14
g2
Ntp421
Rp422
(dp423
g18
I5
sg19
I7
sbaa(lp424
g0
(g14
g2
Ntp425
Rp426
(dp427
g18
I6
sg19
I7
sbaa(lp428
g0
(g14
g2
Ntp429
Rp430
(dp431
g18
I7
sg19
I7
sbaa(lp432
g0
(g14
g2
Ntp433
Rp434
(dp435
g18
I8
sg19
I7
sbag0
(cSnake
IronSnakeSeg
p436
g2
Ntp437
Rp438
(dp439
g160
g0
(cSnake
IronSnake
p440
g2
Ntp441
Rp442
(dp443
g165
I2
sg166
(lp444
g438
ag0
(cSnake
IronSnakeHead
p445
g2
Ntp446
Rp447
(dp448
g18
I8
sg19
I8
sg160
g442
sg171
g442
sg184
I1
sbasbsg171
g442
sg172
I2
sg18
I8
sg19
I7
sg173
I0
sbaa(lp449
g0
(g45
g2
Ntp450
Rp451
(dp452
g18
I9
sg19
I7
sg49
(I1
I1
I1
I1
tp453
sbaa(lp454
g0
(g14
g2
Ntp455
Rp456
(dp457
g18
I10
sg19
I7
sbaa(lp458
g0
(g57
g2
Ntp459
Rp460
(dp461
g18
I11
sg19
I7
sg61
I10
sbaaa(lp462
(lp463
g0
(g14
g2
Ntp464
Rp465
(dp466
g18
I0
sg19
I8
sbaa(lp467
g0
(g14
g2
Ntp468
Rp469
(dp470
g18
I1
sg19
I8
sbaa(lp471
g0
(g14
g2
Ntp472
Rp473
(dp474
g18
I2
sg19
I8
sbaa(lp475
g0
(g14
g2
Ntp476
Rp477
(dp478
g18
I3
sg19
I8
sbaa(lp479
g0
(g14
g2
Ntp480
Rp481
(dp482
g18
I4
sg19
I8
sbaa(lp483
g0
(g14
g2
Ntp484
Rp485
(dp486
g18
I5
sg19
I8
sbaa(lp487
g0
(g14
g2
Ntp488
Rp489
(dp490
g18
I6
sg19
I8
sbaa(lp491
g0
(g14
g2
Ntp492
Rp493
(dp494
g18
I7
sg19
I8
sbaa(lp495
g0
(g14
g2
Ntp496
Rp497
(dp498
g18
I8
sg19
I8
sbag447
aa(lp499
g0
(g45
g2
Ntp500
Rp501
(dp502
g18
I9
sg19
I8
sg49
(I1
I1
I1
I1
tp503
sbaa(lp504
g0
(g14
g2
Ntp505
Rp506
(dp507
g18
I10
sg19
I8
sbaa(lp508
g0
(g57
g2
Ntp509
Rp510
(dp511
g18
I11
sg19
I8
sg61
I10
sbaaa(lp512
(lp513
g0
(cTiles
Portal
p514
g2
Ntp515
Rp516
(dp517
g18
I0
sg19
I9
sg61
I01
sbaa(lp518
g0
(g45
g2
Ntp519
Rp520
(dp521
g18
I1
sg19
I9
sg49
(I0
I1
I0
I1
tp522
sbaa(lp523
g0
(g57
g2
Ntp524
Rp525
(dp526
g18
I2
sg19
I9
sg61
I7
sbaa(lp527
g0
(g57
g2
Ntp528
Rp529
(dp530
g18
I3
sg19
I9
sg61
I7
sbaa(lp531
g0
(g57
g2
Ntp532
Rp533
(dp534
g18
I4
sg19
I9
sg61
I3
sbaa(lp535
g0
(g14
g2
Ntp536
Rp537
(dp538
g18
I5
sg19
I9
sbaa(lp539
g0
(g57
g2
Ntp540
Rp541
(dp542
g18
I6
sg19
I9
sg61
I6
sbaa(lp543
g0
(g57
g2
Ntp544
Rp545
(dp546
g18
I7
sg19
I9
sg61
I7
sbaa(lp547
g0
(g57
g2
Ntp548
Rp549
(dp550
g18
I8
sg19
I9
sg61
I7
sbaa(lp551
g0
(g45
g2
Ntp552
Rp553
(dp554
g18
I9
sg19
I9
sg49
(I1
I1
I1
I1
tp555
sbaa(lp556
g0
(g14
g2
Ntp557
Rp558
(dp559
g18
I10
sg19
I9
sbaa(lp560
g0
(g57
g2
Ntp561
Rp562
(dp563
g18
I11
sg19
I9
sg61
I10
sbaaa(lp564
(lp565
g0
(g14
g2
Ntp566
Rp567
(dp568
g18
I0
sg19
I10
sbaa(lp569
g0
(g45
g2
Ntp570
Rp571
(dp572
g18
I1
sg19
I10
sg49
(I1
I1
I3
I4
tp573
sbaa(lp574
g0
(g45
g2
Ntp575
Rp576
(dp577
g18
I2
sg19
I10
sg49
(I2
I4
I2
I4
tp578
sbaa(lp579
g0
(g45
g2
Ntp580
Rp581
(dp582
g18
I3
sg19
I10
sg49
(I2
I4
I2
I4
tp583
sbaa(lp584
g0
(g45
g2
Ntp585
Rp586
(dp587
g18
I4
sg19
I10
sg49
(I2
I4
I0
I1
tp588
sbaa(lp589
g0
(g57
g2
Ntp590
Rp591
(dp592
g18
I5
sg19
I10
sg61
I7
sbaa(lp593
g0
(g45
g2
Ntp594
Rp595
(dp596
g18
I6
sg19
I10
sg49
(I0
I1
I2
I3
tp597
sbaa(lp598
g0
(g45
g2
Ntp599
Rp600
(dp601
g18
I7
sg19
I10
sg49
(I2
I2
I2
I2
tp602
sbaa(lp603
g0
(g45
g2
Ntp604
Rp605
(dp606
g18
I8
sg19
I10
sg49
(I2
I2
I2
I2
tp607
sbaa(lp608
g0
(g45
g2
Ntp609
Rp610
(dp611
g18
I9
sg19
I10
sg49
(I3
I2
I1
I0
tp612
sbaa(lp613
g0
(g14
g2
Ntp614
Rp615
(dp616
g18
I10
sg19
I10
sbaa(lp617
g0
(g57
g2
Ntp618
Rp619
(dp620
g18
I11
sg19
I10
sg61
I10
sbaaa(lp621
(lp622
g0
(g45
g2
Ntp623
Rp624
(dp625
g18
I0
sg19
I11
sg49
(I2
I4
I2
I4
tp626
sbaa(lp627
g0
(g45
g2
Ntp628
Rp629
(dp630
g18
I1
sg19
I11
sg49
(I3
I4
I4
I4
tp631
sbaa(lp632
g0
(g45
g2
Ntp633
Rp634
(dp635
g18
I2
sg19
I11
sg49
(I4
I4
I4
I4
tp636
sbaa(lp637
g0
(g45
g2
Ntp638
Rp639
(dp640
g18
I3
sg19
I11
sg49
(I4
I4
I4
I4
tp641
sbaa(lp642
g0
(g45
g2
Ntp643
Rp644
(dp645
g18
I4
sg19
I11
sg49
(I4
I4
I3
I4
tp646
sbaa(lp647
g0
(g45
g2
Ntp648
Rp649
(dp650
g18
I5
sg19
I11
sg49
(I2
I4
I2
I4
tp651
sbaa(lp652
g0
(g45
g2
Ntp653
Rp654
(dp655
g18
I6
sg19
I11
sg49
(I3
I4
I1
I1
tp656
sbaa(lp657
g0
(g514
g2
Ntp658
Rp659
(dp660
g18
I7
sg19
I11
sg61
I01
sbaa(lp661
g0
(g14
g2
Ntp662
Rp663
(dp664
g18
I8
sg19
I11
sbaa(lp665
g0
(g14
g2
Ntp666
Rp667
(dp668
g18
I9
sg19
I11
sbaa(lp669
g0
(g14
g2
Ntp670
Rp671
(dp672
g18
I10
sg19
I11
sbaa(lp673
g0
(g45
g2
Ntp674
Rp675
(dp676
g18
I11
sg19
I11
sg49
(I0
I1
I2
I4
tp677
sbaaasS'iscale'
p678
I3
sb.