ccopy_reg
_reconstructor
p0
(cBoard
Board
p1
c__builtin__
object
p2
Ntp3
Rp4
(dp5
S'sy'
p6
I12
sS'sx'
p7
I12
sS'rscale'
p8
I64
sS'ascale'
p9
I4
sS't'
p10
(lp11
(lp12
(lp13
a(lp14
a(lp15
a(lp16
a(lp17
a(lp18
a(lp19
a(lp20
a(lp21
g0
(cSnake
SnakeSeg
p22
g2
Ntp23
Rp24
(dp25
S'gshape'
p26
g0
(cSnake
Snake
p27
g2
Ntp28
Rp29
(dp30
S'iid'
p31
I1
sS'tiles'
p32
(lp33
g24
ag0
(g22
g2
Ntp34
Rp35
(dp36
g26
g29
sS'snake'
p37
g29
sS'fdir'
p38
I2
sS'y'
p39
I8
sS'x'
p40
I1
sS'bdir'
p41
I8
sbag0
(cSnake
SnakeHead
p42
g2
Ntp43
Rp44
(dp45
g39
I8
sg40
I2
sg26
g29
sg37
g29
sS'd'
p46
I1
sbasbsg37
g29
sg38
I2
sg39
I8
sg40
I0
sg41
I0
sbaa(lp47
g0
(g22
g2
Ntp48
Rp49
(dp50
g26
g0
(g27
g2
Ntp51
Rp52
(dp53
g31
I0
sg32
(lp54
g49
ag0
(g22
g2
Ntp55
Rp56
(dp57
g26
g52
sg37
g52
sg38
I2
sg39
I9
sg40
I1
sg41
I8
sbag0
(g22
g2
Ntp58
Rp59
(dp60
g26
g52
sg37
g52
sg38
I2
sg39
I9
sg40
I2
sg41
I8
sbag0
(g42
g2
Ntp61
Rp62
(dp63
g39
I9
sg40
I3
sg26
g52
sg37
g52
sg46
I1
sbasbsg37
g52
sg38
I2
sg39
I9
sg40
I0
sg41
I0
sbaa(lp64
g0
(cTiles
Dirt
p65
g2
Ntp66
Rp67
(dp68
g39
I10
sg40
I0
sS'corners'
p69
(I1
I1
I4
I4
tp70
sbaa(lp71
g0
(g65
g2
Ntp72
Rp73
(dp74
g39
I11
sg40
I0
sg69
(I4
I4
I4
I4
tp75
sbaaa(lp76
(lp77
a(lp78
a(lp79
a(lp80
a(lp81
g0
(cTiles
Block
p82
g2
Ntp83
Rp84
(dp85
g39
I4
sg40
I1
sg26
g0
(cTiles
BGravShape
p86
g2
Ntp87
Rp88
(dp89
g31
I2
sg32
(lp90
g0
(g82
g2
Ntp91
Rp92
(dp93
g39
I6
sg40
I2
sg26
g88
sg69
(I2
I2
I0
I0
tp94
sbag0
(g82
g2
Ntp95
Rp96
(dp97
g39
I5
sg40
I2
sg26
g88
sg69
(I2
I2
I2
I2
tp98
sbag0
(g82
g2
Ntp99
Rp100
(dp101
g39
I4
sg40
I2
sg26
g88
sg69
(I1
I0
I3
I2
tp102
sbag84
asbsg69
(I0
I1
I0
I1
tp103
sbaa(lp104
g0
(g82
g2
Ntp105
Rp106
(dp107
g39
I5
sg40
I1
sg26
g0
(g86
g2
Ntp108
Rp109
(dp110
g31
I0
sg32
(lp111
g0
(g82
g2
Ntp112
Rp113
(dp114
g39
I7
sg40
I1
sg26
g109
sg69
(I2
I2
I0
I0
tp115
sbag0
(g82
g2
Ntp116
Rp117
(dp118
g39
I6
sg40
I1
sg26
g109
sg69
(I2
I2
I2
I2
tp119
sbag106
asbsg69
(I0
I0
I2
I2
tp120
sbaa(lp121
g117
aa(lp122
g113
aa(lp123
g35
aa(lp124
g56
aa(lp125
g0
(g65
g2
Ntp126
Rp127
(dp128
g39
I10
sg40
I1
sg69
(I1
I1
I4
I4
tp129
sbaa(lp130
g0
(g65
g2
Ntp131
Rp132
(dp133
g39
I11
sg40
I1
sg69
(I4
I4
I4
I4
tp134
sbaaa(lp135
(lp136
a(lp137
a(lp138
a(lp139
a(lp140
g100
aa(lp141
g96
aa(lp142
g92
aa(lp143
g0
(g82
g2
Ntp144
Rp145
(dp146
g39
I7
sg40
I2
sg26
g0
(g86
g2
Ntp147
Rp148
(dp149
g31
I1
sg32
(lp150
g145
ag0
(g82
g2
Ntp151
Rp152
(dp153
g39
I7
sg40
I3
sg26
g148
sg69
(I3
I2
I1
I0
tp154
sbag0
(g82
g2
Ntp155
Rp156
(dp157
g39
I6
sg40
I3
sg26
g148
sg69
(I0
I0
I2
I2
tp158
sbasbsg69
(I0
I1
I0
I1
tp159
sbaa(lp160
g44
aa(lp161
g59
aa(lp162
g0
(g65
g2
Ntp163
Rp164
(dp165
g39
I10
sg40
I2
sg69
(I1
I1
I4
I4
tp166
sbaa(lp167
g0
(g65
g2
Ntp168
Rp169
(dp170
g39
I11
sg40
I2
sg69
(I4
I4
I4
I4
tp171
sbaaa(lp172
(lp173
a(lp174
a(lp175
a(lp176
a(lp177
a(lp178
a(lp179
g156
aa(lp180
g152
aa(lp181
a(lp182
g62
aa(lp183
g0
(g65
g2
Ntp184
Rp185
(dp186
g39
I10
sg40
I3
sg69
(I1
I1
I4
I4
tp187
sbaa(lp188
g0
(g65
g2
Ntp189
Rp190
(dp191
g39
I11
sg40
I3
sg69
(I4
I4
I4
I4
tp192
sbaaa(lp193
(lp194
a(lp195
a(lp196
a(lp197
a(lp198
a(lp199
a(lp200
a(lp201
a(lp202
a(lp203
a(lp204
g0
(g65
g2
Ntp205
Rp206
(dp207
g39
I10
sg40
I4
sg69
(I1
I1
I4
I4
tp208
sbaa(lp209
g0
(g65
g2
Ntp210
Rp211
(dp212
g39
I11
sg40
I4
sg69
(I4
I4
I4
I4
tp213
sbaaa(lp214
(lp215
a(lp216
a(lp217
a(lp218
a(lp219
a(lp220
a(lp221
a(lp222
a(lp223
a(lp224
a(lp225
g0
(g65
g2
Ntp226
Rp227
(dp228
g39
I10
sg40
I5
sg69
(I1
I1
I4
I4
tp229
sbaa(lp230
g0
(g65
g2
Ntp231
Rp232
(dp233
g39
I11
sg40
I5
sg69
(I4
I4
I4
I4
tp234
sbaaa(lp235
(lp236
a(lp237
a(lp238
a(lp239
a(lp240
a(lp241
a(lp242
a(lp243
a(lp244
a(lp245
a(lp246
g0
(g65
g2
Ntp247
Rp248
(dp249
g39
I10
sg40
I6
sg69
(I1
I1
I4
I4
tp250
sbaa(lp251
g0
(g65
g2
Ntp252
Rp253
(dp254
g39
I11
sg40
I6
sg69
(I4
I4
I4
I4
tp255
sbaaa(lp256
(lp257
a(lp258
a(lp259
a(lp260
a(lp261
a(lp262
a(lp263
a(lp264
a(lp265
a(lp266
a(lp267
g0
(g65
g2
Ntp268
Rp269
(dp270
g39
I10
sg40
I7
sg69
(I1
I1
I4
I4
tp271
sbaa(lp272
g0
(g65
g2
Ntp273
Rp274
(dp275
g39
I11
sg40
I7
sg69
(I4
I4
I4
I4
tp276
sbaaa(lp277
(lp278
a(lp279
a(lp280
a(lp281
a(lp282
a(lp283
a(lp284
a(lp285
a(lp286
a(lp287
a(lp288
g0
(g65
g2
Ntp289
Rp290
(dp291
g39
I10
sg40
I8
sg69
(I1
I1
I4
I4
tp292
sbaa(lp293
g0
(g65
g2
Ntp294
Rp295
(dp296
g39
I11
sg40
I8
sg69
(I4
I4
I4
I4
tp297
sbaaa(lp298
(lp299
a(lp300
a(lp301
a(lp302
a(lp303
a(lp304
a(lp305
a(lp306
a(lp307
a(lp308
a(lp309
g0
(g65
g2
Ntp310
Rp311
(dp312
g39
I10
sg40
I9
sg69
(I1
I1
I4
I4
tp313
sbaa(lp314
g0
(g65
g2
Ntp315
Rp316
(dp317
g39
I11
sg40
I9
sg69
(I4
I4
I4
I4
tp318
sbaaa(lp319
(lp320
a(lp321
a(lp322
g0
(g65
g2
Ntp323
Rp324
(dp325
g39
I2
sg40
I10
sg69
(I0
I1
I2
I4
tp326
sbaa(lp327
g0
(g65
g2
Ntp328
Rp329
(dp330
g39
I3
sg40
I10
sg69
(I2
I4
I2
I4
tp331
sbaa(lp332
g0
(g65
g2
Ntp333
Rp334
(dp335
g39
I4
sg40
I10
sg69
(I2
I4
I2
I4
tp336
sbaa(lp337
g0
(g65
g2
Ntp338
Rp339
(dp340
g39
I5
sg40
I10
sg69
(I2
I4
I2
I4
tp341
sbaa(lp342
g0
(g65
g2
Ntp343
Rp344
(dp345
g39
I6
sg40
I10
sg69
(I2
I4
I2
I4
tp346
sbaa(lp347
g0
(g65
g2
Ntp348
Rp349
(dp350
g39
I7
sg40
I10
sg69
(I2
I4
I2
I4
tp351
sbaa(lp352
g0
(g65
g2
Ntp353
Rp354
(dp355
g39
I8
sg40
I10
sg69
(I2
I4
I2
I4
tp356
sbaa(lp357
g0
(g65
g2
Ntp358
Rp359
(dp360
g39
I9
sg40
I10
sg69
(I2
I4
I2
I4
tp361
sbaa(lp362
g0
(g65
g2
Ntp363
Rp364
(dp365
g39
I10
sg40
I10
sg69
(I3
I4
I4
I4
tp366
sbaa(lp367
g0
(g65
g2
Ntp368
Rp369
(dp370
g39
I11
sg40
I10
sg69
(I4
I4
I4
I4
tp371
sbaaa(lp372
(lp373
g0
(cTiles
Portal
p374
g2
Ntp375
Rp376
(dp377
g39
I0
sg40
I11
sS'i'
p378
I01
sbaa(lp379
g0
(g65
g2
Ntp380
Rp381
(dp382
g39
I1
sg40
I11
sg69
(I0
I1
I2
I4
tp383
sbaa(lp384
g0
(g65
g2
Ntp385
Rp386
(dp387
g39
I2
sg40
I11
sg69
(I3
I4
I4
I4
tp388
sbaa(lp389
g0
(g65
g2
Ntp390
Rp391
(dp392
g39
I3
sg40
I11
sg69
(I4
I4
I4
I4
tp393
sbaa(lp394
g0
(g65
g2
Ntp395
Rp396
(dp397
g39
I4
sg40
I11
sg69
(I4
I4
I4
I4
tp398
sbaa(lp399
g0
(g65
g2
Ntp400
Rp401
(dp402
g39
I5
sg40
I11
sg69
(I4
I4
I4
I4
tp403
sbaa(lp404
g0
(g65
g2
Ntp405
Rp406
(dp407
g39
I6
sg40
I11
sg69
(I4
I4
I4
I4
tp408
sbaa(lp409
g0
(g65
g2
Ntp410
Rp411
(dp412
g39
I7
sg40
I11
sg69
(I4
I4
I4
I4
tp413
sbaa(lp414
g0
(g65
g2
Ntp415
Rp416
(dp417
g39
I8
sg40
I11
sg69
(I4
I4
I4
I4
tp418
sbaa(lp419
g0
(g65
g2
Ntp420
Rp421
(dp422
g39
I9
sg40
I11
sg69
(I4
I4
I4
I4
tp423
sbaa(lp424
g0
(g65
g2
Ntp425
Rp426
(dp427
g39
I10
sg40
I11
sg69
(I4
I4
I4
I4
tp428
sbaa(lp429
g0
(g65
g2
Ntp430
Rp431
(dp432
g39
I11
sg40
I11
sg69
(I4
I4
I4
I4
tp433
sbaaasS'iscale'
p434
I3
sb.