ccopy_reg
_reconstructor
p0
(cBoard
Board
p1
c__builtin__
object
p2
Ntp3
Rp4
(dp5
S'sy'
p6
I12
sS'sx'
p7
I9
sS'rscale'
p8
I64
sS'ascale'
p9
I4
sS't'
p10
(lp11
(lp12
(lp13
g0
(cTiles
Dirt
p14
g2
Ntp15
Rp16
(dp17
S'y'
p18
I0
sS'x'
p19
I0
sS'corners'
p20
(I4
I4
I4
I4
tp21
sbaa(lp22
g0
(g14
g2
Ntp23
Rp24
(dp25
g18
I1
sg19
I0
sg20
(I4
I4
I4
I4
tp26
sbaa(lp27
g0
(g14
g2
Ntp28
Rp29
(dp30
g18
I2
sg19
I0
sg20
(I4
I4
I4
I4
tp31
sbaa(lp32
g0
(g14
g2
Ntp33
Rp34
(dp35
g18
I3
sg19
I0
sg20
(I4
I4
I4
I4
tp36
sbaa(lp37
g0
(g14
g2
Ntp38
Rp39
(dp40
g18
I4
sg19
I0
sg20
(I4
I4
I4
I4
tp41
sbaa(lp42
g0
(g14
g2
Ntp43
Rp44
(dp45
g18
I5
sg19
I0
sg20
(I4
I4
I1
I1
tp46
sbaa(lp47
g0
(cTiles
Air
p48
g2
Ntp49
Rp50
(dp51
g18
I6
sg19
I0
sbag0
(cSnake
SnakeSeg
p52
g2
Ntp53
Rp54
(dp55
S'gshape'
p56
g0
(cSnake
Snake
p57
g2
Ntp58
Rp59
(dp60
S'iid'
p61
I1
sS'tiles'
p62
(lp63
g54
ag0
(g52
g2
Ntp64
Rp65
(dp66
g56
g59
sS'snake'
p67
g59
sS'fdir'
p68
I4
sg18
I7
sg19
I0
sS'bdir'
p69
I1
sbag0
(g52
g2
Ntp70
Rp71
(dp72
g56
g59
sg67
g59
sg68
I2
sg18
I8
sg19
I0
sg69
I1
sbag0
(cSnake
SnakeHead
p73
g2
Ntp74
Rp75
(dp76
g18
I8
sg19
I1
sg56
g59
sg67
g59
sS'd'
p77
I1
sbasbsg67
g59
sg68
I4
sg18
I6
sg19
I0
sg69
I0
sbaa(lp78
g0
(g48
g2
Ntp79
Rp80
(dp81
g18
I7
sg19
I0
sbag65
aa(lp82
g0
(g48
g2
Ntp83
Rp84
(dp85
g18
I8
sg19
I0
sbag71
aa(lp86
g0
(g14
g2
Ntp87
Rp88
(dp89
g18
I9
sg19
I0
sg20
(I1
I1
I4
I4
tp90
sbaa(lp91
g0
(g14
g2
Ntp92
Rp93
(dp94
g18
I10
sg19
I0
sg20
(I4
I4
I4
I4
tp95
sbaa(lp96
g0
(g14
g2
Ntp97
Rp98
(dp99
g18
I11
sg19
I0
sg20
(I4
I4
I4
I4
tp100
sbaaa(lp101
(lp102
g0
(g14
g2
Ntp103
Rp104
(dp105
g18
I0
sg19
I1
sg20
(I4
I2
I4
I2
tp106
sbaa(lp107
g0
(g14
g2
Ntp108
Rp109
(dp110
g18
I1
sg19
I1
sg20
(I4
I3
I4
I4
tp111
sbaa(lp112
g0
(g14
g2
Ntp113
Rp114
(dp115
g18
I2
sg19
I1
sg20
(I4
I4
I4
I4
tp116
sbaa(lp117
g0
(g14
g2
Ntp118
Rp119
(dp120
g18
I3
sg19
I1
sg20
(I4
I4
I4
I4
tp121
sbaa(lp122
g0
(g14
g2
Ntp123
Rp124
(dp125
g18
I4
sg19
I1
sg20
(I4
I4
I4
I4
tp126
sbaa(lp127
g0
(g14
g2
Ntp128
Rp129
(dp130
g18
I5
sg19
I1
sg20
(I4
I4
I1
I1
tp131
sbaa(lp132
g0
(cInteractives
XBlock
p133
g2
Ntp134
Rp135
(dp136
g18
I6
sg19
I1
sS'active'
p137
I0
sS'col'
p138
I0
sbaa(lp139
g0
(g133
g2
Ntp140
Rp141
(dp142
g18
I7
sg19
I1
sg137
I0
sg138
I0
sbaa(lp143
g0
(g48
g2
Ntp144
Rp145
(dp146
g18
I8
sg19
I1
sbag75
aa(lp147
g0
(g14
g2
Ntp148
Rp149
(dp150
g18
I9
sg19
I1
sg20
(I1
I1
I4
I4
tp151
sbaa(lp152
g0
(g14
g2
Ntp153
Rp154
(dp155
g18
I10
sg19
I1
sg20
(I4
I4
I4
I4
tp156
sbaa(lp157
g0
(g14
g2
Ntp158
Rp159
(dp160
g18
I11
sg19
I1
sg20
(I4
I4
I4
I4
tp161
sbaaa(lp162
(lp163
g0
(cTiles
Spikes
p164
g2
Ntp165
Rp166
(dp167
g18
I0
sg19
I2
sS'i'
p168
I12
sbaa(lp169
g0
(g14
g2
Ntp170
Rp171
(dp172
g18
I1
sg19
I2
sg20
(I1
I0
I4
I2
tp173
sbaa(lp174
g0
(g14
g2
Ntp175
Rp176
(dp177
g18
I2
sg19
I2
sg20
(I4
I3
I4
I4
tp178
sbaa(lp179
g0
(g14
g2
Ntp180
Rp181
(dp182
g18
I3
sg19
I2
sg20
(I4
I4
I4
I4
tp183
sbaa(lp184
g0
(g14
g2
Ntp185
Rp186
(dp187
g18
I4
sg19
I2
sg20
(I4
I4
I4
I4
tp188
sbaa(lp189
g0
(g14
g2
Ntp190
Rp191
(dp192
g18
I5
sg19
I2
sg20
(I4
I4
I1
I1
tp193
sbaa(lp194
g0
(g48
g2
Ntp195
Rp196
(dp197
g18
I6
sg19
I2
sbaa(lp198
g0
(g48
g2
Ntp199
Rp200
(dp201
g18
I7
sg19
I2
sbaa(lp202
g0
(g133
g2
Ntp203
Rp204
(dp205
g18
I8
sg19
I2
sg137
I0
sg138
I0
sbaa(lp206
g0
(g14
g2
Ntp207
Rp208
(dp209
g18
I9
sg19
I2
sg20
(I1
I1
I4
I3
tp210
sbaa(lp211
g0
(g14
g2
Ntp212
Rp213
(dp214
g18
I10
sg19
I2
sg20
(I4
I2
I4
I2
tp215
sbaa(lp216
g0
(g14
g2
Ntp217
Rp218
(dp219
g18
I11
sg19
I2
sg20
(I4
I3
I4
I4
tp220
sbaaa(lp221
(lp222
g0
(g48
g2
Ntp223
Rp224
(dp225
g18
I0
sg19
I3
sbaa(lp226
g0
(g48
g2
Ntp227
Rp228
(dp229
g18
I1
sg19
I3
sbaa(lp230
g0
(g14
g2
Ntp231
Rp232
(dp233
g18
I2
sg19
I3
sg20
(I1
I1
I4
I4
tp234
sbaa(lp235
g0
(g14
g2
Ntp236
Rp237
(dp238
g18
I3
sg19
I3
sg20
(I4
I4
I4
I4
tp239
sbaa(lp240
g0
(g14
g2
Ntp241
Rp242
(dp243
g18
I4
sg19
I3
sg20
(I4
I4
I4
I4
tp244
sbaa(lp245
g0
(g14
g2
Ntp246
Rp247
(dp248
g18
I5
sg19
I3
sg20
(I4
I4
I1
I1
tp249
sbaa(lp250
g0
(g133
g2
Ntp251
Rp252
(dp253
g18
I6
sg19
I3
sg137
I1
sg138
I0
sbaa(lp254
g0
(g133
g2
Ntp255
Rp256
(dp257
g18
I7
sg19
I3
sg137
I1
sg138
I1
sbaa(lp258
g0
(g48
g2
Ntp259
Rp260
(dp261
g18
I8
sg19
I3
sbaa(lp262
g0
(g14
g2
Ntp263
Rp264
(dp265
g18
I9
sg19
I3
sg20
(I1
I1
I1
I1
tp266
sbaa(lp267
g0
(cInteractives
XButton
p268
g2
Ntp269
Rp270
(dp271
g18
I10
sg19
I3
sg138
I0
sbaa(lp272
g0
(g14
g2
Ntp273
Rp274
(dp275
g18
I11
sg19
I3
sg20
(I1
I1
I4
I4
tp276
sbaaa(lp277
(lp278
g0
(g48
g2
Ntp279
Rp280
(dp281
g18
I0
sg19
I4
sbaa(lp282
g0
(g48
g2
Ntp283
Rp284
(dp285
g18
I1
sg19
I4
sbaa(lp286
g0
(g14
g2
Ntp287
Rp288
(dp289
g18
I2
sg19
I4
sg20
(I1
I1
I4
I4
tp290
sbaa(lp291
g0
(g14
g2
Ntp292
Rp293
(dp294
g18
I3
sg19
I4
sg20
(I4
I4
I4
I4
tp295
sbaa(lp296
g0
(g14
g2
Ntp297
Rp298
(dp299
g18
I4
sg19
I4
sg20
(I4
I4
I4
I4
tp300
sbaa(lp301
g0
(g14
g2
Ntp302
Rp303
(dp304
g18
I5
sg19
I4
sg20
(I4
I4
I1
I1
tp305
sbaa(lp306
g0
(g48
g2
Ntp307
Rp308
(dp309
g18
I6
sg19
I4
sbaa(lp310
g0
(g133
g2
Ntp311
Rp312
(dp313
g18
I7
sg19
I4
sg137
I1
sg138
I0
sbaa(lp314
g0
(g133
g2
Ntp315
Rp316
(dp317
g18
I8
sg19
I4
sg137
I1
sg138
I0
sbaa(lp318
g0
(g14
g2
Ntp319
Rp320
(dp321
g18
I9
sg19
I4
sg20
(I1
I1
I3
I3
tp322
sbaa(lp323
g0
(g14
g2
Ntp324
Rp325
(dp326
g18
I10
sg19
I4
sg20
(I2
I2
I2
I2
tp327
sbaa(lp328
g0
(g14
g2
Ntp329
Rp330
(dp331
g18
I11
sg19
I4
sg20
(I3
I3
I4
I4
tp332
sbaaa(lp333
(lp334
g0
(g48
g2
Ntp335
Rp336
(dp337
g18
I0
sg19
I5
sbaa(lp338
g0
(g164
g2
Ntp339
Rp340
(dp341
g18
I1
sg19
I5
sg168
I6
sbaa(lp342
g0
(g14
g2
Ntp343
Rp344
(dp345
g18
I2
sg19
I5
sg20
(I1
I1
I4
I4
tp346
sbaa(lp347
g0
(g14
g2
Ntp348
Rp349
(dp350
g18
I3
sg19
I5
sg20
(I4
I4
I4
I4
tp351
sbaa(lp352
g0
(g14
g2
Ntp353
Rp354
(dp355
g18
I4
sg19
I5
sg20
(I4
I4
I4
I4
tp356
sbaa(lp357
g0
(g14
g2
Ntp358
Rp359
(dp360
g18
I5
sg19
I5
sg20
(I4
I4
I1
I1
tp361
sbaa(lp362
g0
(g133
g2
Ntp363
Rp364
(dp365
g18
I6
sg19
I5
sg137
I0
sg138
I1
sbaa(lp366
g0
(g133
g2
Ntp367
Rp368
(dp369
g18
I7
sg19
I5
sg137
I0
sg138
I1
sbaa(lp370
g0
(g133
g2
Ntp371
Rp372
(dp373
g18
I8
sg19
I5
sg137
I0
sg138
I1
sbaa(lp374
g0
(g14
g2
Ntp375
Rp376
(dp377
g18
I9
sg19
I5
sg20
(I1
I1
I1
I1
tp378
sbaa(lp379
g0
(g268
g2
Ntp380
Rp381
(dp382
g18
I10
sg19
I5
sg138
I1
sbaa(lp383
g0
(g14
g2
Ntp384
Rp385
(dp386
g18
I11
sg19
I5
sg20
(I1
I1
I4
I4
tp387
sbaaa(lp388
(lp389
g0
(g48
g2
Ntp390
Rp391
(dp392
g18
I0
sg19
I6
sbaa(lp393
g0
(g164
g2
Ntp394
Rp395
(dp396
g18
I1
sg19
I6
sg168
I12
sbaa(lp397
g0
(g14
g2
Ntp398
Rp399
(dp400
g18
I2
sg19
I6
sg20
(I1
I1
I4
I4
tp401
sbaa(lp402
g0
(g14
g2
Ntp403
Rp404
(dp405
g18
I3
sg19
I6
sg20
(I4
I4
I4
I4
tp406
sbaa(lp407
g0
(g14
g2
Ntp408
Rp409
(dp410
g18
I4
sg19
I6
sg20
(I4
I4
I4
I4
tp411
sbaa(lp412
g0
(g14
g2
Ntp413
Rp414
(dp415
g18
I5
sg19
I6
sg20
(I4
I4
I1
I1
tp416
sbaa(lp417
g0
(g48
g2
Ntp418
Rp419
(dp420
g18
I6
sg19
I6
sbaa(lp421
g0
(g48
g2
Ntp422
Rp423
(dp424
g18
I7
sg19
I6
sbaa(lp425
g0
(g48
g2
Ntp426
Rp427
(dp428
g18
I8
sg19
I6
sbaa(lp429
g0
(g14
g2
Ntp430
Rp431
(dp432
g18
I9
sg19
I6
sg20
(I1
I1
I3
I4
tp433
sbaa(lp434
g0
(g14
g2
Ntp435
Rp436
(dp437
g18
I10
sg19
I6
sg20
(I2
I4
I2
I4
tp438
sbaa(lp439
g0
(g14
g2
Ntp440
Rp441
(dp442
g18
I11
sg19
I6
sg20
(I3
I4
I4
I4
tp443
sbaaa(lp444
(lp445
g0
(g48
g2
Ntp446
Rp447
(dp448
g18
I0
sg19
I7
sbaa(lp449
g0
(g48
g2
Ntp450
Rp451
(dp452
g18
I1
sg19
I7
sbaa(lp453
g0
(g14
g2
Ntp454
Rp455
(dp456
g18
I2
sg19
I7
sg20
(I1
I1
I4
I4
tp457
sbaa(lp458
g0
(g14
g2
Ntp459
Rp460
(dp461
g18
I3
sg19
I7
sg20
(I4
I4
I4
I4
tp462
sbaa(lp463
g0
(g14
g2
Ntp464
Rp465
(dp466
g18
I4
sg19
I7
sg20
(I4
I4
I4
I4
tp467
sbaa(lp468
g0
(g14
g2
Ntp469
Rp470
(dp471
g18
I5
sg19
I7
sg20
(I4
I4
I1
I1
tp472
sbaa(lp473
g0
(g48
g2
Ntp474
Rp475
(dp476
g18
I6
sg19
I7
sbaa(lp477
g0
(g133
g2
Ntp478
Rp479
(dp480
g18
I7
sg19
I7
sg137
I1
sg138
I1
sbaa(lp481
g0
(g133
g2
Ntp482
Rp483
(dp484
g18
I8
sg19
I7
sg137
I1
sg138
I1
sbaa(lp485
g0
(g14
g2
Ntp486
Rp487
(dp488
g18
I9
sg19
I7
sg20
(I1
I1
I4
I4
tp489
sbaa(lp490
g0
(g14
g2
Ntp491
Rp492
(dp493
g18
I10
sg19
I7
sg20
(I4
I4
I4
I4
tp494
sbaa(lp495
g0
(g14
g2
Ntp496
Rp497
(dp498
g18
I11
sg19
I7
sg20
(I4
I4
I4
I4
tp499
sbaaa(lp500
(lp501
g0
(g48
g2
Ntp502
Rp503
(dp504
g18
I0
sg19
I8
sbaa(lp505
g0
(g48
g2
Ntp506
Rp507
(dp508
g18
I1
sg19
I8
sbaa(lp509
g0
(g14
g2
Ntp510
Rp511
(dp512
g18
I2
sg19
I8
sg20
(I1
I1
I4
I4
tp513
sbaa(lp514
g0
(g14
g2
Ntp515
Rp516
(dp517
g18
I3
sg19
I8
sg20
(I4
I4
I4
I4
tp518
sbaa(lp519
g0
(g14
g2
Ntp520
Rp521
(dp522
g18
I4
sg19
I8
sg20
(I4
I4
I4
I4
tp523
sbaa(lp524
g0
(g14
g2
Ntp525
Rp526
(dp527
g18
I5
sg19
I8
sg20
(I4
I4
I1
I1
tp528
sbaa(lp529
g0
(g133
g2
Ntp530
Rp531
(dp532
g18
I6
sg19
I8
sg137
I1
sg138
I1
sbaa(lp533
g0
(cTiles
Portal
p534
g2
Ntp535
Rp536
(dp537
g18
I7
sg19
I8
sg168
I01
sbaa(lp538
g0
(g48
g2
Ntp539
Rp540
(dp541
g18
I8
sg19
I8
sbaa(lp542
g0
(g14
g2
Ntp543
Rp544
(dp545
g18
I9
sg19
I8
sg20
(I1
I1
I4
I4
tp546
sbaa(lp547
g0
(g14
g2
Ntp548
Rp549
(dp550
g18
I10
sg19
I8
sg20
(I4
I4
I4
I4
tp551
sbaa(lp552
g0
(g14
g2
Ntp553
Rp554
(dp555
g18
I11
sg19
I8
sg20
(I4
I4
I4
I4
tp556
sbaaasS'iscale'
p557
I3
sb.