ccopy_reg
_reconstructor
p0
(cBoard
Board
p1
c__builtin__
object
p2
Ntp3
Rp4
(dp5
S'sy'
p6
I10
sS'sx'
p7
I20
sS'rscale'
p8
I64
sS'ascale'
p9
I4
sS't'
p10
(lp11
(lp12
(lp13
a(lp14
a(lp15
a(lp16
a(lp17
g0
(cSnake
SnakeSeg
p18
g2
Ntp19
Rp20
(dp21
S'gshape'
p22
g0
(cSnake
Snake
p23
g2
Ntp24
Rp25
(dp26
S'iid'
p27
I4
sS'tiles'
p28
(lp29
g0
(g18
g2
Ntp30
Rp31
(dp32
g22
g25
sS'snake'
p33
g25
sS'fdir'
p34
I1
sS'y'
p35
I7
sS'x'
p36
I0
sS'bdir'
p37
I0
sbag0
(g18
g2
Ntp38
Rp39
(dp40
g22
g25
sg33
g25
sg34
I1
sg35
I6
sg36
I0
sg37
I4
sbag0
(g18
g2
Ntp41
Rp42
(dp43
g22
g25
sg33
g25
sg34
I1
sg35
I5
sg36
I0
sg37
I4
sbag20
ag0
(cSnake
SnakeHead
p44
g2
Ntp45
Rp46
(dp47
g35
I4
sg36
I1
sg22
g25
sg33
g25
sS'd'
p48
I1
sbasbsg33
g25
sg34
I2
sg35
I4
sg36
I0
sg37
I4
sbaa(lp49
g42
aa(lp50
g39
aa(lp51
g31
aa(lp52
g0
(cTiles
Dirt
p53
g2
Ntp54
Rp55
(dp56
g35
I8
sg36
I0
sS'corners'
p57
(I1
I1
I1
I1
tp58
sbaa(lp59
g0
(cTiles
Spikes
p60
g2
Ntp61
Rp62
(dp63
g35
I9
sg36
I0
sS'i'
p64
I3
sbaaa(lp65
(lp66
a(lp67
a(lp68
a(lp69
a(lp70
g46
aa(lp71
g0
(g18
g2
Ntp72
Rp73
(dp74
g22
g0
(g23
g2
Ntp75
Rp76
(dp77
g27
I6
sg28
(lp78
g73
ag0
(g18
g2
Ntp79
Rp80
(dp81
g22
g76
sg33
g76
sg34
I4
sg35
I6
sg36
I1
sg37
I1
sbag0
(g18
g2
Ntp82
Rp83
(dp84
g22
g76
sg33
g76
sg34
I2
sg35
I7
sg36
I1
sg37
I1
sbag0
(g44
g2
Ntp85
Rp86
(dp87
g35
I7
sg36
I2
sg22
g76
sg33
g76
sg48
I1
sbasS'grav'
p88
I-1
sbsg33
g76
sg34
I4
sg35
I5
sg36
I1
sg37
I0
sbaa(lp89
g80
aa(lp90
g83
aa(lp91
g0
(g53
g2
Ntp92
Rp93
(dp94
g35
I8
sg36
I1
sg57
(I1
I0
I1
I0
tp95
sbaa(lp96
g0
(g60
g2
Ntp97
Rp98
(dp99
g35
I9
sg36
I1
sg64
I11
sbaaa(lp100
(lp101
a(lp102
a(lp103
a(lp104
a(lp105
g0
(g60
g2
Ntp106
Rp107
(dp108
g35
I4
sg36
I2
sg64
I2
sbaa(lp109
a(lp110
a(lp111
g86
aa(lp112
a(lp113
g0
(g60
g2
Ntp114
Rp115
(dp116
g35
I9
sg36
I2
sg64
I10
sbaaa(lp117
(lp118
a(lp119
a(lp120
a(lp121
a(lp122
g0
(g60
g2
Ntp123
Rp124
(dp125
g35
I4
sg36
I3
sg64
I10
sbaa(lp126
a(lp127
a(lp128
a(lp129
a(lp130
g0
(g60
g2
Ntp131
Rp132
(dp133
g35
I9
sg36
I3
sg64
I10
sbaaa(lp134
(lp135
a(lp136
a(lp137
a(lp138
a(lp139
g0
(g60
g2
Ntp140
Rp141
(dp142
g35
I4
sg36
I4
sg64
I10
sbaa(lp143
a(lp144
a(lp145
a(lp146
a(lp147
g0
(g60
g2
Ntp148
Rp149
(dp150
g35
I9
sg36
I4
sg64
I10
sbaaa(lp151
(lp152
a(lp153
a(lp154
a(lp155
a(lp156
g0
(g60
g2
Ntp157
Rp158
(dp159
g35
I4
sg36
I5
sg64
I10
sbaa(lp160
a(lp161
a(lp162
a(lp163
a(lp164
g0
(g60
g2
Ntp165
Rp166
(dp167
g35
I9
sg36
I5
sg64
I10
sbaaa(lp168
(lp169
a(lp170
a(lp171
a(lp172
a(lp173
g0
(g60
g2
Ntp174
Rp175
(dp176
g35
I4
sg36
I6
sg64
I10
sbaa(lp177
a(lp178
g0
(g60
g2
Ntp179
Rp180
(dp181
g35
I6
sg36
I6
sg64
I0
sbaa(lp182
a(lp183
a(lp184
g0
(g60
g2
Ntp185
Rp186
(dp187
g35
I9
sg36
I6
sg64
I10
sbaaa(lp188
(lp189
a(lp190
g0
(cTiles
Fruit
p191
g2
Ntp192
Rp193
(dp194
g35
I1
sg36
I7
sg27
I2
sbaa(lp195
a(lp196
a(lp197
g0
(g60
g2
Ntp198
Rp199
(dp200
g35
I4
sg36
I7
sg64
I10
sbaa(lp201
a(lp202
a(lp203
a(lp204
a(lp205
g0
(g60
g2
Ntp206
Rp207
(dp208
g35
I9
sg36
I7
sg64
I10
sbaaa(lp209
(lp210
a(lp211
a(lp212
a(lp213
a(lp214
g0
(g60
g2
Ntp215
Rp216
(dp217
g35
I4
sg36
I8
sg64
I10
sbaa(lp218
a(lp219
a(lp220
a(lp221
a(lp222
g0
(g60
g2
Ntp223
Rp224
(dp225
g35
I9
sg36
I8
sg64
I10
sbaaa(lp226
(lp227
g0
(g53
g2
Ntp228
Rp229
(dp230
g35
I0
sg36
I9
sg57
(I2
I4
I2
I4
tp231
sbaa(lp232
g0
(g53
g2
Ntp233
Rp234
(dp235
g35
I1
sg36
I9
sg57
(I2
I4
I2
I4
tp236
sbaa(lp237
g0
(g53
g2
Ntp238
Rp239
(dp240
g35
I2
sg36
I9
sg57
(I2
I4
I2
I4
tp241
sbaa(lp242
g0
(g53
g2
Ntp243
Rp244
(dp245
g35
I3
sg36
I9
sg57
(I2
I4
I0
I1
tp246
sbaa(lp247
g0
(g60
g2
Ntp248
Rp249
(dp250
g35
I4
sg36
I9
sg64
I11
sbaa(lp251
a(lp252
a(lp253
a(lp254
a(lp255
g0
(g60
g2
Ntp256
Rp257
(dp258
g35
I9
sg36
I9
sg64
I10
sbaaa(lp259
(lp260
g0
(g53
g2
Ntp261
Rp262
(dp263
g35
I0
sg36
I10
sg57
(I4
I2
I4
I2
tp264
sbaa(lp265
g0
(g53
g2
Ntp266
Rp267
(dp268
g35
I1
sg36
I10
sg57
(I4
I2
I4
I2
tp269
sbaa(lp270
g0
(g53
g2
Ntp271
Rp272
(dp273
g35
I2
sg36
I10
sg57
(I4
I2
I4
I2
tp274
sbaa(lp275
g0
(g53
g2
Ntp276
Rp277
(dp278
g35
I3
sg36
I10
sg57
(I4
I2
I1
I0
tp279
sbaa(lp280
g0
(g60
g2
Ntp281
Rp282
(dp283
g35
I4
sg36
I10
sg64
I11
sbaa(lp284
a(lp285
a(lp286
a(lp287
a(lp288
g0
(g60
g2
Ntp289
Rp290
(dp291
g35
I9
sg36
I10
sg64
I10
sbaaa(lp292
(lp293
a(lp294
a(lp295
a(lp296
a(lp297
g0
(g60
g2
Ntp298
Rp299
(dp300
g35
I4
sg36
I11
sg64
I10
sbaa(lp301
a(lp302
a(lp303
a(lp304
a(lp305
g0
(g60
g2
Ntp306
Rp307
(dp308
g35
I9
sg36
I11
sg64
I10
sbaaa(lp309
(lp310
a(lp311
a(lp312
a(lp313
a(lp314
g0
(g60
g2
Ntp315
Rp316
(dp317
g35
I4
sg36
I12
sg64
I10
sbaa(lp318
a(lp319
g0
(g60
g2
Ntp320
Rp321
(dp322
g35
I6
sg36
I12
sg64
I4
sbaa(lp323
g0
(g60
g2
Ntp324
Rp325
(dp326
g35
I7
sg36
I12
sg64
I1
sbaa(lp327
a(lp328
g0
(g60
g2
Ntp329
Rp330
(dp331
g35
I9
sg36
I12
sg64
I10
sbaaa(lp332
(lp333
a(lp334
g0
(cTiles
Portal
p335
g2
Ntp336
Rp337
(dp338
g35
I1
sg36
I13
sg64
I01
sbaa(lp339
a(lp340
a(lp341
g0
(g60
g2
Ntp342
Rp343
(dp344
g35
I4
sg36
I13
sg64
I10
sbaa(lp345
a(lp346
a(lp347
a(lp348
a(lp349
g0
(g60
g2
Ntp350
Rp351
(dp352
g35
I9
sg36
I13
sg64
I10
sbaaa(lp353
(lp354
a(lp355
a(lp356
a(lp357
a(lp358
g0
(g60
g2
Ntp359
Rp360
(dp361
g35
I4
sg36
I14
sg64
I10
sbaa(lp362
a(lp363
a(lp364
a(lp365
a(lp366
g0
(g60
g2
Ntp367
Rp368
(dp369
g35
I9
sg36
I14
sg64
I10
sbaaa(lp370
(lp371
a(lp372
a(lp373
a(lp374
a(lp375
g0
(g60
g2
Ntp376
Rp377
(dp378
g35
I4
sg36
I15
sg64
I10
sbaa(lp379
a(lp380
a(lp381
a(lp382
a(lp383
g0
(g60
g2
Ntp384
Rp385
(dp386
g35
I9
sg36
I15
sg64
I10
sbaaa(lp387
(lp388
a(lp389
a(lp390
a(lp391
a(lp392
g0
(g60
g2
Ntp393
Rp394
(dp395
g35
I4
sg36
I16
sg64
I10
sbaa(lp396
a(lp397
a(lp398
a(lp399
a(lp400
g0
(g60
g2
Ntp401
Rp402
(dp403
g35
I9
sg36
I16
sg64
I10
sbaaa(lp404
(lp405
a(lp406
a(lp407
a(lp408
a(lp409
g0
(g60
g2
Ntp410
Rp411
(dp412
g35
I4
sg36
I17
sg64
I8
sbaa(lp413
a(lp414
a(lp415
a(lp416
a(lp417
g0
(g60
g2
Ntp418
Rp419
(dp420
g35
I9
sg36
I17
sg64
I10
sbaaa(lp421
(lp422
a(lp423
a(lp424
a(lp425
a(lp426
a(lp427
a(lp428
a(lp429
a(lp430
g0
(g53
g2
Ntp431
Rp432
(dp433
g35
I8
sg36
I18
sg57
(I0
I1
I0
I1
tp434
sbaa(lp435
g0
(g60
g2
Ntp436
Rp437
(dp438
g35
I9
sg36
I18
sg64
I11
sbaaa(lp439
(lp440
a(lp441
a(lp442
a(lp443
a(lp444
a(lp445
a(lp446
a(lp447
a(lp448
g0
(g53
g2
Ntp449
Rp450
(dp451
g35
I8
sg36
I19
sg57
(I1
I1
I1
I1
tp452
sbaa(lp453
g0
(g60
g2
Ntp454
Rp455
(dp456
g35
I9
sg36
I19
sg64
I9
sbaaasS'iscale'
p457
I3
sb.