ccopy_reg
_reconstructor
p0
(cBoard
Board
p1
c__builtin__
object
p2
Ntp3
Rp4
(dp5
S'sy'
p6
I10
sS'sx'
p7
I20
sS'rscale'
p8
I64
sS'ascale'
p9
I4
sS't'
p10
(lp11
(lp12
(lp13
g0
(cTiles
Air
p14
g2
Ntp15
Rp16
(dp17
S'y'
p18
I0
sS'x'
p19
I0
sbaa(lp20
g0
(g14
g2
Ntp21
Rp22
(dp23
g18
I1
sg19
I0
sbaa(lp24
g0
(g14
g2
Ntp25
Rp26
(dp27
g18
I2
sg19
I0
sbaa(lp28
g0
(g14
g2
Ntp29
Rp30
(dp31
g18
I3
sg19
I0
sbaa(lp32
g0
(g14
g2
Ntp33
Rp34
(dp35
g18
I4
sg19
I0
sbag0
(cSnake
SnakeSeg
p36
g2
Ntp37
Rp38
(dp39
S'gshape'
p40
g0
(cSnake
Snake
p41
g2
Ntp42
Rp43
(dp44
S'iid'
p45
I4
sS'tiles'
p46
(lp47
g0
(g36
g2
Ntp48
Rp49
(dp50
g40
g43
sS'snake'
p51
g43
sS'fdir'
p52
I1
sg18
I7
sg19
I0
sS'bdir'
p53
I0
sbag0
(g36
g2
Ntp54
Rp55
(dp56
g40
g43
sg51
g43
sg52
I1
sg18
I6
sg19
I0
sg53
I4
sbag0
(g36
g2
Ntp57
Rp58
(dp59
g40
g43
sg51
g43
sg52
I1
sg18
I5
sg19
I0
sg53
I4
sbag38
ag0
(cSnake
SnakeHead
p60
g2
Ntp61
Rp62
(dp63
g18
I4
sg19
I1
sg40
g43
sg51
g43
sS'd'
p64
I1
sbasbsg51
g43
sg52
I2
sg18
I4
sg19
I0
sg53
I4
sbaa(lp65
g0
(g14
g2
Ntp66
Rp67
(dp68
g18
I5
sg19
I0
sbag58
aa(lp69
g0
(g14
g2
Ntp70
Rp71
(dp72
g18
I6
sg19
I0
sbag55
aa(lp73
g0
(g14
g2
Ntp74
Rp75
(dp76
g18
I7
sg19
I0
sbag49
aa(lp77
g0
(cTiles
Dirt
p78
g2
Ntp79
Rp80
(dp81
g18
I8
sg19
I0
sS'corners'
p82
(I1
I1
I1
I1
tp83
sbaa(lp84
g0
(cTiles
Spikes
p85
g2
Ntp86
Rp87
(dp88
g18
I9
sg19
I0
sS'i'
p89
I3
sbaaa(lp90
(lp91
g0
(g14
g2
Ntp92
Rp93
(dp94
g18
I0
sg19
I1
sbaa(lp95
g0
(g14
g2
Ntp96
Rp97
(dp98
g18
I1
sg19
I1
sbaa(lp99
g0
(g14
g2
Ntp100
Rp101
(dp102
g18
I2
sg19
I1
sbaa(lp103
g0
(g14
g2
Ntp104
Rp105
(dp106
g18
I3
sg19
I1
sbaa(lp107
g0
(g14
g2
Ntp108
Rp109
(dp110
g18
I4
sg19
I1
sbag62
aa(lp111
g0
(g14
g2
Ntp112
Rp113
(dp114
g18
I5
sg19
I1
sbag0
(g36
g2
Ntp115
Rp116
(dp117
g40
g0
(g41
g2
Ntp118
Rp119
(dp120
g45
I6
sg46
(lp121
g116
ag0
(g36
g2
Ntp122
Rp123
(dp124
g40
g119
sg51
g119
sg52
I4
sg18
I6
sg19
I1
sg53
I1
sbag0
(g36
g2
Ntp125
Rp126
(dp127
g40
g119
sg51
g119
sg52
I2
sg18
I7
sg19
I1
sg53
I1
sbag0
(g60
g2
Ntp128
Rp129
(dp130
g18
I7
sg19
I2
sg40
g119
sg51
g119
sg64
I1
sbasS'grav'
p131
I-1
sbsg51
g119
sg52
I4
sg18
I5
sg19
I1
sg53
I0
sbaa(lp132
g0
(g14
g2
Ntp133
Rp134
(dp135
g18
I6
sg19
I1
sbag123
aa(lp136
g0
(g14
g2
Ntp137
Rp138
(dp139
g18
I7
sg19
I1
sbag126
aa(lp140
g0
(g78
g2
Ntp141
Rp142
(dp143
g18
I8
sg19
I1
sg82
(I1
I0
I1
I0
tp144
sbaa(lp145
g0
(g85
g2
Ntp146
Rp147
(dp148
g18
I9
sg19
I1
sg89
I11
sbaaa(lp149
(lp150
g0
(g14
g2
Ntp151
Rp152
(dp153
g18
I0
sg19
I2
sbaa(lp154
g0
(g14
g2
Ntp155
Rp156
(dp157
g18
I1
sg19
I2
sbaa(lp158
g0
(g14
g2
Ntp159
Rp160
(dp161
g18
I2
sg19
I2
sbaa(lp162
g0
(g14
g2
Ntp163
Rp164
(dp165
g18
I3
sg19
I2
sbaa(lp166
g0
(g85
g2
Ntp167
Rp168
(dp169
g18
I4
sg19
I2
sg89
I2
sbaa(lp170
g0
(g14
g2
Ntp171
Rp172
(dp173
g18
I5
sg19
I2
sbaa(lp174
g0
(g14
g2
Ntp175
Rp176
(dp177
g18
I6
sg19
I2
sbaa(lp178
g0
(g14
g2
Ntp179
Rp180
(dp181
g18
I7
sg19
I2
sbag129
aa(lp182
g0
(g14
g2
Ntp183
Rp184
(dp185
g18
I8
sg19
I2
sbaa(lp186
g0
(g85
g2
Ntp187
Rp188
(dp189
g18
I9
sg19
I2
sg89
I10
sbaaa(lp190
(lp191
g0
(g14
g2
Ntp192
Rp193
(dp194
g18
I0
sg19
I3
sbaa(lp195
g0
(g14
g2
Ntp196
Rp197
(dp198
g18
I1
sg19
I3
sbaa(lp199
g0
(g14
g2
Ntp200
Rp201
(dp202
g18
I2
sg19
I3
sbaa(lp203
g0
(g14
g2
Ntp204
Rp205
(dp206
g18
I3
sg19
I3
sbaa(lp207
g0
(g85
g2
Ntp208
Rp209
(dp210
g18
I4
sg19
I3
sg89
I10
sbaa(lp211
g0
(g14
g2
Ntp212
Rp213
(dp214
g18
I5
sg19
I3
sbaa(lp215
g0
(g14
g2
Ntp216
Rp217
(dp218
g18
I6
sg19
I3
sbaa(lp219
g0
(g14
g2
Ntp220
Rp221
(dp222
g18
I7
sg19
I3
sbaa(lp223
g0
(g14
g2
Ntp224
Rp225
(dp226
g18
I8
sg19
I3
sbaa(lp227
g0
(g85
g2
Ntp228
Rp229
(dp230
g18
I9
sg19
I3
sg89
I10
sbaaa(lp231
(lp232
g0
(g14
g2
Ntp233
Rp234
(dp235
g18
I0
sg19
I4
sbaa(lp236
g0
(g14
g2
Ntp237
Rp238
(dp239
g18
I1
sg19
I4
sbaa(lp240
g0
(g14
g2
Ntp241
Rp242
(dp243
g18
I2
sg19
I4
sbaa(lp244
g0
(g14
g2
Ntp245
Rp246
(dp247
g18
I3
sg19
I4
sbaa(lp248
g0
(g85
g2
Ntp249
Rp250
(dp251
g18
I4
sg19
I4
sg89
I10
sbaa(lp252
g0
(g14
g2
Ntp253
Rp254
(dp255
g18
I5
sg19
I4
sbaa(lp256
g0
(g14
g2
Ntp257
Rp258
(dp259
g18
I6
sg19
I4
sbaa(lp260
g0
(g14
g2
Ntp261
Rp262
(dp263
g18
I7
sg19
I4
sbaa(lp264
g0
(g14
g2
Ntp265
Rp266
(dp267
g18
I8
sg19
I4
sbaa(lp268
g0
(g85
g2
Ntp269
Rp270
(dp271
g18
I9
sg19
I4
sg89
I10
sbaaa(lp272
(lp273
g0
(g14
g2
Ntp274
Rp275
(dp276
g18
I0
sg19
I5
sbaa(lp277
g0
(g14
g2
Ntp278
Rp279
(dp280
g18
I1
sg19
I5
sbaa(lp281
g0
(g14
g2
Ntp282
Rp283
(dp284
g18
I2
sg19
I5
sbaa(lp285
g0
(g14
g2
Ntp286
Rp287
(dp288
g18
I3
sg19
I5
sbaa(lp289
g0
(g85
g2
Ntp290
Rp291
(dp292
g18
I4
sg19
I5
sg89
I10
sbaa(lp293
g0
(g14
g2
Ntp294
Rp295
(dp296
g18
I5
sg19
I5
sbaa(lp297
g0
(g14
g2
Ntp298
Rp299
(dp300
g18
I6
sg19
I5
sbaa(lp301
g0
(g14
g2
Ntp302
Rp303
(dp304
g18
I7
sg19
I5
sbaa(lp305
g0
(g14
g2
Ntp306
Rp307
(dp308
g18
I8
sg19
I5
sbaa(lp309
g0
(g85
g2
Ntp310
Rp311
(dp312
g18
I9
sg19
I5
sg89
I10
sbaaa(lp313
(lp314
g0
(g14
g2
Ntp315
Rp316
(dp317
g18
I0
sg19
I6
sbaa(lp318
g0
(g14
g2
Ntp319
Rp320
(dp321
g18
I1
sg19
I6
sbaa(lp322
g0
(g14
g2
Ntp323
Rp324
(dp325
g18
I2
sg19
I6
sbaa(lp326
g0
(g14
g2
Ntp327
Rp328
(dp329
g18
I3
sg19
I6
sbaa(lp330
g0
(g85
g2
Ntp331
Rp332
(dp333
g18
I4
sg19
I6
sg89
I10
sbaa(lp334
g0
(g14
g2
Ntp335
Rp336
(dp337
g18
I5
sg19
I6
sbaa(lp338
g0
(g85
g2
Ntp339
Rp340
(dp341
g18
I6
sg19
I6
sg89
I0
sbaa(lp342
g0
(g14
g2
Ntp343
Rp344
(dp345
g18
I7
sg19
I6
sbaa(lp346
g0
(g14
g2
Ntp347
Rp348
(dp349
g18
I8
sg19
I6
sbaa(lp350
g0
(g85
g2
Ntp351
Rp352
(dp353
g18
I9
sg19
I6
sg89
I10
sbaaa(lp354
(lp355
g0
(g14
g2
Ntp356
Rp357
(dp358
g18
I0
sg19
I7
sbaa(lp359
g0
(cTiles
Fruit
p360
g2
Ntp361
Rp362
(dp363
g18
I1
sg19
I7
sg45
I2
sbaa(lp364
g0
(g14
g2
Ntp365
Rp366
(dp367
g18
I2
sg19
I7
sbaa(lp368
g0
(g14
g2
Ntp369
Rp370
(dp371
g18
I3
sg19
I7
sbaa(lp372
g0
(g85
g2
Ntp373
Rp374
(dp375
g18
I4
sg19
I7
sg89
I10
sbaa(lp376
g0
(g14
g2
Ntp377
Rp378
(dp379
g18
I5
sg19
I7
sbaa(lp380
g0
(g14
g2
Ntp381
Rp382
(dp383
g18
I6
sg19
I7
sbaa(lp384
g0
(g14
g2
Ntp385
Rp386
(dp387
g18
I7
sg19
I7
sbaa(lp388
g0
(g14
g2
Ntp389
Rp390
(dp391
g18
I8
sg19
I7
sbaa(lp392
g0
(g85
g2
Ntp393
Rp394
(dp395
g18
I9
sg19
I7
sg89
I10
sbaaa(lp396
(lp397
g0
(g14
g2
Ntp398
Rp399
(dp400
g18
I0
sg19
I8
sbaa(lp401
g0
(g14
g2
Ntp402
Rp403
(dp404
g18
I1
sg19
I8
sbaa(lp405
g0
(g14
g2
Ntp406
Rp407
(dp408
g18
I2
sg19
I8
sbaa(lp409
g0
(g14
g2
Ntp410
Rp411
(dp412
g18
I3
sg19
I8
sbaa(lp413
g0
(g85
g2
Ntp414
Rp415
(dp416
g18
I4
sg19
I8
sg89
I10
sbaa(lp417
g0
(g14
g2
Ntp418
Rp419
(dp420
g18
I5
sg19
I8
sbaa(lp421
g0
(g14
g2
Ntp422
Rp423
(dp424
g18
I6
sg19
I8
sbaa(lp425
g0
(g14
g2
Ntp426
Rp427
(dp428
g18
I7
sg19
I8
sbaa(lp429
g0
(g14
g2
Ntp430
Rp431
(dp432
g18
I8
sg19
I8
sbaa(lp433
g0
(g85
g2
Ntp434
Rp435
(dp436
g18
I9
sg19
I8
sg89
I10
sbaaa(lp437
(lp438
g0
(g78
g2
Ntp439
Rp440
(dp441
g18
I0
sg19
I9
sg82
(I2
I4
I2
I4
tp442
sbaa(lp443
g0
(g78
g2
Ntp444
Rp445
(dp446
g18
I1
sg19
I9
sg82
(I2
I4
I2
I4
tp447
sbaa(lp448
g0
(g78
g2
Ntp449
Rp450
(dp451
g18
I2
sg19
I9
sg82
(I2
I4
I2
I4
tp452
sbaa(lp453
g0
(g78
g2
Ntp454
Rp455
(dp456
g18
I3
sg19
I9
sg82
(I2
I4
I0
I1
tp457
sbaa(lp458
g0
(g85
g2
Ntp459
Rp460
(dp461
g18
I4
sg19
I9
sg89
I11
sbaa(lp462
g0
(g14
g2
Ntp463
Rp464
(dp465
g18
I5
sg19
I9
sbaa(lp466
g0
(g14
g2
Ntp467
Rp468
(dp469
g18
I6
sg19
I9
sbaa(lp470
g0
(g14
g2
Ntp471
Rp472
(dp473
g18
I7
sg19
I9
sbaa(lp474
g0
(g14
g2
Ntp475
Rp476
(dp477
g18
I8
sg19
I9
sbaa(lp478
g0
(g85
g2
Ntp479
Rp480
(dp481
g18
I9
sg19
I9
sg89
I10
sbaaa(lp482
(lp483
g0
(g78
g2
Ntp484
Rp485
(dp486
g18
I0
sg19
I10
sg82
(I4
I2
I4
I2
tp487
sbaa(lp488
g0
(g78
g2
Ntp489
Rp490
(dp491
g18
I1
sg19
I10
sg82
(I4
I2
I4
I2
tp492
sbaa(lp493
g0
(g78
g2
Ntp494
Rp495
(dp496
g18
I2
sg19
I10
sg82
(I4
I2
I4
I2
tp497
sbaa(lp498
g0
(g78
g2
Ntp499
Rp500
(dp501
g18
I3
sg19
I10
sg82
(I4
I2
I1
I0
tp502
sbaa(lp503
g0
(g85
g2
Ntp504
Rp505
(dp506
g18
I4
sg19
I10
sg89
I11
sbaa(lp507
g0
(g14
g2
Ntp508
Rp509
(dp510
g18
I5
sg19
I10
sbaa(lp511
g0
(g14
g2
Ntp512
Rp513
(dp514
g18
I6
sg19
I10
sbaa(lp515
g0
(g14
g2
Ntp516
Rp517
(dp518
g18
I7
sg19
I10
sbaa(lp519
g0
(g14
g2
Ntp520
Rp521
(dp522
g18
I8
sg19
I10
sbaa(lp523
g0
(g85
g2
Ntp524
Rp525
(dp526
g18
I9
sg19
I10
sg89
I10
sbaaa(lp527
(lp528
g0
(g14
g2
Ntp529
Rp530
(dp531
g18
I0
sg19
I11
sbaa(lp532
g0
(g14
g2
Ntp533
Rp534
(dp535
g18
I1
sg19
I11
sbaa(lp536
g0
(g14
g2
Ntp537
Rp538
(dp539
g18
I2
sg19
I11
sbaa(lp540
g0
(g14
g2
Ntp541
Rp542
(dp543
g18
I3
sg19
I11
sbaa(lp544
g0
(g85
g2
Ntp545
Rp546
(dp547
g18
I4
sg19
I11
sg89
I10
sbaa(lp548
g0
(g14
g2
Ntp549
Rp550
(dp551
g18
I5
sg19
I11
sbaa(lp552
g0
(g14
g2
Ntp553
Rp554
(dp555
g18
I6
sg19
I11
sbaa(lp556
g0
(g14
g2
Ntp557
Rp558
(dp559
g18
I7
sg19
I11
sbaa(lp560
g0
(g14
g2
Ntp561
Rp562
(dp563
g18
I8
sg19
I11
sbaa(lp564
g0
(g85
g2
Ntp565
Rp566
(dp567
g18
I9
sg19
I11
sg89
I10
sbaaa(lp568
(lp569
g0
(g14
g2
Ntp570
Rp571
(dp572
g18
I0
sg19
I12
sbaa(lp573
g0
(g14
g2
Ntp574
Rp575
(dp576
g18
I1
sg19
I12
sbaa(lp577
g0
(g14
g2
Ntp578
Rp579
(dp580
g18
I2
sg19
I12
sbaa(lp581
g0
(g14
g2
Ntp582
Rp583
(dp584
g18
I3
sg19
I12
sbaa(lp585
g0
(g85
g2
Ntp586
Rp587
(dp588
g18
I4
sg19
I12
sg89
I10
sbaa(lp589
g0
(g14
g2
Ntp590
Rp591
(dp592
g18
I5
sg19
I12
sbaa(lp593
g0
(g85
g2
Ntp594
Rp595
(dp596
g18
I6
sg19
I12
sg89
I4
sbaa(lp597
g0
(g85
g2
Ntp598
Rp599
(dp600
g18
I7
sg19
I12
sg89
I1
sbaa(lp601
g0
(g14
g2
Ntp602
Rp603
(dp604
g18
I8
sg19
I12
sbaa(lp605
g0
(g85
g2
Ntp606
Rp607
(dp608
g18
I9
sg19
I12
sg89
I10
sbaaa(lp609
(lp610
g0
(g14
g2
Ntp611
Rp612
(dp613
g18
I0
sg19
I13
sbaa(lp614
g0
(cTiles
Portal
p615
g2
Ntp616
Rp617
(dp618
g18
I1
sg19
I13
sg89
I01
sbaa(lp619
g0
(g14
g2
Ntp620
Rp621
(dp622
g18
I2
sg19
I13
sbaa(lp623
g0
(g14
g2
Ntp624
Rp625
(dp626
g18
I3
sg19
I13
sbaa(lp627
g0
(g85
g2
Ntp628
Rp629
(dp630
g18
I4
sg19
I13
sg89
I10
sbaa(lp631
g0
(g14
g2
Ntp632
Rp633
(dp634
g18
I5
sg19
I13
sbaa(lp635
g0
(g14
g2
Ntp636
Rp637
(dp638
g18
I6
sg19
I13
sbaa(lp639
g0
(g14
g2
Ntp640
Rp641
(dp642
g18
I7
sg19
I13
sbaa(lp643
g0
(g14
g2
Ntp644
Rp645
(dp646
g18
I8
sg19
I13
sbaa(lp647
g0
(g85
g2
Ntp648
Rp649
(dp650
g18
I9
sg19
I13
sg89
I10
sbaaa(lp651
(lp652
g0
(g14
g2
Ntp653
Rp654
(dp655
g18
I0
sg19
I14
sbaa(lp656
g0
(g14
g2
Ntp657
Rp658
(dp659
g18
I1
sg19
I14
sbaa(lp660
g0
(g14
g2
Ntp661
Rp662
(dp663
g18
I2
sg19
I14
sbaa(lp664
g0
(g14
g2
Ntp665
Rp666
(dp667
g18
I3
sg19
I14
sbaa(lp668
g0
(g85
g2
Ntp669
Rp670
(dp671
g18
I4
sg19
I14
sg89
I10
sbaa(lp672
g0
(g14
g2
Ntp673
Rp674
(dp675
g18
I5
sg19
I14
sbaa(lp676
g0
(g14
g2
Ntp677
Rp678
(dp679
g18
I6
sg19
I14
sbaa(lp680
g0
(g14
g2
Ntp681
Rp682
(dp683
g18
I7
sg19
I14
sbaa(lp684
g0
(g14
g2
Ntp685
Rp686
(dp687
g18
I8
sg19
I14
sbaa(lp688
g0
(g85
g2
Ntp689
Rp690
(dp691
g18
I9
sg19
I14
sg89
I10
sbaaa(lp692
(lp693
g0
(g14
g2
Ntp694
Rp695
(dp696
g18
I0
sg19
I15
sbaa(lp697
g0
(g14
g2
Ntp698
Rp699
(dp700
g18
I1
sg19
I15
sbaa(lp701
g0
(g14
g2
Ntp702
Rp703
(dp704
g18
I2
sg19
I15
sbaa(lp705
g0
(g14
g2
Ntp706
Rp707
(dp708
g18
I3
sg19
I15
sbaa(lp709
g0
(g85
g2
Ntp710
Rp711
(dp712
g18
I4
sg19
I15
sg89
I10
sbaa(lp713
g0
(g14
g2
Ntp714
Rp715
(dp716
g18
I5
sg19
I15
sbaa(lp717
g0
(g14
g2
Ntp718
Rp719
(dp720
g18
I6
sg19
I15
sbaa(lp721
g0
(g14
g2
Ntp722
Rp723
(dp724
g18
I7
sg19
I15
sbaa(lp725
g0
(g14
g2
Ntp726
Rp727
(dp728
g18
I8
sg19
I15
sbaa(lp729
g0
(g85
g2
Ntp730
Rp731
(dp732
g18
I9
sg19
I15
sg89
I10
sbaaa(lp733
(lp734
g0
(g14
g2
Ntp735
Rp736
(dp737
g18
I0
sg19
I16
sbaa(lp738
g0
(g14
g2
Ntp739
Rp740
(dp741
g18
I1
sg19
I16
sbaa(lp742
g0
(g14
g2
Ntp743
Rp744
(dp745
g18
I2
sg19
I16
sbaa(lp746
g0
(g14
g2
Ntp747
Rp748
(dp749
g18
I3
sg19
I16
sbaa(lp750
g0
(g85
g2
Ntp751
Rp752
(dp753
g18
I4
sg19
I16
sg89
I10
sbaa(lp754
g0
(g14
g2
Ntp755
Rp756
(dp757
g18
I5
sg19
I16
sbaa(lp758
g0
(g14
g2
Ntp759
Rp760
(dp761
g18
I6
sg19
I16
sbaa(lp762
g0
(g14
g2
Ntp763
Rp764
(dp765
g18
I7
sg19
I16
sbaa(lp766
g0
(g14
g2
Ntp767
Rp768
(dp769
g18
I8
sg19
I16
sbaa(lp770
g0
(g85
g2
Ntp771
Rp772
(dp773
g18
I9
sg19
I16
sg89
I10
sbaaa(lp774
(lp775
g0
(g14
g2
Ntp776
Rp777
(dp778
g18
I0
sg19
I17
sbaa(lp779
g0
(g14
g2
Ntp780
Rp781
(dp782
g18
I1
sg19
I17
sbaa(lp783
g0
(g14
g2
Ntp784
Rp785
(dp786
g18
I2
sg19
I17
sbaa(lp787
g0
(g14
g2
Ntp788
Rp789
(dp790
g18
I3
sg19
I17
sbaa(lp791
g0
(g85
g2
Ntp792
Rp793
(dp794
g18
I4
sg19
I17
sg89
I8
sbaa(lp795
g0
(g14
g2
Ntp796
Rp797
(dp798
g18
I5
sg19
I17
sbaa(lp799
g0
(g14
g2
Ntp800
Rp801
(dp802
g18
I6
sg19
I17
sbaa(lp803
g0
(g14
g2
Ntp804
Rp805
(dp806
g18
I7
sg19
I17
sbaa(lp807
g0
(g14
g2
Ntp808
Rp809
(dp810
g18
I8
sg19
I17
sbaa(lp811
g0
(g85
g2
Ntp812
Rp813
(dp814
g18
I9
sg19
I17
sg89
I10
sbaaa(lp815
(lp816
g0
(g14
g2
Ntp817
Rp818
(dp819
g18
I0
sg19
I18
sbaa(lp820
g0
(g14
g2
Ntp821
Rp822
(dp823
g18
I1
sg19
I18
sbaa(lp824
g0
(g14
g2
Ntp825
Rp826
(dp827
g18
I2
sg19
I18
sbaa(lp828
g0
(g14
g2
Ntp829
Rp830
(dp831
g18
I3
sg19
I18
sbaa(lp832
g0
(g14
g2
Ntp833
Rp834
(dp835
g18
I4
sg19
I18
sbaa(lp836
g0
(g14
g2
Ntp837
Rp838
(dp839
g18
I5
sg19
I18
sbaa(lp840
g0
(g14
g2
Ntp841
Rp842
(dp843
g18
I6
sg19
I18
sbaa(lp844
g0
(g14
g2
Ntp845
Rp846
(dp847
g18
I7
sg19
I18
sbaa(lp848
g0
(g78
g2
Ntp849
Rp850
(dp851
g18
I8
sg19
I18
sg82
(I0
I1
I0
I1
tp852
sbaa(lp853
g0
(g85
g2
Ntp854
Rp855
(dp856
g18
I9
sg19
I18
sg89
I11
sbaaa(lp857
(lp858
g0
(g14
g2
Ntp859
Rp860
(dp861
g18
I0
sg19
I19
sbaa(lp862
g0
(g14
g2
Ntp863
Rp864
(dp865
g18
I1
sg19
I19
sbaa(lp866
g0
(g14
g2
Ntp867
Rp868
(dp869
g18
I2
sg19
I19
sbaa(lp870
g0
(g14
g2
Ntp871
Rp872
(dp873
g18
I3
sg19
I19
sbaa(lp874
g0
(g14
g2
Ntp875
Rp876
(dp877
g18
I4
sg19
I19
sbaa(lp878
g0
(g14
g2
Ntp879
Rp880
(dp881
g18
I5
sg19
I19
sbaa(lp882
g0
(g14
g2
Ntp883
Rp884
(dp885
g18
I6
sg19
I19
sbaa(lp886
g0
(g14
g2
Ntp887
Rp888
(dp889
g18
I7
sg19
I19
sbaa(lp890
g0
(g78
g2
Ntp891
Rp892
(dp893
g18
I8
sg19
I19
sg82
(I1
I1
I1
I1
tp894
sbaa(lp895
g0
(g85
g2
Ntp896
Rp897
(dp898
g18
I9
sg19
I19
sg89
I9
sbaaasS'iscale'
p899
I3
sb.