ccopy_reg
_reconstructor
p0
(cBoard
Board
p1
c__builtin__
object
p2
Ntp3
Rp4
(dp5
S'sy'
p6
I12
sS'sx'
p7
I12
sS'rscale'
p8
I64
sS'ascale'
p9
I4
sS't'
p10
(lp11
(lp12
(lp13
g0
(cTiles
Air
p14
g2
Ntp15
Rp16
(dp17
S'y'
p18
I0
sS'x'
p19
I0
sbaa(lp20
g0
(g14
g2
Ntp21
Rp22
(dp23
g18
I1
sg19
I0
sbaa(lp24
g0
(g14
g2
Ntp25
Rp26
(dp27
g18
I2
sg19
I0
sbaa(lp28
g0
(g14
g2
Ntp29
Rp30
(dp31
g18
I3
sg19
I0
sbaa(lp32
g0
(g14
g2
Ntp33
Rp34
(dp35
g18
I4
sg19
I0
sbaa(lp36
g0
(g14
g2
Ntp37
Rp38
(dp39
g18
I5
sg19
I0
sbaa(lp40
g0
(g14
g2
Ntp41
Rp42
(dp43
g18
I6
sg19
I0
sbaa(lp44
g0
(g14
g2
Ntp45
Rp46
(dp47
g18
I7
sg19
I0
sbaa(lp48
g0
(g14
g2
Ntp49
Rp50
(dp51
g18
I8
sg19
I0
sbaa(lp52
g0
(g14
g2
Ntp53
Rp54
(dp55
g18
I9
sg19
I0
sbaa(lp56
g0
(g14
g2
Ntp57
Rp58
(dp59
g18
I10
sg19
I0
sbaa(lp60
g0
(g14
g2
Ntp61
Rp62
(dp63
g18
I11
sg19
I0
sbaaa(lp64
(lp65
g0
(g14
g2
Ntp66
Rp67
(dp68
g18
I0
sg19
I1
sbaa(lp69
g0
(g14
g2
Ntp70
Rp71
(dp72
g18
I1
sg19
I1
sbaa(lp73
g0
(g14
g2
Ntp74
Rp75
(dp76
g18
I2
sg19
I1
sbaa(lp77
g0
(g14
g2
Ntp78
Rp79
(dp80
g18
I3
sg19
I1
sbaa(lp81
g0
(g14
g2
Ntp82
Rp83
(dp84
g18
I4
sg19
I1
sbaa(lp85
g0
(g14
g2
Ntp86
Rp87
(dp88
g18
I5
sg19
I1
sbaa(lp89
g0
(g14
g2
Ntp90
Rp91
(dp92
g18
I6
sg19
I1
sbaa(lp93
g0
(g14
g2
Ntp94
Rp95
(dp96
g18
I7
sg19
I1
sbaa(lp97
g0
(g14
g2
Ntp98
Rp99
(dp100
g18
I8
sg19
I1
sbaa(lp101
g0
(g14
g2
Ntp102
Rp103
(dp104
g18
I9
sg19
I1
sbaa(lp105
g0
(g14
g2
Ntp106
Rp107
(dp108
g18
I10
sg19
I1
sbaa(lp109
g0
(g14
g2
Ntp110
Rp111
(dp112
g18
I11
sg19
I1
sbaaa(lp113
(lp114
g0
(g14
g2
Ntp115
Rp116
(dp117
g18
I0
sg19
I2
sbaa(lp118
g0
(g14
g2
Ntp119
Rp120
(dp121
g18
I1
sg19
I2
sbaa(lp122
g0
(g14
g2
Ntp123
Rp124
(dp125
g18
I2
sg19
I2
sbaa(lp126
g0
(g14
g2
Ntp127
Rp128
(dp129
g18
I3
sg19
I2
sbaa(lp130
g0
(g14
g2
Ntp131
Rp132
(dp133
g18
I4
sg19
I2
sbaa(lp134
g0
(g14
g2
Ntp135
Rp136
(dp137
g18
I5
sg19
I2
sbaa(lp138
g0
(g14
g2
Ntp139
Rp140
(dp141
g18
I6
sg19
I2
sbaa(lp142
g0
(g14
g2
Ntp143
Rp144
(dp145
g18
I7
sg19
I2
sbaa(lp146
g0
(g14
g2
Ntp147
Rp148
(dp149
g18
I8
sg19
I2
sbaa(lp150
g0
(g14
g2
Ntp151
Rp152
(dp153
g18
I9
sg19
I2
sbaa(lp154
g0
(g14
g2
Ntp155
Rp156
(dp157
g18
I10
sg19
I2
sbaa(lp158
g0
(g14
g2
Ntp159
Rp160
(dp161
g18
I11
sg19
I2
sbaaa(lp162
(lp163
g0
(g14
g2
Ntp164
Rp165
(dp166
g18
I0
sg19
I3
sbaa(lp167
g0
(g14
g2
Ntp168
Rp169
(dp170
g18
I1
sg19
I3
sbaa(lp171
g0
(cTiles
Fruit
p172
g2
Ntp173
Rp174
(dp175
g18
I2
sg19
I3
sS'iid'
p176
I1
sbaa(lp177
g0
(g14
g2
Ntp178
Rp179
(dp180
g18
I3
sg19
I3
sbaa(lp181
g0
(g14
g2
Ntp182
Rp183
(dp184
g18
I4
sg19
I3
sbaa(lp185
g0
(g14
g2
Ntp186
Rp187
(dp188
g18
I5
sg19
I3
sbaa(lp189
g0
(g14
g2
Ntp190
Rp191
(dp192
g18
I6
sg19
I3
sbaa(lp193
g0
(g14
g2
Ntp194
Rp195
(dp196
g18
I7
sg19
I3
sbaa(lp197
g0
(g14
g2
Ntp198
Rp199
(dp200
g18
I8
sg19
I3
sbaa(lp201
g0
(g14
g2
Ntp202
Rp203
(dp204
g18
I9
sg19
I3
sbaa(lp205
g0
(g14
g2
Ntp206
Rp207
(dp208
g18
I10
sg19
I3
sbaa(lp209
g0
(g14
g2
Ntp210
Rp211
(dp212
g18
I11
sg19
I3
sbaaa(lp213
(lp214
g0
(g14
g2
Ntp215
Rp216
(dp217
g18
I0
sg19
I4
sbaa(lp218
g0
(g14
g2
Ntp219
Rp220
(dp221
g18
I1
sg19
I4
sbaa(lp222
g0
(g14
g2
Ntp223
Rp224
(dp225
g18
I2
sg19
I4
sbaa(lp226
g0
(g14
g2
Ntp227
Rp228
(dp229
g18
I3
sg19
I4
sbaa(lp230
g0
(g14
g2
Ntp231
Rp232
(dp233
g18
I4
sg19
I4
sbaa(lp234
g0
(g14
g2
Ntp235
Rp236
(dp237
g18
I5
sg19
I4
sbaa(lp238
g0
(g14
g2
Ntp239
Rp240
(dp241
g18
I6
sg19
I4
sbag0
(cSnake
SnakeSeg
p242
g2
Ntp243
Rp244
(dp245
S'gshape'
p246
g0
(cSnake
Snake
p247
g2
Ntp248
Rp249
(dp250
g176
I3
sS'tiles'
p251
(lp252
g244
ag0
(cSnake
SnakeHead
p253
g2
Ntp254
Rp255
(dp256
g18
I6
sg19
I5
sg246
g249
sS'snake'
p257
g249
sS'd'
p258
I1
sbasbsg257
g249
sS'fdir'
p259
I2
sg18
I6
sg19
I4
sS'bdir'
p260
I0
sbaa(lp261
g0
(g14
g2
Ntp262
Rp263
(dp264
g18
I7
sg19
I4
sbag0
(g253
g2
Ntp265
Rp266
(dp267
g18
I7
sg19
I4
sg246
g0
(g247
g2
Ntp268
Rp269
(dp270
g176
I0
sg251
(lp271
g0
(g242
g2
Ntp272
Rp273
(dp274
g246
g269
sg257
g269
sg259
I8
sg18
I7
sg19
I5
sg260
I0
sbag266
asS'grav'
p275
I-1
sbsg257
g269
sg258
I3
sbaa(lp276
g0
(g14
g2
Ntp277
Rp278
(dp279
g18
I8
sg19
I4
sbaa(lp280
g0
(g14
g2
Ntp281
Rp282
(dp283
g18
I9
sg19
I4
sbaa(lp284
g0
(g14
g2
Ntp285
Rp286
(dp287
g18
I10
sg19
I4
sbaa(lp288
g0
(g14
g2
Ntp289
Rp290
(dp291
g18
I11
sg19
I4
sbaaa(lp292
(lp293
g0
(g14
g2
Ntp294
Rp295
(dp296
g18
I0
sg19
I5
sbaa(lp297
g0
(g14
g2
Ntp298
Rp299
(dp300
g18
I1
sg19
I5
sbaa(lp301
g0
(g14
g2
Ntp302
Rp303
(dp304
g18
I2
sg19
I5
sbaa(lp305
g0
(g14
g2
Ntp306
Rp307
(dp308
g18
I3
sg19
I5
sbaa(lp309
g0
(g14
g2
Ntp310
Rp311
(dp312
g18
I4
sg19
I5
sbaa(lp313
g0
(g14
g2
Ntp314
Rp315
(dp316
g18
I5
sg19
I5
sbaa(lp317
g0
(g14
g2
Ntp318
Rp319
(dp320
g18
I6
sg19
I5
sbag255
aa(lp321
g0
(g14
g2
Ntp322
Rp323
(dp324
g18
I7
sg19
I5
sbag273
aa(lp325
g0
(g14
g2
Ntp326
Rp327
(dp328
g18
I8
sg19
I5
sbaa(lp329
g0
(g14
g2
Ntp330
Rp331
(dp332
g18
I9
sg19
I5
sbaa(lp333
g0
(g14
g2
Ntp334
Rp335
(dp336
g18
I10
sg19
I5
sbaa(lp337
g0
(g14
g2
Ntp338
Rp339
(dp340
g18
I11
sg19
I5
sbaaa(lp341
(lp342
g0
(g14
g2
Ntp343
Rp344
(dp345
g18
I0
sg19
I6
sbaa(lp346
g0
(g14
g2
Ntp347
Rp348
(dp349
g18
I1
sg19
I6
sbaa(lp350
g0
(g14
g2
Ntp351
Rp352
(dp353
g18
I2
sg19
I6
sbaa(lp354
g0
(g14
g2
Ntp355
Rp356
(dp357
g18
I3
sg19
I6
sbaa(lp358
g0
(g14
g2
Ntp359
Rp360
(dp361
g18
I4
sg19
I6
sbaa(lp362
g0
(g14
g2
Ntp363
Rp364
(dp365
g18
I5
sg19
I6
sbaa(lp366
g0
(g14
g2
Ntp367
Rp368
(dp369
g18
I6
sg19
I6
sbaa(lp370
g0
(g14
g2
Ntp371
Rp372
(dp373
g18
I7
sg19
I6
sbaa(lp374
g0
(g14
g2
Ntp375
Rp376
(dp377
g18
I8
sg19
I6
sbaa(lp378
g0
(g14
g2
Ntp379
Rp380
(dp381
g18
I9
sg19
I6
sbaa(lp382
g0
(g14
g2
Ntp383
Rp384
(dp385
g18
I10
sg19
I6
sbaa(lp386
g0
(g14
g2
Ntp387
Rp388
(dp389
g18
I11
sg19
I6
sbaaa(lp390
(lp391
g0
(g14
g2
Ntp392
Rp393
(dp394
g18
I0
sg19
I7
sbaa(lp395
g0
(g14
g2
Ntp396
Rp397
(dp398
g18
I1
sg19
I7
sbaa(lp399
g0
(g14
g2
Ntp400
Rp401
(dp402
g18
I2
sg19
I7
sbaa(lp403
g0
(g14
g2
Ntp404
Rp405
(dp406
g18
I3
sg19
I7
sbaa(lp407
g0
(g14
g2
Ntp408
Rp409
(dp410
g18
I4
sg19
I7
sbaa(lp411
g0
(g14
g2
Ntp412
Rp413
(dp414
g18
I5
sg19
I7
sbaa(lp415
g0
(g14
g2
Ntp416
Rp417
(dp418
g18
I6
sg19
I7
sbaa(lp419
g0
(g14
g2
Ntp420
Rp421
(dp422
g18
I7
sg19
I7
sbaa(lp423
g0
(g14
g2
Ntp424
Rp425
(dp426
g18
I8
sg19
I7
sbaa(lp427
g0
(g14
g2
Ntp428
Rp429
(dp430
g18
I9
sg19
I7
sbaa(lp431
g0
(g14
g2
Ntp432
Rp433
(dp434
g18
I10
sg19
I7
sbaa(lp435
g0
(g14
g2
Ntp436
Rp437
(dp438
g18
I11
sg19
I7
sbaaa(lp439
(lp440
g0
(g14
g2
Ntp441
Rp442
(dp443
g18
I0
sg19
I8
sbaa(lp444
g0
(g14
g2
Ntp445
Rp446
(dp447
g18
I1
sg19
I8
sbaa(lp448
g0
(g14
g2
Ntp449
Rp450
(dp451
g18
I2
sg19
I8
sbaa(lp452
g0
(g14
g2
Ntp453
Rp454
(dp455
g18
I3
sg19
I8
sbaa(lp456
g0
(g14
g2
Ntp457
Rp458
(dp459
g18
I4
sg19
I8
sbaa(lp460
g0
(g14
g2
Ntp461
Rp462
(dp463
g18
I5
sg19
I8
sbaa(lp464
g0
(g14
g2
Ntp465
Rp466
(dp467
g18
I6
sg19
I8
sbaa(lp468
g0
(g14
g2
Ntp469
Rp470
(dp471
g18
I7
sg19
I8
sbaa(lp472
g0
(g14
g2
Ntp473
Rp474
(dp475
g18
I8
sg19
I8
sbaa(lp476
g0
(g14
g2
Ntp477
Rp478
(dp479
g18
I9
sg19
I8
sbaa(lp480
g0
(g172
g2
Ntp481
Rp482
(dp483
g18
I10
sg19
I8
sg176
I2
sbaa(lp484
g0
(g14
g2
Ntp485
Rp486
(dp487
g18
I11
sg19
I8
sbaaa(lp488
(lp489
g0
(g14
g2
Ntp490
Rp491
(dp492
g18
I0
sg19
I9
sbaa(lp493
g0
(g14
g2
Ntp494
Rp495
(dp496
g18
I1
sg19
I9
sbaa(lp497
g0
(cTiles
Portal
p498
g2
Ntp499
Rp500
(dp501
g18
I2
sg19
I9
sS'i'
p502
I01
sbaa(lp503
g0
(g14
g2
Ntp504
Rp505
(dp506
g18
I3
sg19
I9
sbaa(lp507
g0
(g14
g2
Ntp508
Rp509
(dp510
g18
I4
sg19
I9
sbaa(lp511
g0
(g14
g2
Ntp512
Rp513
(dp514
g18
I5
sg19
I9
sbaa(lp515
g0
(g14
g2
Ntp516
Rp517
(dp518
g18
I6
sg19
I9
sbaa(lp519
g0
(g14
g2
Ntp520
Rp521
(dp522
g18
I7
sg19
I9
sbaa(lp523
g0
(g14
g2
Ntp524
Rp525
(dp526
g18
I8
sg19
I9
sbaa(lp527
g0
(g14
g2
Ntp528
Rp529
(dp530
g18
I9
sg19
I9
sbaa(lp531
g0
(g14
g2
Ntp532
Rp533
(dp534
g18
I10
sg19
I9
sbaa(lp535
g0
(g14
g2
Ntp536
Rp537
(dp538
g18
I11
sg19
I9
sbaaa(lp539
(lp540
g0
(g14
g2
Ntp541
Rp542
(dp543
g18
I0
sg19
I10
sbaa(lp544
g0
(g14
g2
Ntp545
Rp546
(dp547
g18
I1
sg19
I10
sbaa(lp548
g0
(g14
g2
Ntp549
Rp550
(dp551
g18
I2
sg19
I10
sbaa(lp552
g0
(g14
g2
Ntp553
Rp554
(dp555
g18
I3
sg19
I10
sbaa(lp556
g0
(g14
g2
Ntp557
Rp558
(dp559
g18
I4
sg19
I10
sbaa(lp560
g0
(g14
g2
Ntp561
Rp562
(dp563
g18
I5
sg19
I10
sbaa(lp564
g0
(g14
g2
Ntp565
Rp566
(dp567
g18
I6
sg19
I10
sbaa(lp568
g0
(g14
g2
Ntp569
Rp570
(dp571
g18
I7
sg19
I10
sbaa(lp572
g0
(g14
g2
Ntp573
Rp574
(dp575
g18
I8
sg19
I10
sbaa(lp576
g0
(g14
g2
Ntp577
Rp578
(dp579
g18
I9
sg19
I10
sbaa(lp580
g0
(g14
g2
Ntp581
Rp582
(dp583
g18
I10
sg19
I10
sbaa(lp584
g0
(g14
g2
Ntp585
Rp586
(dp587
g18
I11
sg19
I10
sbaaa(lp588
(lp589
g0
(g14
g2
Ntp590
Rp591
(dp592
g18
I0
sg19
I11
sbaa(lp593
g0
(g14
g2
Ntp594
Rp595
(dp596
g18
I1
sg19
I11
sbaa(lp597
g0
(g14
g2
Ntp598
Rp599
(dp600
g18
I2
sg19
I11
sbaa(lp601
g0
(g14
g2
Ntp602
Rp603
(dp604
g18
I3
sg19
I11
sbaa(lp605
g0
(g14
g2
Ntp606
Rp607
(dp608
g18
I4
sg19
I11
sbaa(lp609
g0
(g14
g2
Ntp610
Rp611
(dp612
g18
I5
sg19
I11
sbaa(lp613
g0
(g14
g2
Ntp614
Rp615
(dp616
g18
I6
sg19
I11
sbaa(lp617
g0
(g14
g2
Ntp618
Rp619
(dp620
g18
I7
sg19
I11
sbaa(lp621
g0
(g14
g2
Ntp622
Rp623
(dp624
g18
I8
sg19
I11
sbaa(lp625
g0
(g14
g2
Ntp626
Rp627
(dp628
g18
I9
sg19
I11
sbaa(lp629
g0
(g14
g2
Ntp630
Rp631
(dp632
g18
I10
sg19
I11
sbaa(lp633
g0
(g14
g2
Ntp634
Rp635
(dp636
g18
I11
sg19
I11
sbaaasS'iscale'
p637
I3
sb.