ccopy_reg
_reconstructor
p0
(cBoard
Board
p1
c__builtin__
object
p2
Ntp3
Rp4
(dp5
S'sy'
p6
I12
sS'sx'
p7
I12
sS'rscale'
p8
I64
sS'ascale'
p9
I4
sS't'
p10
(lp11
(lp12
(lp13
a(lp14
g0
(cTiles
Portal
p15
g2
Ntp16
Rp17
(dp18
S'y'
p19
I1
sS'x'
p20
I0
sS'i'
p21
I01
sbaa(lp22
a(lp23
g0
(cTiles
Dirt
p24
g2
Ntp25
Rp26
(dp27
g19
I3
sg20
I0
sS'corners'
p28
(I1
I0
I4
I2
tp29
sbaa(lp30
g0
(g24
g2
Ntp31
Rp32
(dp33
g19
I4
sg20
I0
sg28
(I4
I2
I1
I0
tp34
sbaa(lp35
a(lp36
a(lp37
a(lp38
a(lp39
a(lp40
a(lp41
aa(lp42
(lp43
a(lp44
a(lp45
a(lp46
a(lp47
g0
(cTiles
WoodPlatform
p48
g2
Ntp49
Rp50
(dp51
g19
I4
sg20
I1
sg21
I3
sbaa(lp52
a(lp53
a(lp54
a(lp55
a(lp56
a(lp57
a(lp58
aa(lp59
(lp60
g0
(g24
g2
Ntp61
Rp62
(dp63
g19
I0
sg20
I2
sg28
(I2
I4
I2
I3
tp64
sbaa(lp65
g0
(g24
g2
Ntp66
Rp67
(dp68
g19
I1
sg20
I2
sg28
(I2
I2
I2
I2
tp69
sbaa(lp70
g0
(g24
g2
Ntp71
Rp72
(dp73
g19
I2
sg20
I2
sg28
(I2
I2
I0
I0
tp74
sbaa(lp75
a(lp76
g0
(g48
g2
Ntp77
Rp78
(dp79
g19
I4
sg20
I2
sg21
I3
sbaa(lp80
a(lp81
a(lp82
g0
(g24
g2
Ntp83
Rp84
(dp85
g19
I7
sg20
I2
sg28
(I0
I1
I2
I4
tp86
sbaa(lp87
g0
(g24
g2
Ntp88
Rp89
(dp90
g19
I8
sg20
I2
sg28
(I2
I4
I0
I1
tp91
sbaa(lp92
a(lp93
a(lp94
aa(lp95
(lp96
g0
(g24
g2
Ntp97
Rp98
(dp99
g19
I0
sg20
I3
sg28
(I4
I4
I1
I1
tp100
sbaa(lp101
g0
(cTiles
Fruit
p102
g2
Ntp103
Rp104
(dp105
g19
I1
sg20
I3
sS'iid'
p106
I3
sbaa(lp107
g0
(g48
g2
Ntp108
Rp109
(dp110
g19
I2
sg20
I3
sg21
I3
sbaa(lp111
a(lp112
g0
(g48
g2
Ntp113
Rp114
(dp115
g19
I4
sg20
I3
sg21
I1
sbaa(lp116
a(lp117
a(lp118
g0
(g24
g2
Ntp119
Rp120
(dp121
g19
I7
sg20
I3
sg28
(I1
I1
I4
I4
tp122
sbaa(lp123
g0
(g24
g2
Ntp124
Rp125
(dp126
g19
I8
sg20
I3
sg28
(I4
I4
I3
I4
tp127
sbaa(lp128
g0
(g24
g2
Ntp129
Rp130
(dp131
g19
I9
sg20
I3
sg28
(I2
I4
I0
I1
tp132
sbaa(lp133
a(lp134
aa(lp135
(lp136
g0
(g24
g2
Ntp137
Rp138
(dp139
g19
I0
sg20
I4
sg28
(I4
I4
I1
I1
tp140
sbaa(lp141
a(lp142
g0
(g48
g2
Ntp143
Rp144
(dp145
g19
I2
sg20
I4
sg21
I3
sbaa(lp146
a(lp147
a(lp148
a(lp149
a(lp150
g0
(g24
g2
Ntp151
Rp152
(dp153
g19
I7
sg20
I4
sg28
(I1
I1
I4
I4
tp154
sbaa(lp155
g0
(g24
g2
Ntp156
Rp157
(dp158
g19
I8
sg20
I4
sg28
(I4
I4
I4
I4
tp159
sbaa(lp160
g0
(g24
g2
Ntp161
Rp162
(dp163
g19
I9
sg20
I4
sg28
(I4
I4
I1
I1
tp164
sbaa(lp165
a(lp166
aa(lp167
(lp168
g0
(g24
g2
Ntp169
Rp170
(dp171
g19
I0
sg20
I5
sg28
(I4
I4
I1
I1
tp172
sbaa(lp173
a(lp174
g0
(g48
g2
Ntp175
Rp176
(dp177
g19
I2
sg20
I5
sg21
I3
sbaa(lp178
a(lp179
a(lp180
a(lp181
a(lp182
g0
(g24
g2
Ntp183
Rp184
(dp185
g19
I7
sg20
I5
sg28
(I1
I1
I4
I4
tp186
sbaa(lp187
g0
(g24
g2
Ntp188
Rp189
(dp190
g19
I8
sg20
I5
sg28
(I4
I4
I4
I4
tp191
sbaa(lp192
g0
(g24
g2
Ntp193
Rp194
(dp195
g19
I9
sg20
I5
sg28
(I4
I4
I1
I1
tp196
sbaa(lp197
a(lp198
aa(lp199
(lp200
g0
(g24
g2
Ntp201
Rp202
(dp203
g19
I0
sg20
I6
sg28
(I4
I4
I1
I1
tp204
sbaa(lp205
a(lp206
g0
(g48
g2
Ntp207
Rp208
(dp209
g19
I2
sg20
I6
sg21
I3
sbaa(lp210
a(lp211
a(lp212
a(lp213
a(lp214
g0
(g24
g2
Ntp215
Rp216
(dp217
g19
I7
sg20
I6
sg28
(I1
I1
I4
I4
tp218
sbaa(lp219
g0
(g24
g2
Ntp220
Rp221
(dp222
g19
I8
sg20
I6
sg28
(I4
I4
I4
I4
tp223
sbaa(lp224
g0
(g24
g2
Ntp225
Rp226
(dp227
g19
I9
sg20
I6
sg28
(I4
I4
I1
I1
tp228
sbaa(lp229
a(lp230
aa(lp231
(lp232
g0
(g24
g2
Ntp233
Rp234
(dp235
g19
I0
sg20
I7
sg28
(I4
I4
I1
I1
tp236
sbaa(lp237
g0
(g102
g2
Ntp238
Rp239
(dp240
g19
I1
sg20
I7
sg106
I4
sbaa(lp241
g0
(g48
g2
Ntp242
Rp243
(dp244
g19
I2
sg20
I7
sg21
I3
sbaa(lp245
a(lp246
a(lp247
a(lp248
a(lp249
g0
(g24
g2
Ntp250
Rp251
(dp252
g19
I7
sg20
I7
sg28
(I1
I1
I4
I4
tp253
sbaa(lp254
g0
(g24
g2
Ntp255
Rp256
(dp257
g19
I8
sg20
I7
sg28
(I4
I4
I4
I4
tp258
sbaa(lp259
g0
(g24
g2
Ntp260
Rp261
(dp262
g19
I9
sg20
I7
sg28
(I4
I4
I1
I1
tp263
sbaa(lp264
a(lp265
aa(lp266
(lp267
g0
(g24
g2
Ntp268
Rp269
(dp270
g19
I0
sg20
I8
sg28
(I4
I2
I3
I2
tp271
sbaa(lp272
g0
(g24
g2
Ntp273
Rp274
(dp275
g19
I1
sg20
I8
sg28
(I2
I2
I2
I2
tp276
sbaa(lp277
g0
(g24
g2
Ntp278
Rp279
(dp280
g19
I2
sg20
I8
sg28
(I2
I2
I0
I0
tp281
sbaa(lp282
a(lp283
a(lp284
g0
(cSnake
SnakeHead
p285
g2
Ntp286
Rp287
(dp288
g19
I5
sg20
I8
sS'gshape'
p289
g0
(cSnake
Snake
p290
g2
Ntp291
Rp292
(dp293
g106
I1
sS'tiles'
p294
(lp295
g0
(cSnake
SnakeSeg
p296
g2
Ntp297
Rp298
(dp299
g289
g292
sS'snake'
p300
g292
sS'fdir'
p301
I3
sg19
I5
sg20
I10
sS'bdir'
p302
Nsbag0
(g296
g2
Ntp303
Rp304
(dp305
g289
g292
sg300
g292
sg301
I3
sg19
I5
sg20
I9
sg302
I1
sbag287
asbsg300
g292
sS'd'
p306
I3
sbaa(lp307
g0
(g285
g2
Ntp308
Rp309
(dp310
g19
I6
sg20
I8
sg289
g0
(g290
g2
Ntp311
Rp312
(dp313
g106
I0
sg294
(lp314
g0
(g296
g2
Ntp315
Rp316
(dp317
g289
g312
sg300
g312
sg301
I3
sg19
I6
sg20
I10
sg302
Nsbag0
(g296
g2
Ntp318
Rp319
(dp320
g289
g312
sg300
g312
sg301
I3
sg19
I6
sg20
I9
sg302
I1
sbag309
asbsg300
g312
sg306
I3
sbaa(lp321
g0
(g24
g2
Ntp322
Rp323
(dp324
g19
I7
sg20
I8
sg28
(I1
I1
I4
I4
tp325
sbaa(lp326
g0
(g24
g2
Ntp327
Rp328
(dp329
g19
I8
sg20
I8
sg28
(I4
I4
I4
I3
tp330
sbaa(lp331
g0
(g24
g2
Ntp332
Rp333
(dp334
g19
I9
sg20
I8
sg28
(I4
I2
I1
I0
tp335
sbaa(lp336
a(lp337
aa(lp338
(lp339
a(lp340
a(lp341
a(lp342
a(lp343
a(lp344
g304
aa(lp345
g319
aa(lp346
g0
(g24
g2
Ntp347
Rp348
(dp349
g19
I7
sg20
I9
sg28
(I1
I1
I4
I3
tp350
sbaa(lp351
g0
(g24
g2
Ntp352
Rp353
(dp354
g19
I8
sg20
I9
sg28
(I4
I2
I1
I0
tp355
sbaa(lp356
a(lp357
a(lp358
aa(lp359
(lp360
a(lp361
a(lp362
a(lp363
a(lp364
a(lp365
g298
aa(lp366
g316
aa(lp367
g0
(g24
g2
Ntp368
Rp369
(dp370
g19
I7
sg20
I10
sg28
(I1
I0
I1
I0
tp371
sbaa(lp372
a(lp373
a(lp374
a(lp375
aa(lp376
(lp377
a(lp378
a(lp379
a(lp380
a(lp381
a(lp382
a(lp383
a(lp384
a(lp385
a(lp386
a(lp387
a(lp388
aasS'iscale'
p389
I3
sb.