ccopy_reg
_reconstructor
p0
(cWorldMap
WorldMap
p1
c__builtin__
object
p2
Ntp3
Rp4
(dp5
S'paths'
p6
(lp7
(lp8
NaNaNaNaNaNaNaNaNaNaNaNaNaa(lp9
NaNaNaNag0
(cWMObjects
Path
p10
g2
Ntp11
Rp12
(dp13
S'corners'
p14
(I0
I1
I2
I3
tp15
sS'bridgeends'
p16
(lp17
I0
aI00
aI00
aI0
asS'bridge'
p18
I00
sbag0
(g10
g2
Ntp19
Rp20
(dp21
g14
(I2
I2
I2
I2
tp22
sg16
(lp23
I00
aI0
aI00
aI0
asg18
I00
sbag0
(g10
g2
Ntp24
Rp25
(dp26
g14
(I2
I2
I2
I2
tp27
sg16
(lp28
I00
aI0
aI01
aI0
asg18
I00
sbag0
(g10
g2
Ntp29
Rp30
(dp31
g14
(I2
I2
I2
I2
tp32
sg18
I01
sbag0
(g10
g2
Ntp33
Rp34
(dp35
g14
(I2
I2
I2
I2
tp36
sg18
I01
sbag0
(g10
g2
Ntp37
Rp38
(dp39
g14
(I2
I2
I2
I2
tp40
sg18
I01
sbag0
(g10
g2
Ntp41
Rp42
(dp43
g14
(I2
I2
I2
I2
tp44
sg16
(lp45
I01
aI0
aI00
aI0
asg18
I00
sbag0
(g10
g2
Ntp46
Rp47
(dp48
g14
(I2
I3
I0
I1
tp49
sg16
(lp50
I00
aI00
aI0
aI0
asg18
I00
sbaNaa(lp51
NaNag0
(cWMObjects
Level
p52
g2
Ntp53
Rp54
(dp55
S'lname'
p56
S'THEWALL'
p57
sg14
(I0
I1
I2
I3
tp58
sS'b'
p59
g0
(cBoard
Board
p60
g2
Ntp61
Rp62
(dp63
S'sy'
p64
I12
sS'sx'
p65
I9
sS'rscale'
p66
I64
sS'ascale'
p67
I4
sS't'
p68
(lp69
(lp70
(lp71
g0
(cTiles
Dirt
p72
g2
Ntp73
Rp74
(dp75
S'y'
p76
I0
sS'x'
p77
I0
sg14
(I4
I4
I4
I4
tp78
sbaa(lp79
g0
(g72
g2
Ntp80
Rp81
(dp82
g76
I1
sg77
I0
sg14
(I4
I4
I4
I4
tp83
sbaa(lp84
g0
(g72
g2
Ntp85
Rp86
(dp87
g76
I2
sg77
I0
sg14
(I4
I4
I4
I4
tp88
sbaa(lp89
g0
(g72
g2
Ntp90
Rp91
(dp92
g76
I3
sg77
I0
sg14
(I4
I4
I4
I4
tp93
sbaa(lp94
g0
(g72
g2
Ntp95
Rp96
(dp97
g76
I4
sg77
I0
sg14
(I4
I4
I4
I4
tp98
sbaa(lp99
g0
(g72
g2
Ntp100
Rp101
(dp102
g76
I5
sg77
I0
sg14
(I4
I4
I1
I1
tp103
sbaa(lp104
g0
(cSnake
SnakeSeg
p105
g2
Ntp106
Rp107
(dp108
S'gshape'
p109
g0
(cSnake
Snake
p110
g2
Ntp111
Rp112
(dp113
S'iid'
p114
I1
sS'tiles'
p115
(lp116
g107
ag0
(g105
g2
Ntp117
Rp118
(dp119
g109
g112
sS'snake'
p120
g112
sS'fdir'
p121
I2
sg76
I7
sg77
I0
sS'bdir'
p122
I0
sbag0
(g105
g2
Ntp123
Rp124
(dp125
g109
g112
sg120
g112
sg121
I1
sg76
I8
sg77
I0
sg122
I0
sbag0
(cSnake
SnakeHead
p126
g2
Ntp127
Rp128
(dp129
g76
I8
sg77
I1
sg109
g112
sg120
g112
sS'd'
p130
I1
sbasbsg120
g112
sg121
I2
sg76
I6
sg77
I0
sg122
Nsbaa(lp131
g118
aa(lp132
g124
aa(lp133
g0
(g72
g2
Ntp134
Rp135
(dp136
g76
I9
sg77
I0
sg14
(I1
I1
I4
I4
tp137
sbaa(lp138
g0
(g72
g2
Ntp139
Rp140
(dp141
g76
I10
sg77
I0
sg14
(I4
I4
I4
I4
tp142
sbaa(lp143
g0
(g72
g2
Ntp144
Rp145
(dp146
g76
I11
sg77
I0
sg14
(I4
I4
I4
I4
tp147
sbaaa(lp148
(lp149
g0
(g72
g2
Ntp150
Rp151
(dp152
g76
I0
sg77
I1
sg14
(I4
I2
I4
I2
tp153
sbaa(lp154
g0
(g72
g2
Ntp155
Rp156
(dp157
g76
I1
sg77
I1
sg14
(I4
I3
I4
I4
tp158
sbaa(lp159
g0
(g72
g2
Ntp160
Rp161
(dp162
g76
I2
sg77
I1
sg14
(I4
I4
I4
I4
tp163
sbaa(lp164
g0
(g72
g2
Ntp165
Rp166
(dp167
g76
I3
sg77
I1
sg14
(I4
I4
I4
I4
tp168
sbaa(lp169
g0
(g72
g2
Ntp170
Rp171
(dp172
g76
I4
sg77
I1
sg14
(I4
I4
I4
I4
tp173
sbaa(lp174
g0
(g72
g2
Ntp175
Rp176
(dp177
g76
I5
sg77
I1
sg14
(I4
I4
I1
I1
tp178
sbaa(lp179
g0
(cInteractives
XBlock
p180
g2
Ntp181
Rp182
(dp183
g76
I6
sg77
I1
sS'active'
p184
I0
sS'col'
p185
I0
sbaa(lp186
g0
(g180
g2
Ntp187
Rp188
(dp189
g76
I7
sg77
I1
sg184
I0
sg185
I0
sbaa(lp190
g128
aa(lp191
g0
(g72
g2
Ntp192
Rp193
(dp194
g76
I9
sg77
I1
sg14
(I1
I1
I4
I4
tp195
sbaa(lp196
g0
(g72
g2
Ntp197
Rp198
(dp199
g76
I10
sg77
I1
sg14
(I4
I4
I4
I4
tp200
sbaa(lp201
g0
(g72
g2
Ntp202
Rp203
(dp204
g76
I11
sg77
I1
sg14
(I4
I4
I4
I4
tp205
sbaaa(lp206
(lp207
g0
(cTiles
Spikes
p208
g2
Ntp209
Rp210
(dp211
g76
I0
sg77
I2
sS'i'
p212
I12
sbaa(lp213
g0
(g72
g2
Ntp214
Rp215
(dp216
g76
I1
sg77
I2
sg14
(I1
I0
I4
I2
tp217
sbaa(lp218
g0
(g72
g2
Ntp219
Rp220
(dp221
g76
I2
sg77
I2
sg14
(I4
I3
I4
I4
tp222
sbaa(lp223
g0
(g72
g2
Ntp224
Rp225
(dp226
g76
I3
sg77
I2
sg14
(I4
I4
I4
I4
tp227
sbaa(lp228
g0
(g72
g2
Ntp229
Rp230
(dp231
g76
I4
sg77
I2
sg14
(I4
I4
I4
I4
tp232
sbaa(lp233
g0
(g72
g2
Ntp234
Rp235
(dp236
g76
I5
sg77
I2
sg14
(I4
I4
I1
I1
tp237
sbaa(lp238
a(lp239
a(lp240
g0
(g180
g2
Ntp241
Rp242
(dp243
g76
I8
sg77
I2
sg184
I0
sg185
I0
sbaa(lp244
g0
(g72
g2
Ntp245
Rp246
(dp247
g76
I9
sg77
I2
sg14
(I1
I1
I4
I3
tp248
sbaa(lp249
g0
(g72
g2
Ntp250
Rp251
(dp252
g76
I10
sg77
I2
sg14
(I4
I2
I4
I2
tp253
sbaa(lp254
g0
(g72
g2
Ntp255
Rp256
(dp257
g76
I11
sg77
I2
sg14
(I4
I3
I4
I4
tp258
sbaaa(lp259
(lp260
a(lp261
a(lp262
g0
(g72
g2
Ntp263
Rp264
(dp265
g76
I2
sg77
I3
sg14
(I1
I1
I4
I4
tp266
sbaa(lp267
g0
(g72
g2
Ntp268
Rp269
(dp270
g76
I3
sg77
I3
sg14
(I4
I4
I4
I4
tp271
sbaa(lp272
g0
(g72
g2
Ntp273
Rp274
(dp275
g76
I4
sg77
I3
sg14
(I4
I4
I4
I4
tp276
sbaa(lp277
g0
(g72
g2
Ntp278
Rp279
(dp280
g76
I5
sg77
I3
sg14
(I4
I4
I1
I1
tp281
sbaa(lp282
g0
(g180
g2
Ntp283
Rp284
(dp285
g76
I6
sg77
I3
sg184
I1
sg185
I0
sbaa(lp286
g0
(g180
g2
Ntp287
Rp288
(dp289
g76
I7
sg77
I3
sg184
I1
sg185
I1
sbaa(lp290
a(lp291
g0
(g72
g2
Ntp292
Rp293
(dp294
g76
I9
sg77
I3
sg14
(I1
I1
I1
I1
tp295
sbaa(lp296
g0
(cInteractives
XButton
p297
g2
Ntp298
Rp299
(dp300
g76
I10
sg77
I3
sg185
I0
sbaa(lp301
g0
(g72
g2
Ntp302
Rp303
(dp304
g76
I11
sg77
I3
sg14
(I1
I1
I4
I4
tp305
sbaaa(lp306
(lp307
a(lp308
a(lp309
g0
(g72
g2
Ntp310
Rp311
(dp312
g76
I2
sg77
I4
sg14
(I1
I1
I4
I4
tp313
sbaa(lp314
g0
(g72
g2
Ntp315
Rp316
(dp317
g76
I3
sg77
I4
sg14
(I4
I4
I4
I4
tp318
sbaa(lp319
g0
(g72
g2
Ntp320
Rp321
(dp322
g76
I4
sg77
I4
sg14
(I4
I4
I4
I4
tp323
sbaa(lp324
g0
(g72
g2
Ntp325
Rp326
(dp327
g76
I5
sg77
I4
sg14
(I4
I4
I1
I1
tp328
sbaa(lp329
a(lp330
g0
(g180
g2
Ntp331
Rp332
(dp333
g76
I7
sg77
I4
sg184
I1
sg185
I0
sbaa(lp334
g0
(g180
g2
Ntp335
Rp336
(dp337
g76
I8
sg77
I4
sg184
I1
sg185
I0
sbaa(lp338
g0
(g72
g2
Ntp339
Rp340
(dp341
g76
I9
sg77
I4
sg14
(I1
I1
I3
I3
tp342
sbaa(lp343
g0
(g72
g2
Ntp344
Rp345
(dp346
g76
I10
sg77
I4
sg14
(I2
I2
I2
I2
tp347
sbaa(lp348
g0
(g72
g2
Ntp349
Rp350
(dp351
g76
I11
sg77
I4
sg14
(I3
I3
I4
I4
tp352
sbaaa(lp353
(lp354
a(lp355
g0
(g208
g2
Ntp356
Rp357
(dp358
g76
I1
sg77
I5
sg212
I6
sbaa(lp359
g0
(g72
g2
Ntp360
Rp361
(dp362
g76
I2
sg77
I5
sg14
(I1
I1
I4
I4
tp363
sbaa(lp364
g0
(g72
g2
Ntp365
Rp366
(dp367
g76
I3
sg77
I5
sg14
(I4
I4
I4
I4
tp368
sbaa(lp369
g0
(g72
g2
Ntp370
Rp371
(dp372
g76
I4
sg77
I5
sg14
(I4
I4
I4
I4
tp373
sbaa(lp374
g0
(g72
g2
Ntp375
Rp376
(dp377
g76
I5
sg77
I5
sg14
(I4
I4
I1
I1
tp378
sbaa(lp379
g0
(g180
g2
Ntp380
Rp381
(dp382
g76
I6
sg77
I5
sg184
I0
sg185
I1
sbaa(lp383
g0
(g180
g2
Ntp384
Rp385
(dp386
g76
I7
sg77
I5
sg184
I0
sg185
I1
sbaa(lp387
g0
(g180
g2
Ntp388
Rp389
(dp390
g76
I8
sg77
I5
sg184
I0
sg185
I1
sbaa(lp391
g0
(g72
g2
Ntp392
Rp393
(dp394
g76
I9
sg77
I5
sg14
(I1
I1
I1
I1
tp395
sbaa(lp396
g0
(g297
g2
Ntp397
Rp398
(dp399
g76
I10
sg77
I5
sg185
I1
sbaa(lp400
g0
(g72
g2
Ntp401
Rp402
(dp403
g76
I11
sg77
I5
sg14
(I1
I1
I4
I4
tp404
sbaaa(lp405
(lp406
a(lp407
g0
(g208
g2
Ntp408
Rp409
(dp410
g76
I1
sg77
I6
sg212
I12
sbaa(lp411
g0
(g72
g2
Ntp412
Rp413
(dp414
g76
I2
sg77
I6
sg14
(I1
I1
I4
I4
tp415
sbaa(lp416
g0
(g72
g2
Ntp417
Rp418
(dp419
g76
I3
sg77
I6
sg14
(I4
I4
I4
I4
tp420
sbaa(lp421
g0
(g72
g2
Ntp422
Rp423
(dp424
g76
I4
sg77
I6
sg14
(I4
I4
I4
I4
tp425
sbaa(lp426
g0
(g72
g2
Ntp427
Rp428
(dp429
g76
I5
sg77
I6
sg14
(I4
I4
I1
I1
tp430
sbaa(lp431
a(lp432
a(lp433
a(lp434
g0
(g72
g2
Ntp435
Rp436
(dp437
g76
I9
sg77
I6
sg14
(I1
I1
I3
I4
tp438
sbaa(lp439
g0
(g72
g2
Ntp440
Rp441
(dp442
g76
I10
sg77
I6
sg14
(I2
I4
I2
I4
tp443
sbaa(lp444
g0
(g72
g2
Ntp445
Rp446
(dp447
g76
I11
sg77
I6
sg14
(I3
I4
I4
I4
tp448
sbaaa(lp449
(lp450
a(lp451
a(lp452
g0
(g72
g2
Ntp453
Rp454
(dp455
g76
I2
sg77
I7
sg14
(I1
I1
I4
I4
tp456
sbaa(lp457
g0
(g72
g2
Ntp458
Rp459
(dp460
g76
I3
sg77
I7
sg14
(I4
I4
I4
I4
tp461
sbaa(lp462
g0
(g72
g2
Ntp463
Rp464
(dp465
g76
I4
sg77
I7
sg14
(I4
I4
I4
I4
tp466
sbaa(lp467
g0
(g72
g2
Ntp468
Rp469
(dp470
g76
I5
sg77
I7
sg14
(I4
I4
I1
I1
tp471
sbaa(lp472
a(lp473
g0
(g180
g2
Ntp474
Rp475
(dp476
g76
I7
sg77
I7
sg184
I1
sg185
I1
sbaa(lp477
g0
(g180
g2
Ntp478
Rp479
(dp480
g76
I8
sg77
I7
sg184
I1
sg185
I1
sbaa(lp481
g0
(g72
g2
Ntp482
Rp483
(dp484
g76
I9
sg77
I7
sg14
(I1
I1
I4
I4
tp485
sbaa(lp486
g0
(g72
g2
Ntp487
Rp488
(dp489
g76
I10
sg77
I7
sg14
(I4
I4
I4
I4
tp490
sbaa(lp491
g0
(g72
g2
Ntp492
Rp493
(dp494
g76
I11
sg77
I7
sg14
(I4
I4
I4
I4
tp495
sbaaa(lp496
(lp497
a(lp498
a(lp499
g0
(g72
g2
Ntp500
Rp501
(dp502
g76
I2
sg77
I8
sg14
(I1
I1
I4
I4
tp503
sbaa(lp504
g0
(g72
g2
Ntp505
Rp506
(dp507
g76
I3
sg77
I8
sg14
(I4
I4
I4
I4
tp508
sbaa(lp509
g0
(g72
g2
Ntp510
Rp511
(dp512
g76
I4
sg77
I8
sg14
(I4
I4
I4
I4
tp513
sbaa(lp514
g0
(g72
g2
Ntp515
Rp516
(dp517
g76
I5
sg77
I8
sg14
(I4
I4
I1
I1
tp518
sbaa(lp519
g0
(g180
g2
Ntp520
Rp521
(dp522
g76
I6
sg77
I8
sg184
I1
sg185
I1
sbaa(lp523
g0
(cTiles
Portal
p524
g2
Ntp525
Rp526
(dp527
g76
I7
sg77
I8
sg212
I01
sbaa(lp528
a(lp529
g0
(g72
g2
Ntp530
Rp531
(dp532
g76
I9
sg77
I8
sg14
(I1
I1
I4
I4
tp533
sbaa(lp534
g0
(g72
g2
Ntp535
Rp536
(dp537
g76
I10
sg77
I8
sg14
(I4
I4
I4
I4
tp538
sbaa(lp539
g0
(g72
g2
Ntp540
Rp541
(dp542
g76
I11
sg77
I8
sg14
(I4
I4
I4
I4
tp543
sbaaasS'iscale'
p544
I3
sbsg16
(lp545
I0
aI00
aI00
aI0
asg18
I00
sbag0
(g10
g2
Ntp546
Rp547
(dp548
g14
(I2
I2
I2
I2
tp549
sg16
(lp550
I00
aI0
aI00
aI0
asg18
I00
sbag0
(g52
g2
Ntp551
Rp552
(dp553
g56
S'thud'
p554
sg14
(I3
I2
I1
I0
tp555
sg59
g0
(g60
g2
Ntp556
Rp557
(dp558
g64
I13
sg65
I12
sg66
I64
sg67
I4
sg68
(lp559
(lp560
(lp561
a(lp562
a(lp563
g0
(g72
g2
Ntp564
Rp565
(dp566
g76
I2
sg77
I0
sg14
(I1
I0
I1
I0
tp567
sbaa(lp568
a(lp569
a(lp570
a(lp571
a(lp572
a(lp573
a(lp574
a(lp575
a(lp576
a(lp577
aa(lp578
(lp579
a(lp580
a(lp581
a(lp582
a(lp583
a(lp584
a(lp585
a(lp586
a(lp587
a(lp588
g0
(g72
g2
Ntp589
Rp590
(dp591
g76
I9
sg77
I1
sg14
(I0
I0
I0
I0
tp592
sbaa(lp593
a(lp594
a(lp595
aa(lp596
(lp597
a(lp598
g0
(g72
g2
Ntp599
Rp600
(dp601
g76
I1
sg77
I2
sg14
(I0
I0
I0
I0
tp602
sbaa(lp603
g0
(cInteractives
SpikyThud
p604
g2
Ntp605
Rp606
(dp607
g76
I2
sg77
I2
sg109
g0
(cTiles
GravShape
p608
g2
Ntp609
Rp610
(dp611
g115
(lp612
g606
asbsbaa(lp613
a(lp614
a(lp615
a(lp616
a(lp617
a(lp618
a(lp619
a(lp620
a(lp621
a(lp622
aa(lp623
(lp624
a(lp625
a(lp626
a(lp627
a(lp628
a(lp629
a(lp630
a(lp631
a(lp632
a(lp633
a(lp634
a(lp635
a(lp636
aa(lp637
(lp638
a(lp639
a(lp640
a(lp641
a(lp642
a(lp643
a(lp644
a(lp645
a(lp646
a(lp647
a(lp648
a(lp649
a(lp650
aa(lp651
(lp652
a(lp653
a(lp654
a(lp655
a(lp656
g0
(g524
g2
Ntp657
Rp658
(dp659
g76
I4
sg77
I5
sg212
I01
sbaa(lp660
a(lp661
a(lp662
a(lp663
a(lp664
a(lp665
a(lp666
a(lp667
aa(lp668
(lp669
a(lp670
g0
(g72
g2
Ntp671
Rp672
(dp673
g76
I1
sg77
I6
sg14
(I0
I0
I0
I0
tp674
sbaa(lp675
a(lp676
a(lp677
a(lp678
g0
(cTiles
WoodPlatform
p679
g2
Ntp680
Rp681
(dp682
g76
I5
sg77
I6
sg212
I0
sbaa(lp683
a(lp684
a(lp685
a(lp686
a(lp687
a(lp688
a(lp689
aa(lp690
(lp691
a(lp692
a(lp693
a(lp694
a(lp695
a(lp696
a(lp697
a(lp698
a(lp699
g0
(g72
g2
Ntp700
Rp701
(dp702
g76
I8
sg77
I7
sg14
(I0
I0
I0
I0
tp703
sbaa(lp704
a(lp705
a(lp706
a(lp707
aa(lp708
(lp709
a(lp710
a(lp711
a(lp712
a(lp713
a(lp714
a(lp715
a(lp716
a(lp717
a(lp718
a(lp719
a(lp720
g0
(g72
g2
Ntp721
Rp722
(dp723
g76
I11
sg77
I8
sg14
(I0
I0
I2
I2
tp724
sbaa(lp725
aa(lp726
(lp727
a(lp728
a(lp729
a(lp730
a(lp731
a(lp732
a(lp733
a(lp734
a(lp735
a(lp736
g0
(g72
g2
Ntp737
Rp738
(dp739
g76
I9
sg77
I9
sg14
(I0
I0
I0
I0
tp740
sbaa(lp741
a(lp742
a(lp743
aa(lp744
(lp745
a(lp746
a(lp747
g0
(g72
g2
Ntp748
Rp749
(dp750
g76
I2
sg77
I10
sg14
(I0
I0
I0
I0
tp751
sbaa(lp752
a(lp753
a(lp754
a(lp755
a(lp756
a(lp757
a(lp758
a(lp759
a(lp760
a(lp761
aa(lp762
(lp763
a(lp764
a(lp765
a(lp766
a(lp767
a(lp768
a(lp769
a(lp770
a(lp771
a(lp772
a(lp773
a(lp774
a(lp775
aasg544
I3
sbsg16
(lp776
I00
aI0
aI0
aI00
asg18
I00
sbaNaNaNaNaNaNag0
(g52
g2
Ntp777
Rp778
(dp779
g56
S'penguins'
p780
sg14
(I1
I1
I1
I1
tp781
sg59
g0
(g60
g2
Ntp782
Rp783
(dp784
S'biome'
p785
cBiomes
Snow
p786
sg64
I9
sg65
I12
sg66
I64
sg67
I4
sS'music'
p787
S'Snow'
p788
sg68
(lp789
(lp790
(lp791
a(lp792
a(lp793
g0
(cTiles
Snow
p794
g2
Ntp795
Rp796
(dp797
g76
I2
sg77
I0
sg14
(I1
I1
I4
I4
tp798
sbaa(lp799
g0
(g794
g2
Ntp800
Rp801
(dp802
g76
I3
sg77
I0
sg14
(I4
I4
I1
I1
tp803
sbaa(lp804
g0
(g524
g2
Ntp805
Rp806
(dp807
g76
I4
sg77
I0
sg212
I01
sbaa(lp808
g0
(g180
g2
Ntp809
Rp810
(dp811
g76
I5
sg77
I0
sg184
I0
sg185
I1
sbaa(lp812
a(lp813
a(lp814
aa(lp815
(lp816
a(lp817
g0
(cInteractives
Penguin
p818
g2
Ntp819
Rp820
(dp821
g76
I1
sg77
I1
sg109
g0
(g608
g2
Ntp822
Rp823
(dp824
g115
(lp825
g820
asbsbaa(lp826
g0
(g794
g2
Ntp827
Rp828
(dp829
g76
I2
sg77
I1
sg14
(I1
I1
I4
I4
tp830
sbaa(lp831
g0
(g794
g2
Ntp832
Rp833
(dp834
g76
I3
sg77
I1
sg14
(I4
I4
I1
I1
tp835
sbaa(lp836
a(lp837
g0
(g180
g2
Ntp838
Rp839
(dp840
g76
I5
sg77
I1
sg184
I0
sg185
I1
sbaa(lp841
a(lp842
a(lp843
aa(lp844
(lp845
a(lp846
g0
(g818
g2
Ntp847
Rp848
(dp849
g76
I1
sg77
I2
sg109
g0
(g608
g2
Ntp850
Rp851
(dp852
g115
(lp853
g848
asbsbaa(lp854
g0
(g794
g2
Ntp855
Rp856
(dp857
g76
I2
sg77
I2
sg14
(I1
I1
I4
I4
tp858
sbaa(lp859
g0
(g794
g2
Ntp860
Rp861
(dp862
g76
I3
sg77
I2
sg14
(I4
I4
I1
I1
tp863
sbaa(lp864
a(lp865
g0
(g180
g2
Ntp866
Rp867
(dp868
g76
I5
sg77
I2
sg184
I0
sg185
I1
sbaa(lp869
a(lp870
a(lp871
aa(lp872
(lp873
a(lp874
g0
(g818
g2
Ntp875
Rp876
(dp877
g76
I1
sg77
I3
sg109
g0
(g608
g2
Ntp878
Rp879
(dp880
g115
(lp881
g876
asbsbaa(lp882
g0
(g794
g2
Ntp883
Rp884
(dp885
g76
I2
sg77
I3
sg14
(I1
I1
I4
I4
tp886
sbaa(lp887
g0
(g794
g2
Ntp888
Rp889
(dp890
g76
I3
sg77
I3
sg14
(I4
I4
I1
I1
tp891
sbaa(lp892
a(lp893
g0
(g180
g2
Ntp894
Rp895
(dp896
g76
I5
sg77
I3
sg184
I0
sg185
I1
sbaa(lp897
a(lp898
a(lp899
aa(lp900
(lp901
a(lp902
a(lp903
g0
(g794
g2
Ntp904
Rp905
(dp906
g76
I2
sg77
I4
sg14
(I1
I1
I4
I3
tp907
sbaa(lp908
g0
(g794
g2
Ntp909
Rp910
(dp911
g76
I3
sg77
I4
sg14
(I4
I2
I1
I0
tp912
sbaa(lp913
a(lp914
g0
(g180
g2
Ntp915
Rp916
(dp917
g76
I5
sg77
I4
sg184
I0
sg185
I1
sbaa(lp918
a(lp919
g0
(g794
g2
Ntp920
Rp921
(dp922
g76
I7
sg77
I4
sg14
(I0
I1
I2
I4
tp923
sbaa(lp924
g0
(g794
g2
Ntp925
Rp926
(dp927
g76
I8
sg77
I4
sg14
(I2
I4
I2
I4
tp928
sbaaa(lp929
(lp930
a(lp931
a(lp932
g0
(g794
g2
Ntp933
Rp934
(dp935
g76
I2
sg77
I5
sg14
(I1
I0
I1
I0
tp936
sbaa(lp937
a(lp938
a(lp939
g0
(g180
g2
Ntp940
Rp941
(dp942
g76
I5
sg77
I5
sg184
I0
sg185
I1
sbaa(lp943
g0
(g794
g2
Ntp944
Rp945
(dp946
g76
I6
sg77
I5
sg14
(I0
I1
I2
I4
tp947
sbaa(lp948
g0
(g794
g2
Ntp949
Rp950
(dp951
g76
I7
sg77
I5
sg14
(I3
I4
I4
I3
tp952
sbaa(lp953
g0
(g794
g2
Ntp954
Rp955
(dp956
g76
I8
sg77
I5
sg14
(I4
I2
I4
I2
tp957
sbaaa(lp958
(lp959
a(lp960
a(lp961
a(lp962
a(lp963
a(lp964
g0
(g794
g2
Ntp965
Rp966
(dp967
g76
I5
sg77
I6
sg14
(I0
I1
I2
I4
tp968
sbaa(lp969
g0
(g794
g2
Ntp970
Rp971
(dp972
g76
I6
sg77
I6
sg14
(I3
I4
I4
I3
tp973
sbaa(lp974
g0
(g794
g2
Ntp975
Rp976
(dp977
g76
I7
sg77
I6
sg14
(I4
I2
I1
I0
tp978
sbaa(lp979
aa(lp980
(lp981
a(lp982
a(lp983
a(lp984
a(lp985
a(lp986
g0
(g794
g2
Ntp987
Rp988
(dp989
g76
I5
sg77
I7
sg14
(I1
I1
I4
I4
tp990
sbaa(lp991
g0
(g794
g2
Ntp992
Rp993
(dp994
g76
I6
sg77
I7
sg14
(I4
I4
I1
I1
tp995
sbaa(lp996
a(lp997
aa(lp998
(lp999
a(lp1000
a(lp1001
a(lp1002
a(lp1003
a(lp1004
g0
(g794
g2
Ntp1005
Rp1006
(dp1007
g76
I5
sg77
I8
sg14
(I1
I1
I4
I4
tp1008
sbaa(lp1009
g0
(g794
g2
Ntp1010
Rp1011
(dp1012
g76
I6
sg77
I8
sg14
(I4
I4
I1
I1
tp1013
sbaa(lp1014
a(lp1015
aa(lp1016
(lp1017
a(lp1018
a(lp1019
a(lp1020
g0
(cInteractives
XSwitch
p1021
g2
Ntp1022
Rp1023
(dp1024
g76
I3
sg77
I9
sS'r'
p1025
I1
sg184
I01
sg185
I1
sbaa(lp1026
a(lp1027
g0
(g794
g2
Ntp1028
Rp1029
(dp1030
g76
I5
sg77
I9
sg14
(I1
I1
I4
I4
tp1031
sbaa(lp1032
g0
(g794
g2
Ntp1033
Rp1034
(dp1035
g76
I6
sg77
I9
sg14
(I4
I4
I1
I1
tp1036
sbaa(lp1037
a(lp1038
aa(lp1039
(lp1040
a(lp1041
a(lp1042
a(lp1043
g0
(g794
g2
Ntp1044
Rp1045
(dp1046
g76
I3
sg77
I10
sg14
(I0
I0
I2
I2
tp1047
sbaa(lp1048
g0
(g794
g2
Ntp1049
Rp1050
(dp1051
g76
I4
sg77
I10
sg14
(I2
I3
I2
I4
tp1052
sbaa(lp1053
g0
(g794
g2
Ntp1054
Rp1055
(dp1056
g76
I5
sg77
I10
sg14
(I3
I4
I4
I4
tp1057
sbaa(lp1058
g0
(g794
g2
Ntp1059
Rp1060
(dp1061
g76
I6
sg77
I10
sg14
(I4
I4
I3
I4
tp1062
sbaa(lp1063
g0
(g794
g2
Ntp1064
Rp1065
(dp1066
g76
I7
sg77
I10
sg14
(I2
I4
I2
I4
tp1067
sbaa(lp1068
g0
(g794
g2
Ntp1069
Rp1070
(dp1071
g76
I8
sg77
I10
sg14
(I2
I4
I2
I4
tp1072
sbaaa(lp1073
(lp1074
a(lp1075
a(lp1076
a(lp1077
a(lp1078
g0
(g794
g2
Ntp1079
Rp1080
(dp1081
g76
I4
sg77
I11
sg14
(I1
I1
I4
I4
tp1082
sbaa(lp1083
g0
(g794
g2
Ntp1084
Rp1085
(dp1086
g76
I5
sg77
I11
sg14
(I4
I4
I4
I4
tp1087
sbaa(lp1088
g0
(g794
g2
Ntp1089
Rp1090
(dp1091
g76
I6
sg77
I11
sg14
(I4
I4
I4
I4
tp1092
sbaa(lp1093
g0
(g794
g2
Ntp1094
Rp1095
(dp1096
g76
I7
sg77
I11
sg14
(I4
I4
I4
I4
tp1097
sbaa(lp1098
g0
(g794
g2
Ntp1099
Rp1100
(dp1101
g76
I8
sg77
I11
sg14
(I4
I4
I4
I4
tp1102
sbaaasg544
I3
sbsg16
(lp1103
I0
aI00
aI0
aI00
asg18
I00
sbaNaa(lp1104
NaNag0
(g10
g2
Ntp1105
Rp1106
(dp1107
g14
(I1
I1
I1
I1
tp1108
sg16
(lp1109
I0
aI00
aI0
aI00
asg18
I00
sbaNaNaNag0
(cWMObjects
Spawn
p1110
g2
Ntp1111
Rp1112
(dp1113
g14
(I0
I1
I0
I1
tp1114
sg16
(lp1115
I0
aI00
aI0
aI0
asg18
I00
sbaNaNaNaNag0
(g10
g2
Ntp1116
Rp1117
(dp1118
g14
(I1
I1
I1
I1
tp1119
sg16
(lp1120
I0
aI00
aI0
aI00
asg18
I00
sbaNaa(lp1121
Nag0
(g10
g2
Ntp1122
Rp1123
(dp1124
g14
(I0
I1
I2
I3
tp1125
sg16
(lp1126
I0
aI00
aI00
aI0
asg18
I00
sbag0
(g52
g2
Ntp1127
Rp1128
(dp1129
g56
S'againagain'
p1130
sg14
(I3
I2
I3
I2
tp1131
sg59
g0
(g60
g2
Ntp1132
Rp1133
(dp1134
g64
I12
sg65
I12
sg66
I64
sg67
I4
sg68
(lp1135
(lp1136
(lp1137
a(lp1138
a(lp1139
a(lp1140
a(lp1141
a(lp1142
a(lp1143
g0
(g72
g2
Ntp1144
Rp1145
(dp1146
g76
I6
sg77
I0
sg14
(I1
I0
I1
I0
tp1147
sbaa(lp1148
a(lp1149
a(lp1150
a(lp1151
a(lp1152
aa(lp1153
(lp1154
a(lp1155
a(lp1156
a(lp1157
g0
(g1021
g2
Ntp1158
Rp1159
(dp1160
g76
I3
sg77
I1
sg1025
I2
sg184
I01
sg185
I0
sbaa(lp1161
g0
(g72
g2
Ntp1162
Rp1163
(dp1164
g76
I4
sg77
I1
sg14
(I0
I1
I0
I1
tp1165
sbaa(lp1166
a(lp1167
a(lp1168
a(lp1169
a(lp1170
a(lp1171
a(lp1172
aa(lp1173
(lp1174
a(lp1175
a(lp1176
a(lp1177
a(lp1178
g0
(g72
g2
Ntp1179
Rp1180
(dp1181
g76
I4
sg77
I2
sg14
(I1
I1
I1
I1
tp1182
sbaa(lp1183
a(lp1184
a(lp1185
a(lp1186
a(lp1187
a(lp1188
a(lp1189
aa(lp1190
(lp1191
g0
(g72
g2
Ntp1192
Rp1193
(dp1194
g76
I0
sg77
I3
sg14
(I2
I2
I2
I2
tp1195
sbaa(lp1196
g0
(g72
g2
Ntp1197
Rp1198
(dp1199
g76
I1
sg77
I3
sg14
(I2
I2
I2
I2
tp1200
sbaa(lp1201
g0
(g72
g2
Ntp1202
Rp1203
(dp1204
g76
I2
sg77
I3
sg14
(I2
I3
I0
I1
tp1205
sbaa(lp1206
a(lp1207
g0
(g72
g2
Ntp1208
Rp1209
(dp1210
g76
I4
sg77
I3
sg14
(I1
I0
I1
I0
tp1211
sbaa(lp1212
a(lp1213
a(lp1214
a(lp1215
a(lp1216
a(lp1217
a(lp1218
aa(lp1219
(lp1220
g0
(g524
g2
Ntp1221
Rp1222
(dp1223
g76
I0
sg77
I4
sg212
I01
sbaa(lp1224
g0
(g180
g2
Ntp1225
Rp1226
(dp1227
g76
I1
sg77
I4
sg184
I1
sg185
I0
sbaa(lp1228
g0
(g72
g2
Ntp1229
Rp1230
(dp1231
g76
I2
sg77
I4
sg14
(I1
I1
I1
I1
tp1232
sbaa(lp1233
a(lp1234
g0
(g180
g2
Ntp1235
Rp1236
(dp1237
g76
I4
sg77
I4
sg184
I0
sg185
I0
sbaa(lp1238
a(lp1239
a(lp1240
g0
(cTiles
Block
p1241
g2
Ntp1242
Rp1243
(dp1244
g76
I7
sg77
I4
sg109
g0
(cTiles
BGravShape
p1245
g2
Ntp1246
Rp1247
(dp1248
g114
I3
sg115
(lp1249
g0
(g1241
g2
Ntp1250
Rp1251
(dp1252
g76
I8
sg77
I5
sg109
g1247
sg14
(I1
I0
I1
I0
tp1253
sbag0
(g1241
g2
Ntp1254
Rp1255
(dp1256
g76
I8
sg77
I4
sg109
g1247
sg14
(I2
I3
I0
I1
tp1257
sbag1243
asbsg14
(I0
I0
I2
I2
tp1258
sbaa(lp1259
g1255
aa(lp1260
g0
(g72
g2
Ntp1261
Rp1262
(dp1263
g76
I9
sg77
I4
sg14
(I0
I1
I2
I4
tp1264
sbaa(lp1265
g0
(g72
g2
Ntp1266
Rp1267
(dp1268
g76
I10
sg77
I4
sg14
(I2
I4
I0
I1
tp1269
sbaa(lp1270
aa(lp1271
(lp1272
g0
(g180
g2
Ntp1273
Rp1274
(dp1275
g76
I0
sg77
I5
sg184
I1
sg185
I0
sbaa(lp1276
g0
(g180
g2
Ntp1277
Rp1278
(dp1279
g76
I1
sg77
I5
sg184
I1
sg185
I0
sbaa(lp1280
g0
(g72
g2
Ntp1281
Rp1282
(dp1283
g76
I2
sg77
I5
sg14
(I1
I0
I3
I2
tp1284
sbaa(lp1285
g0
(g72
g2
Ntp1286
Rp1287
(dp1288
g76
I3
sg77
I5
sg14
(I2
I2
I2
I2
tp1289
sbaa(lp1290
g0
(g72
g2
Ntp1291
Rp1292
(dp1293
g76
I4
sg77
I5
sg14
(I2
I2
I2
I2
tp1294
sbaa(lp1295
g0
(g72
g2
Ntp1296
Rp1297
(dp1298
g76
I5
sg77
I5
sg14
(I2
I2
I0
I0
tp1299
sbaa(lp1300
a(lp1301
a(lp1302
g1251
aa(lp1303
g0
(g72
g2
Ntp1304
Rp1305
(dp1306
g76
I9
sg77
I5
sg14
(I1
I1
I4
I4
tp1307
sbaa(lp1308
g0
(g72
g2
Ntp1309
Rp1310
(dp1311
g76
I10
sg77
I5
sg14
(I4
I4
I3
I4
tp1312
sbaa(lp1313
g0
(g72
g2
Ntp1314
Rp1315
(dp1316
g76
I11
sg77
I5
sg14
(I2
I4
I2
I4
tp1317
sbaaa(lp1318
(lp1319
a(lp1320
a(lp1321
a(lp1322
a(lp1323
a(lp1324
a(lp1325
a(lp1326
a(lp1327
g0
(g126
g2
Ntp1328
Rp1329
(dp1330
g76
I8
sg77
I6
sg109
g0
(g110
g2
Ntp1331
Rp1332
(dp1333
g114
I1
sg115
(lp1334
g0
(g105
g2
Ntp1335
Rp1336
(dp1337
g109
g1332
sg120
g1332
sg121
I3
sg76
I8
sg77
I9
sg122
Nsbag0
(g105
g2
Ntp1338
Rp1339
(dp1340
g109
g1332
sg120
g1332
sg121
I3
sg76
I8
sg77
I8
sg122
I1
sbag0
(g105
g2
Ntp1341
Rp1342
(dp1343
g109
g1332
sg120
g1332
sg121
I3
sg76
I8
sg77
I7
sg122
I1
sbag1329
asbsg120
g1332
sg130
I3
sbaa(lp1344
g0
(g72
g2
Ntp1345
Rp1346
(dp1347
g76
I9
sg77
I6
sg14
(I1
I1
I4
I4
tp1348
sbaa(lp1349
g0
(g72
g2
Ntp1350
Rp1351
(dp1352
g76
I10
sg77
I6
sg14
(I4
I4
I4
I3
tp1353
sbaa(lp1354
g0
(g72
g2
Ntp1355
Rp1356
(dp1357
g76
I11
sg77
I6
sg14
(I4
I2
I4
I2
tp1358
sbaaa(lp1359
(lp1360
a(lp1361
a(lp1362
g0
(g72
g2
Ntp1363
Rp1364
(dp1365
g76
I2
sg77
I7
sg14
(I0
I0
I2
I2
tp1366
sbaa(lp1367
g0
(g72
g2
Ntp1368
Rp1369
(dp1370
g76
I3
sg77
I7
sg14
(I2
I2
I2
I2
tp1371
sbaa(lp1372
g0
(g72
g2
Ntp1373
Rp1374
(dp1375
g76
I4
sg77
I7
sg14
(I2
I2
I2
I2
tp1376
sbaa(lp1377
g0
(g72
g2
Ntp1378
Rp1379
(dp1380
g76
I5
sg77
I7
sg14
(I2
I2
I0
I0
tp1381
sbaa(lp1382
a(lp1383
a(lp1384
g1342
aa(lp1385
g0
(g72
g2
Ntp1386
Rp1387
(dp1388
g76
I9
sg77
I7
sg14
(I1
I1
I4
I4
tp1389
sbaa(lp1390
g0
(g72
g2
Ntp1391
Rp1392
(dp1393
g76
I10
sg77
I7
sg14
(I4
I4
I1
I1
tp1394
sbaa(lp1395
aa(lp1396
(lp1397
a(lp1398
a(lp1399
a(lp1400
a(lp1401
g0
(g180
g2
Ntp1402
Rp1403
(dp1404
g76
I4
sg77
I8
sg184
I1
sg185
I0
sbaa(lp1405
a(lp1406
a(lp1407
a(lp1408
g1339
aa(lp1409
g0
(g72
g2
Ntp1410
Rp1411
(dp1412
g76
I9
sg77
I8
sg14
(I1
I1
I4
I3
tp1413
sbaa(lp1414
g0
(g72
g2
Ntp1415
Rp1416
(dp1417
g76
I10
sg77
I8
sg14
(I4
I2
I1
I0
tp1418
sbaa(lp1419
aa(lp1420
(lp1421
a(lp1422
a(lp1423
a(lp1424
a(lp1425
g0
(g72
g2
Ntp1426
Rp1427
(dp1428
g76
I4
sg77
I9
sg14
(I0
I1
I0
I1
tp1429
sbaa(lp1430
a(lp1431
a(lp1432
a(lp1433
g1336
aa(lp1434
g0
(g72
g2
Ntp1435
Rp1436
(dp1437
g76
I9
sg77
I9
sg14
(I1
I1
I1
I1
tp1438
sbaa(lp1439
a(lp1440
aa(lp1441
(lp1442
g0
(g72
g2
Ntp1443
Rp1444
(dp1445
g76
I0
sg77
I10
sg14
(I2
I4
I0
I1
tp1446
sbaa(lp1447
a(lp1448
a(lp1449
g0
(g72
g2
Ntp1450
Rp1451
(dp1452
g76
I3
sg77
I10
sg14
(I0
I1
I2
I4
tp1453
sbaa(lp1454
g0
(g72
g2
Ntp1455
Rp1456
(dp1457
g76
I4
sg77
I10
sg14
(I3
I4
I1
I1
tp1458
sbaa(lp1459
a(lp1460
a(lp1461
a(lp1462
a(lp1463
g0
(g72
g2
Ntp1464
Rp1465
(dp1466
g76
I9
sg77
I10
sg14
(I1
I0
I1
I0
tp1467
sbaa(lp1468
a(lp1469
aa(lp1470
(lp1471
g0
(g72
g2
Ntp1472
Rp1473
(dp1474
g76
I0
sg77
I11
sg14
(I4
I4
I1
I1
tp1475
sbaa(lp1476
g0
(cTiles
Fruit
p1477
g2
Ntp1478
Rp1479
(dp1480
g76
I1
sg77
I11
sg114
I2
sbaa(lp1481
g0
(g1021
g2
Ntp1482
Rp1483
(dp1484
g76
I2
sg77
I11
sg1025
I2
sg184
I0
sg185
I0
sbaa(lp1485
g0
(g72
g2
Ntp1486
Rp1487
(dp1488
g76
I3
sg77
I11
sg14
(I1
I1
I4
I4
tp1489
sbaa(lp1490
g0
(g72
g2
Ntp1491
Rp1492
(dp1493
g76
I4
sg77
I11
sg14
(I4
I4
I1
I1
tp1494
sbaa(lp1495
a(lp1496
a(lp1497
a(lp1498
a(lp1499
a(lp1500
a(lp1501
aasg544
I3
sbsg16
(lp1502
I00
aI0
aI00
aI00
asg18
I00
sbag0
(g10
g2
Ntp1503
Rp1504
(dp1505
g14
(I2
I2
I2
I2
tp1506
sg16
(lp1507
I00
aI0
aI00
aI0
asg18
I00
sbag0
(g10
g2
Ntp1508
Rp1509
(dp1510
g14
(I2
I3
I0
I1
tp1511
sg16
(lp1512
I00
aI00
aI0
aI0
asg18
I00
sbaNag0
(g10
g2
Ntp1513
Rp1514
(dp1515
g14
(I1
I1
I1
I1
tp1516
sg16
(lp1517
I0
aI00
aI0
aI00
asg18
I00
sbaNaNaNaNag0
(g10
g2
Ntp1518
Rp1519
(dp1520
g14
(I1
I1
I1
I1
tp1521
sg16
(lp1522
I0
aI00
aI0
aI00
asg18
I00
sbaNaa(lp1523
Nag0
(g10
g2
Ntp1524
Rp1525
(dp1526
g14
(I1
I1
I1
I1
tp1527
sg16
(lp1528
I0
aI00
aI0
aI00
asg18
I00
sbaNaNag0
(g52
g2
Ntp1529
Rp1530
(dp1531
g56
S'greedy'
p1532
sg14
(I1
I1
I1
I1
tp1533
sg59
g0
(g60
g2
Ntp1534
Rp1535
(dp1536
g64
I12
sg65
I12
sg66
I64
sg67
I4
sg68
(lp1537
(lp1538
(lp1539
a(lp1540
a(lp1541
a(lp1542
a(lp1543
a(lp1544
a(lp1545
a(lp1546
a(lp1547
a(lp1548
a(lp1549
a(lp1550
aa(lp1551
(lp1552
a(lp1553
a(lp1554
a(lp1555
g0
(g105
g2
Ntp1556
Rp1557
(dp1558
g109
g0
(g110
g2
Ntp1559
Rp1560
(dp1561
g114
I2
sg115
(lp1562
g1557
ag0
(g105
g2
Ntp1563
Rp1564
(dp1565
g109
g1560
sg120
g1560
sg121
I1
sg76
I3
sg77
I2
sg122
I3
sbag0
(g126
g2
Ntp1566
Rp1567
(dp1568
g76
I3
sg77
I3
sg109
g1560
sg120
g1560
sg130
I1
sbasbsg120
g1560
sg121
I1
sg76
I3
sg77
I1
sg122
Nsbaa(lp1569
g0
(g72
g2
Ntp1570
Rp1571
(dp1572
g76
I4
sg77
I1
sg14
(I0
I1
I0
I1
tp1573
sbaa(lp1574
a(lp1575
a(lp1576
a(lp1577
a(lp1578
a(lp1579
a(lp1580
aa(lp1581
(lp1582
a(lp1583
a(lp1584
a(lp1585
g1564
aa(lp1586
g0
(g72
g2
Ntp1587
Rp1588
(dp1589
g76
I4
sg77
I2
sg14
(I1
I1
I1
I1
tp1590
sbaa(lp1591
a(lp1592
a(lp1593
a(lp1594
a(lp1595
a(lp1596
a(lp1597
aa(lp1598
(lp1599
a(lp1600
a(lp1601
a(lp1602
g1567
aa(lp1603
g0
(g72
g2
Ntp1604
Rp1605
(dp1606
g76
I4
sg77
I3
sg14
(I1
I0
I1
I0
tp1607
sbaa(lp1608
a(lp1609
a(lp1610
a(lp1611
a(lp1612
a(lp1613
a(lp1614
aa(lp1615
(lp1616
a(lp1617
a(lp1618
a(lp1619
a(lp1620
a(lp1621
a(lp1622
g0
(g1477
g2
Ntp1623
Rp1624
(dp1625
g76
I6
sg77
I4
sg114
I1
sbaa(lp1626
g0
(g1477
g2
Ntp1627
Rp1628
(dp1629
g76
I7
sg77
I4
sg114
I10
sbaa(lp1630
g0
(g1477
g2
Ntp1631
Rp1632
(dp1633
g76
I8
sg77
I4
sg114
I11
sbaa(lp1634
a(lp1635
a(lp1636
aa(lp1637
(lp1638
a(lp1639
a(lp1640
a(lp1641
a(lp1642
a(lp1643
a(lp1644
g0
(g1477
g2
Ntp1645
Rp1646
(dp1647
g76
I6
sg77
I5
sg114
I2
sbaa(lp1648
g0
(g1477
g2
Ntp1649
Rp1650
(dp1651
g76
I7
sg77
I5
sg114
I9
sbaa(lp1652
g0
(g1477
g2
Ntp1653
Rp1654
(dp1655
g76
I8
sg77
I5
sg114
I12
sbaa(lp1656
a(lp1657
a(lp1658
aa(lp1659
(lp1660
a(lp1661
a(lp1662
a(lp1663
a(lp1664
a(lp1665
a(lp1666
g0
(g1477
g2
Ntp1667
Rp1668
(dp1669
g76
I6
sg77
I6
sg114
I3
sbaa(lp1670
g0
(g1477
g2
Ntp1671
Rp1672
(dp1673
g76
I7
sg77
I6
sg114
I8
sbaa(lp1674
g0
(g1477
g2
Ntp1675
Rp1676
(dp1677
g76
I8
sg77
I6
sg114
I7
sbaa(lp1678
a(lp1679
a(lp1680
aa(lp1681
(lp1682
a(lp1683
a(lp1684
a(lp1685
a(lp1686
a(lp1687
a(lp1688
g0
(g1477
g2
Ntp1689
Rp1690
(dp1691
g76
I6
sg77
I7
sg114
I4
sbaa(lp1692
g0
(g1477
g2
Ntp1693
Rp1694
(dp1695
g76
I7
sg77
I7
sg114
I5
sbaa(lp1696
g0
(g1477
g2
Ntp1697
Rp1698
(dp1699
g76
I8
sg77
I7
sg114
I6
sbaa(lp1700
a(lp1701
a(lp1702
aa(lp1703
(lp1704
a(lp1705
a(lp1706
a(lp1707
a(lp1708
g0
(g72
g2
Ntp1709
Rp1710
(dp1711
g76
I4
sg77
I8
sg14
(I0
I1
I0
I1
tp1712
sbaa(lp1713
a(lp1714
a(lp1715
a(lp1716
a(lp1717
a(lp1718
a(lp1719
aa(lp1720
(lp1721
a(lp1722
a(lp1723
a(lp1724
g0
(g524
g2
Ntp1725
Rp1726
(dp1727
g76
I3
sg77
I9
sg212
I01
sbaa(lp1728
g0
(g72
g2
Ntp1729
Rp1730
(dp1731
g76
I4
sg77
I9
sg14
(I1
I1
I1
I1
tp1732
sbaa(lp1733
a(lp1734
a(lp1735
a(lp1736
a(lp1737
a(lp1738
a(lp1739
aa(lp1740
(lp1741
a(lp1742
a(lp1743
a(lp1744
a(lp1745
g0
(g72
g2
Ntp1746
Rp1747
(dp1748
g76
I4
sg77
I10
sg14
(I1
I0
I1
I0
tp1749
sbaa(lp1750
a(lp1751
a(lp1752
a(lp1753
a(lp1754
a(lp1755
a(lp1756
aa(lp1757
(lp1758
a(lp1759
a(lp1760
a(lp1761
a(lp1762
a(lp1763
a(lp1764
a(lp1765
a(lp1766
a(lp1767
a(lp1768
a(lp1769
aasg544
I3
sbsg16
(lp1770
I0
aI00
aI0
aI00
asg18
I00
sbaNag0
(g52
g2
Ntp1771
Rp1772
(dp1773
g56
S'start'
p1774
sg14
(I1
I1
I1
I1
tp1775
sg59
g0
(g60
g2
Ntp1776
Rp1777
(dp1778
g64
I9
sg65
I22
sg66
I64
sg67
I4
sg68
(lp1779
(lp1780
(lp1781
g0
(g72
g2
Ntp1782
Rp1783
(dp1784
g76
I0
sg77
I0
sg14
(I4
I4
I4
I4
tp1785
sbaa(lp1786
g0
(g72
g2
Ntp1787
Rp1788
(dp1789
g76
I1
sg77
I0
sg14
(I4
I4
I1
I1
tp1790
sbaa(lp1791
a(lp1792
a(lp1793
a(lp1794
a(lp1795
a(lp1796
g0
(g105
g2
Ntp1797
Rp1798
(dp1799
g109
g0
(g110
g2
Ntp1800
Rp1801
(dp1802
g114
I0
sg115
(lp1803
g1798
ag0
(g105
g2
Ntp1804
Rp1805
(dp1806
g109
g1801
sg120
g1801
sg121
I1
sg76
I7
sg77
I1
sg122
I3
sbag0
(g126
g2
Ntp1807
Rp1808
(dp1809
g76
I7
sg77
I2
sg109
g1801
sg120
g1801
sg130
I1
sbasbsg120
g1801
sg121
I1
sg76
I7
sg77
I0
sg122
Nsbaa(lp1810
g0
(g72
g2
Ntp1811
Rp1812
(dp1813
g76
I8
sg77
I0
sg14
(I1
I1
I4
I4
tp1814
sbaaa(lp1815
(lp1816
g0
(g72
g2
Ntp1817
Rp1818
(dp1819
g76
I0
sg77
I1
sg14
(I4
I4
I4
I3
tp1820
sbaa(lp1821
g0
(g72
g2
Ntp1822
Rp1823
(dp1824
g76
I1
sg77
I1
sg14
(I4
I2
I1
I0
tp1825
sbaa(lp1826
a(lp1827
a(lp1828
a(lp1829
a(lp1830
a(lp1831
g1805
aa(lp1832
g0
(g72
g2
Ntp1833
Rp1834
(dp1835
g76
I8
sg77
I1
sg14
(I1
I1
I4
I4
tp1836
sbaaa(lp1837
(lp1838
g0
(g72
g2
Ntp1839
Rp1840
(dp1841
g76
I0
sg77
I2
sg14
(I4
I2
I1
I0
tp1842
sbaa(lp1843
a(lp1844
a(lp1845
a(lp1846
a(lp1847
a(lp1848
a(lp1849
g1808
aa(lp1850
g0
(g72
g2
Ntp1851
Rp1852
(dp1853
g76
I8
sg77
I2
sg14
(I1
I1
I4
I4
tp1854
sbaaa(lp1855
(lp1856
a(lp1857
a(lp1858
a(lp1859
a(lp1860
a(lp1861
a(lp1862
a(lp1863
g0
(g72
g2
Ntp1864
Rp1865
(dp1866
g76
I7
sg77
I3
sg14
(I0
I1
I2
I4
tp1867
sbaa(lp1868
g0
(g72
g2
Ntp1869
Rp1870
(dp1871
g76
I8
sg77
I3
sg14
(I3
I4
I4
I4
tp1872
sbaaa(lp1873
(lp1874
a(lp1875
a(lp1876
a(lp1877
a(lp1878
a(lp1879
a(lp1880
g0
(g72
g2
Ntp1881
Rp1882
(dp1883
g76
I6
sg77
I4
sg14
(I0
I1
I2
I4
tp1884
sbaa(lp1885
g0
(g72
g2
Ntp1886
Rp1887
(dp1888
g76
I7
sg77
I4
sg14
(I3
I4
I4
I4
tp1889
sbaa(lp1890
g0
(g72
g2
Ntp1891
Rp1892
(dp1893
g76
I8
sg77
I4
sg14
(I4
I4
I4
I4
tp1894
sbaaa(lp1895
(lp1896
a(lp1897
a(lp1898
a(lp1899
a(lp1900
a(lp1901
g0
(g1477
g2
Ntp1902
Rp1903
(dp1904
g76
I5
sg77
I5
sg114
I1
sbaa(lp1905
g0
(g72
g2
Ntp1906
Rp1907
(dp1908
g76
I6
sg77
I5
sg14
(I1
I0
I4
I2
tp1909
sbaa(lp1910
g0
(g72
g2
Ntp1911
Rp1912
(dp1913
g76
I7
sg77
I5
sg14
(I4
I3
I4
I4
tp1914
sbaa(lp1915
g0
(g72
g2
Ntp1916
Rp1917
(dp1918
g76
I8
sg77
I5
sg14
(I4
I4
I4
I4
tp1919
sbaaa(lp1920
(lp1921
a(lp1922
a(lp1923
a(lp1924
a(lp1925
a(lp1926
a(lp1927
a(lp1928
g0
(g72
g2
Ntp1929
Rp1930
(dp1931
g76
I7
sg77
I6
sg14
(I1
I1
I4
I4
tp1932
sbaa(lp1933
g0
(g72
g2
Ntp1934
Rp1935
(dp1936
g76
I8
sg77
I6
sg14
(I4
I4
I4
I4
tp1937
sbaaa(lp1938
(lp1939
a(lp1940
a(lp1941
a(lp1942
a(lp1943
a(lp1944
a(lp1945
a(lp1946
g0
(g72
g2
Ntp1947
Rp1948
(dp1949
g76
I7
sg77
I7
sg14
(I1
I1
I4
I4
tp1950
sbaa(lp1951
g0
(g72
g2
Ntp1952
Rp1953
(dp1954
g76
I8
sg77
I7
sg14
(I4
I4
I4
I4
tp1955
sbaaa(lp1956
(lp1957
a(lp1958
a(lp1959
a(lp1960
a(lp1961
a(lp1962
a(lp1963
g0
(g208
g2
Ntp1964
Rp1965
(dp1966
g76
I6
sg77
I8
sg212
I4
sbaa(lp1967
g0
(g72
g2
Ntp1968
Rp1969
(dp1970
g76
I7
sg77
I8
sg14
(I1
I1
I4
I4
tp1971
sbaa(lp1972
g0
(g72
g2
Ntp1973
Rp1974
(dp1975
g76
I8
sg77
I8
sg14
(I4
I4
I4
I4
tp1976
sbaaa(lp1977
(lp1978
a(lp1979
a(lp1980
a(lp1981
a(lp1982
a(lp1983
a(lp1984
a(lp1985
g0
(g72
g2
Ntp1986
Rp1987
(dp1988
g76
I7
sg77
I9
sg14
(I1
I1
I4
I4
tp1989
sbaa(lp1990
g0
(g72
g2
Ntp1991
Rp1992
(dp1993
g76
I8
sg77
I9
sg14
(I4
I4
I4
I4
tp1994
sbaaa(lp1995
(lp1996
a(lp1997
a(lp1998
g0
(g1477
g2
Ntp1999
Rp2000
(dp2001
g76
I2
sg77
I10
sg114
I2
sbaa(lp2002
a(lp2003
a(lp2004
a(lp2005
a(lp2006
g0
(g72
g2
Ntp2007
Rp2008
(dp2009
g76
I7
sg77
I10
sg14
(I1
I1
I4
I4
tp2010
sbaa(lp2011
g0
(g72
g2
Ntp2012
Rp2013
(dp2014
g76
I8
sg77
I10
sg14
(I4
I4
I4
I4
tp2015
sbaaa(lp2016
(lp2017
a(lp2018
a(lp2019
a(lp2020
a(lp2021
a(lp2022
a(lp2023
a(lp2024
g0
(g72
g2
Ntp2025
Rp2026
(dp2027
g76
I7
sg77
I11
sg14
(I1
I1
I4
I4
tp2028
sbaa(lp2029
g0
(g72
g2
Ntp2030
Rp2031
(dp2032
g76
I8
sg77
I11
sg14
(I4
I4
I4
I4
tp2033
sbaaa(lp2034
(lp2035
a(lp2036
a(lp2037
a(lp2038
a(lp2039
a(lp2040
a(lp2041
a(lp2042
g0
(g72
g2
Ntp2043
Rp2044
(dp2045
g76
I7
sg77
I12
sg14
(I1
I1
I4
I4
tp2046
sbaa(lp2047
g0
(g72
g2
Ntp2048
Rp2049
(dp2050
g76
I8
sg77
I12
sg14
(I4
I4
I4
I4
tp2051
sbaaa(lp2052
(lp2053
a(lp2054
a(lp2055
a(lp2056
g0
(g72
g2
Ntp2057
Rp2058
(dp2059
g76
I3
sg77
I13
sg14
(I0
I0
I2
I2
tp2060
sbaa(lp2061
g0
(g72
g2
Ntp2062
Rp2063
(dp2064
g76
I4
sg77
I13
sg14
(I2
I2
I2
I2
tp2065
sbaa(lp2066
g0
(g72
g2
Ntp2067
Rp2068
(dp2069
g76
I5
sg77
I13
sg14
(I2
I2
I2
I2
tp2070
sbaa(lp2071
g0
(g72
g2
Ntp2072
Rp2073
(dp2074
g76
I6
sg77
I13
sg14
(I2
I2
I2
I2
tp2075
sbaa(lp2076
g0
(g72
g2
Ntp2077
Rp2078
(dp2079
g76
I7
sg77
I13
sg14
(I3
I3
I4
I4
tp2080
sbaa(lp2081
g0
(g72
g2
Ntp2082
Rp2083
(dp2084
g76
I8
sg77
I13
sg14
(I4
I4
I4
I4
tp2085
sbaaa(lp2086
(lp2087
a(lp2088
a(lp2089
a(lp2090
a(lp2091
a(lp2092
a(lp2093
a(lp2094
g0
(g72
g2
Ntp2095
Rp2096
(dp2097
g76
I7
sg77
I14
sg14
(I1
I1
I4
I4
tp2098
sbaa(lp2099
g0
(g72
g2
Ntp2100
Rp2101
(dp2102
g76
I8
sg77
I14
sg14
(I4
I4
I4
I4
tp2103
sbaaa(lp2104
(lp2105
a(lp2106
a(lp2107
a(lp2108
g0
(g208
g2
Ntp2109
Rp2110
(dp2111
g76
I3
sg77
I15
sg212
I6
sbaa(lp2112
g0
(g72
g2
Ntp2113
Rp2114
(dp2115
g76
I4
sg77
I15
sg14
(I0
I1
I2
I3
tp2116
sbaa(lp2117
g0
(g72
g2
Ntp2118
Rp2119
(dp2120
g76
I5
sg77
I15
sg14
(I2
I2
I0
I0
tp2121
sbaa(lp2122
a(lp2123
g0
(g72
g2
Ntp2124
Rp2125
(dp2126
g76
I7
sg77
I15
sg14
(I1
I1
I4
I4
tp2127
sbaa(lp2128
g0
(g72
g2
Ntp2129
Rp2130
(dp2131
g76
I8
sg77
I15
sg14
(I4
I4
I4
I4
tp2132
sbaaa(lp2133
(lp2134
a(lp2135
a(lp2136
a(lp2137
g0
(g208
g2
Ntp2138
Rp2139
(dp2140
g76
I3
sg77
I16
sg212
I14
sbaa(lp2141
g0
(g72
g2
Ntp2142
Rp2143
(dp2144
g76
I4
sg77
I16
sg14
(I1
I1
I1
I1
tp2145
sbaa(lp2146
a(lp2147
a(lp2148
g0
(g72
g2
Ntp2149
Rp2150
(dp2151
g76
I7
sg77
I16
sg14
(I1
I1
I4
I4
tp2152
sbaa(lp2153
g0
(g72
g2
Ntp2154
Rp2155
(dp2156
g76
I8
sg77
I16
sg14
(I4
I4
I4
I4
tp2157
sbaaa(lp2158
(lp2159
a(lp2160
a(lp2161
a(lp2162
g0
(g208
g2
Ntp2163
Rp2164
(dp2165
g76
I3
sg77
I17
sg212
I14
sbaa(lp2166
g0
(g72
g2
Ntp2167
Rp2168
(dp2169
g76
I4
sg77
I17
sg14
(I1
I1
I1
I1
tp2170
sbaa(lp2171
a(lp2172
a(lp2173
g0
(g72
g2
Ntp2174
Rp2175
(dp2176
g76
I7
sg77
I17
sg14
(I1
I1
I4
I4
tp2177
sbaa(lp2178
g0
(g72
g2
Ntp2179
Rp2180
(dp2181
g76
I8
sg77
I17
sg14
(I4
I4
I4
I4
tp2182
sbaaa(lp2183
(lp2184
a(lp2185
a(lp2186
a(lp2187
g0
(g208
g2
Ntp2188
Rp2189
(dp2190
g76
I3
sg77
I18
sg212
I14
sbaa(lp2191
g0
(g72
g2
Ntp2192
Rp2193
(dp2194
g76
I4
sg77
I18
sg14
(I1
I1
I1
I1
tp2195
sbaa(lp2196
a(lp2197
a(lp2198
g0
(g72
g2
Ntp2199
Rp2200
(dp2201
g76
I7
sg77
I18
sg14
(I1
I1
I4
I4
tp2202
sbaa(lp2203
g0
(g72
g2
Ntp2204
Rp2205
(dp2206
g76
I8
sg77
I18
sg14
(I4
I4
I4
I4
tp2207
sbaaa(lp2208
(lp2209
a(lp2210
a(lp2211
a(lp2212
g0
(g72
g2
Ntp2213
Rp2214
(dp2215
g76
I3
sg77
I19
sg14
(I0
I1
I2
I4
tp2216
sbaa(lp2217
g0
(g72
g2
Ntp2218
Rp2219
(dp2220
g76
I4
sg77
I19
sg14
(I3
I4
I1
I1
tp2221
sbaa(lp2222
g0
(g1477
g2
Ntp2223
Rp2224
(dp2225
g76
I5
sg77
I19
sg114
I3
sbaa(lp2226
a(lp2227
g0
(g72
g2
Ntp2228
Rp2229
(dp2230
g76
I7
sg77
I19
sg14
(I1
I1
I4
I4
tp2231
sbaa(lp2232
g0
(g72
g2
Ntp2233
Rp2234
(dp2235
g76
I8
sg77
I19
sg14
(I4
I4
I4
I4
tp2236
sbaaa(lp2237
(lp2238
a(lp2239
a(lp2240
a(lp2241
g0
(g72
g2
Ntp2242
Rp2243
(dp2244
g76
I3
sg77
I20
sg14
(I1
I1
I4
I4
tp2245
sbaa(lp2246
g0
(g72
g2
Ntp2247
Rp2248
(dp2249
g76
I4
sg77
I20
sg14
(I4
I4
I3
I4
tp2250
sbaa(lp2251
g0
(g72
g2
Ntp2252
Rp2253
(dp2254
g76
I5
sg77
I20
sg14
(I2
I4
I2
I4
tp2255
sbaa(lp2256
g0
(g72
g2
Ntp2257
Rp2258
(dp2259
g76
I6
sg77
I20
sg14
(I2
I4
I2
I4
tp2260
sbaa(lp2261
g0
(g72
g2
Ntp2262
Rp2263
(dp2264
g76
I7
sg77
I20
sg14
(I3
I4
I4
I4
tp2265
sbaa(lp2266
g0
(g72
g2
Ntp2267
Rp2268
(dp2269
g76
I8
sg77
I20
sg14
(I4
I4
I4
I4
tp2270
sbaaa(lp2271
(lp2272
a(lp2273
a(lp2274
g0
(g524
g2
Ntp2275
Rp2276
(dp2277
g76
I2
sg77
I21
sg212
I01
sbaa(lp2278
g0
(g72
g2
Ntp2279
Rp2280
(dp2281
g76
I3
sg77
I21
sg14
(I1
I1
I4
I4
tp2282
sbaa(lp2283
g0
(g72
g2
Ntp2284
Rp2285
(dp2286
g76
I4
sg77
I21
sg14
(I4
I4
I4
I4
tp2287
sbaa(lp2288
g0
(g72
g2
Ntp2289
Rp2290
(dp2291
g76
I5
sg77
I21
sg14
(I4
I4
I4
I4
tp2292
sbaa(lp2293
g0
(g72
g2
Ntp2294
Rp2295
(dp2296
g76
I6
sg77
I21
sg14
(I4
I4
I4
I4
tp2297
sbaa(lp2298
g0
(g72
g2
Ntp2299
Rp2300
(dp2301
g76
I7
sg77
I21
sg14
(I4
I4
I4
I4
tp2302
sbaa(lp2303
g0
(g72
g2
Ntp2304
Rp2305
(dp2306
g76
I8
sg77
I21
sg14
(I4
I4
I4
I4
tp2307
sbaaasg544
I3
sbsg16
(lp2308
I0
aI00
aI0
aI00
asg18
I00
sbaNaNag0
(g52
g2
Ntp2309
Rp2310
(dp2311
g56
S'dualstrike'
p2312
sg14
(I0
I0
I2
I2
tp2313
sg59
g0
(g60
g2
Ntp2314
Rp2315
(dp2316
g785
g786
sg64
I12
sg65
I13
sg66
I64
sg67
I4
sg68
(lp2317
(lp2318
(lp2319
g0
(g794
g2
Ntp2320
Rp2321
(dp2322
g76
I0
sg77
I0
sg14
(I4
I4
I4
I4
tp2323
sbaa(lp2324
g0
(g794
g2
Ntp2325
Rp2326
(dp2327
g76
I1
sg77
I0
sg14
(I4
I4
I4
I4
tp2328
sbaa(lp2329
g0
(g794
g2
Ntp2330
Rp2331
(dp2332
g76
I2
sg77
I0
sg14
(I4
I4
I4
I4
tp2333
sbaa(lp2334
g0
(g794
g2
Ntp2335
Rp2336
(dp2337
g76
I3
sg77
I0
sg14
(I4
I4
I4
I3
tp2338
sbaa(lp2339
g0
(g794
g2
Ntp2340
Rp2341
(dp2342
g76
I4
sg77
I0
sg14
(I4
I2
I4
I2
tp2343
sbaa(lp2344
g0
(g794
g2
Ntp2345
Rp2346
(dp2347
g76
I5
sg77
I0
sg14
(I4
I2
I4
I2
tp2348
sbaa(lp2349
g0
(g794
g2
Ntp2350
Rp2351
(dp2352
g76
I6
sg77
I0
sg14
(I4
I2
I1
I0
tp2353
sbaa(lp2354
a(lp2355
a(lp2356
a(lp2357
a(lp2358
g0
(g794
g2
Ntp2359
Rp2360
(dp2361
g76
I11
sg77
I0
sg14
(I1
I1
I4
I4
tp2362
sbaaa(lp2363
(lp2364
g0
(g794
g2
Ntp2365
Rp2366
(dp2367
g76
I0
sg77
I1
sg14
(I4
I2
I4
I2
tp2368
sbaa(lp2369
g0
(g794
g2
Ntp2370
Rp2371
(dp2372
g76
I1
sg77
I1
sg14
(I4
I2
I4
I2
tp2373
sbaa(lp2374
g0
(g794
g2
Ntp2375
Rp2376
(dp2377
g76
I2
sg77
I1
sg14
(I4
I3
I4
I4
tp2378
sbaa(lp2379
g0
(g794
g2
Ntp2380
Rp2381
(dp2382
g76
I3
sg77
I1
sg14
(I4
I4
I1
I1
tp2383
sbaa(lp2384
a(lp2385
g0
(g679
g2
Ntp2386
Rp2387
(dp2388
g76
I5
sg77
I1
sg212
I3
sbaa(lp2389
g0
(g180
g2
Ntp2390
Rp2391
(dp2392
g76
I6
sg77
I1
sg184
I1
sg185
I0
sbaa(lp2393
a(lp2394
g0
(g794
g2
Ntp2395
Rp2396
(dp2397
g76
I8
sg77
I1
sg14
(I0
I0
I2
I2
tp2398
sbaa(lp2399
g0
(g794
g2
Ntp2400
Rp2401
(dp2402
g76
I9
sg77
I1
sg14
(I2
I2
I0
I0
tp2403
sbaa(lp2404
a(lp2405
g0
(g794
g2
Ntp2406
Rp2407
(dp2408
g76
I11
sg77
I1
sg14
(I1
I1
I4
I4
tp2409
sbaaa(lp2410
(lp2411
a(lp2412
g0
(g1477
g2
Ntp2413
Rp2414
(dp2415
g76
I1
sg77
I2
sg114
I3
sbaa(lp2416
g0
(g794
g2
Ntp2417
Rp2418
(dp2419
g76
I2
sg77
I2
sg14
(I1
I0
I4
I2
tp2420
sbaa(lp2421
g0
(g794
g2
Ntp2422
Rp2423
(dp2424
g76
I3
sg77
I2
sg14
(I4
I3
I1
I1
tp2425
sbaa(lp2426
a(lp2427
g0
(g679
g2
Ntp2428
Rp2429
(dp2430
g76
I5
sg77
I2
sg212
I3
sbaa(lp2431
g0
(g180
g2
Ntp2432
Rp2433
(dp2434
g76
I6
sg77
I2
sg184
I1
sg185
I0
sbaa(lp2435
a(lp2436
a(lp2437
g0
(g679
g2
Ntp2438
Rp2439
(dp2440
g76
I9
sg77
I2
sg212
I3
sbaa(lp2441
a(lp2442
g0
(g794
g2
Ntp2443
Rp2444
(dp2445
g76
I11
sg77
I2
sg14
(I1
I1
I4
I4
tp2446
sbaaa(lp2447
(lp2448
a(lp2449
a(lp2450
g0
(g208
g2
Ntp2451
Rp2452
(dp2453
g76
I2
sg77
I3
sg212
I14
sbaa(lp2454
g0
(g794
g2
Ntp2455
Rp2456
(dp2457
g76
I3
sg77
I3
sg14
(I1
I1
I1
I1
tp2458
sbaa(lp2459
g0
(cInteractives
Jelly
p2460
g2
Ntp2461
Rp2462
(dp2463
g76
I4
sg77
I3
sg109
g0
(g608
g2
Ntp2464
Rp2465
(dp2466
g115
(lp2467
g2462
asbsg185
I0
sg14
(I0
I0
I0
I0
tp2468
sbaa(lp2469
g0
(g794
g2
Ntp2470
Rp2471
(dp2472
g76
I5
sg77
I3
sg14
(I0
I1
I2
I3
tp2473
sbaa(lp2474
g0
(g794
g2
Ntp2475
Rp2476
(dp2477
g76
I6
sg77
I3
sg14
(I2
I2
I0
I0
tp2478
sbaa(lp2479
a(lp2480
g0
(g794
g2
Ntp2481
Rp2482
(dp2483
g76
I8
sg77
I3
sg14
(I0
I1
I2
I4
tp2484
sbaa(lp2485
g0
(g794
g2
Ntp2486
Rp2487
(dp2488
g76
I9
sg77
I3
sg14
(I2
I4
I0
I1
tp2489
sbaa(lp2490
a(lp2491
g0
(g794
g2
Ntp2492
Rp2493
(dp2494
g76
I11
sg77
I3
sg14
(I1
I1
I4
I4
tp2495
sbaaa(lp2496
(lp2497
a(lp2498
a(lp2499
g0
(g208
g2
Ntp2500
Rp2501
(dp2502
g76
I2
sg77
I4
sg212
I12
sbaa(lp2503
g0
(g794
g2
Ntp2504
Rp2505
(dp2506
g76
I3
sg77
I4
sg14
(I1
I0
I1
I0
tp2507
sbaa(lp2508
a(lp2509
g0
(g794
g2
Ntp2510
Rp2511
(dp2512
g76
I5
sg77
I4
sg14
(I1
I1
I1
I1
tp2513
sbaa(lp2514
a(lp2515
a(lp2516
g0
(g794
g2
Ntp2517
Rp2518
(dp2519
g76
I8
sg77
I4
sg14
(I1
I1
I4
I4
tp2520
sbaa(lp2521
g0
(g794
g2
Ntp2522
Rp2523
(dp2524
g76
I9
sg77
I4
sg14
(I4
I4
I1
I1
tp2525
sbaa(lp2526
a(lp2527
g0
(g794
g2
Ntp2528
Rp2529
(dp2530
g76
I11
sg77
I4
sg14
(I1
I1
I4
I4
tp2531
sbaaa(lp2532
(lp2533
a(lp2534
a(lp2535
a(lp2536
a(lp2537
a(lp2538
g0
(g794
g2
Ntp2539
Rp2540
(dp2541
g76
I5
sg77
I5
sg14
(I1
I0
I1
I0
tp2542
sbaa(lp2543
a(lp2544
a(lp2545
g0
(g794
g2
Ntp2546
Rp2547
(dp2548
g76
I8
sg77
I5
sg14
(I1
I1
I4
I4
tp2549
sbaa(lp2550
g0
(g794
g2
Ntp2551
Rp2552
(dp2553
g76
I9
sg77
I5
sg14
(I4
I4
I1
I1
tp2554
sbaa(lp2555
a(lp2556
g0
(g794
g2
Ntp2557
Rp2558
(dp2559
g76
I11
sg77
I5
sg14
(I1
I1
I4
I4
tp2560
sbaaa(lp2561
(lp2562
a(lp2563
a(lp2564
a(lp2565
a(lp2566
a(lp2567
g0
(g208
g2
Ntp2568
Rp2569
(dp2570
g76
I5
sg77
I6
sg212
I8
sbaa(lp2571
a(lp2572
g0
(g2460
g2
Ntp2573
Rp2574
(dp2575
g76
I7
sg77
I6
sg109
g0
(g608
g2
Ntp2576
Rp2577
(dp2578
g115
(lp2579
g2574
asbsg185
I0
sg14
(I0
I0
I0
I0
tp2580
sbaa(lp2581
g0
(g794
g2
Ntp2582
Rp2583
(dp2584
g76
I8
sg77
I6
sg14
(I1
I1
I4
I4
tp2585
sbaa(lp2586
g0
(g794
g2
Ntp2587
Rp2588
(dp2589
g76
I9
sg77
I6
sg14
(I4
I4
I1
I1
tp2590
sbaa(lp2591
a(lp2592
g0
(g794
g2
Ntp2593
Rp2594
(dp2595
g76
I11
sg77
I6
sg14
(I1
I1
I4
I4
tp2596
sbaaa(lp2597
(lp2598
a(lp2599
a(lp2600
a(lp2601
a(lp2602
a(lp2603
a(lp2604
a(lp2605
g0
(g126
g2
Ntp2606
Rp2607
(dp2608
g76
I7
sg77
I7
sg109
g0
(g110
g2
Ntp2609
Rp2610
(dp2611
g114
I2
sg115
(lp2612
g0
(g105
g2
Ntp2613
Rp2614
(dp2615
g109
g2610
sg120
g2610
sg121
I1
sg76
I6
sg77
I8
sg122
Nsbag0
(g105
g2
Ntp2616
Rp2617
(dp2618
g109
g2610
sg120
g2610
sg121
I2
sg76
I6
sg77
I9
sg122
I3
sbag0
(g105
g2
Ntp2619
Rp2620
(dp2621
g109
g2610
sg120
g2610
sg121
I3
sg76
I7
sg77
I9
sg122
I0
sbag0
(g105
g2
Ntp2622
Rp2623
(dp2624
g109
g2610
sg120
g2610
sg121
I3
sg76
I7
sg77
I8
sg122
I1
sbag2607
asbsg120
g2610
sg130
I3
sbaa(lp2625
g0
(g794
g2
Ntp2626
Rp2627
(dp2628
g76
I8
sg77
I7
sg14
(I1
I1
I4
I4
tp2629
sbaa(lp2630
g0
(g794
g2
Ntp2631
Rp2632
(dp2633
g76
I9
sg77
I7
sg14
(I4
I4
I1
I1
tp2634
sbaa(lp2635
a(lp2636
g0
(g794
g2
Ntp2637
Rp2638
(dp2639
g76
I11
sg77
I7
sg14
(I1
I0
I4
I2
tp2640
sbaaa(lp2641
(lp2642
a(lp2643
a(lp2644
a(lp2645
a(lp2646
a(lp2647
a(lp2648
g2614
aa(lp2649
g2623
aa(lp2650
g0
(g794
g2
Ntp2651
Rp2652
(dp2653
g76
I8
sg77
I8
sg14
(I1
I1
I4
I3
tp2654
sbaa(lp2655
g0
(g794
g2
Ntp2656
Rp2657
(dp2658
g76
I9
sg77
I8
sg14
(I4
I2
I1
I0
tp2659
sbaa(lp2660
a(lp2661
aa(lp2662
(lp2663
a(lp2664
a(lp2665
a(lp2666
a(lp2667
a(lp2668
a(lp2669
g2617
aa(lp2670
g2620
aa(lp2671
g0
(g794
g2
Ntp2672
Rp2673
(dp2674
g76
I8
sg77
I9
sg14
(I1
I1
I1
I1
tp2675
sbaa(lp2676
g0
(g524
g2
Ntp2677
Rp2678
(dp2679
g76
I9
sg77
I9
sg212
I01
sbaa(lp2680
a(lp2681
aa(lp2682
(lp2683
a(lp2684
a(lp2685
a(lp2686
a(lp2687
a(lp2688
a(lp2689
a(lp2690
a(lp2691
g0
(g794
g2
Ntp2692
Rp2693
(dp2694
g76
I8
sg77
I10
sg14
(I1
I1
I1
I1
tp2695
sbaa(lp2696
a(lp2697
a(lp2698
aa(lp2699
(lp2700
a(lp2701
a(lp2702
g0
(g1021
g2
Ntp2703
Rp2704
(dp2705
g76
I2
sg77
I11
sg1025
I2
sg184
I01
sg185
I0
sbaa(lp2706
g0
(g794
g2
Ntp2707
Rp2708
(dp2709
g76
I3
sg77
I11
sg14
(I0
I0
I0
I0
tp2710
sbaa(lp2711
a(lp2712
a(lp2713
a(lp2714
a(lp2715
g0
(g794
g2
Ntp2716
Rp2717
(dp2718
g76
I8
sg77
I11
sg14
(I1
I1
I1
I1
tp2719
sbaa(lp2720
a(lp2721
a(lp2722
aa(lp2723
(lp2724
a(lp2725
a(lp2726
a(lp2727
a(lp2728
a(lp2729
a(lp2730
a(lp2731
a(lp2732
g0
(g794
g2
Ntp2733
Rp2734
(dp2735
g76
I8
sg77
I12
sg14
(I1
I1
I1
I1
tp2736
sbaa(lp2737
a(lp2738
a(lp2739
aasg544
I3
sbsg16
(lp2740
I0
aI0
aI00
aI0
asg18
I00
sbag0
(g10
g2
Ntp2741
Rp2742
(dp2743
g14
(I2
I2
I2
I2
tp2744
sg16
(lp2745
I00
aI0
aI00
aI0
asg18
I00
sbag0
(g52
g2
Ntp2746
Rp2747
(dp2748
g56
S'anew'
p2749
sg14
(I3
I3
I1
I1
tp2750
sg59
g0
(g60
g2
Ntp2751
Rp2752
(dp2753
g785
g786
sg64
I12
sg65
I12
sg66
I64
sg67
I4
sg787
S'Snow'
p2754
sg68
(lp2755
(lp2756
(lp2757
a(lp2758
a(lp2759
a(lp2760
a(lp2761
a(lp2762
a(lp2763
a(lp2764
a(lp2765
a(lp2766
a(lp2767
a(lp2768
aa(lp2769
(lp2770
a(lp2771
a(lp2772
g0
(g794
g2
Ntp2773
Rp2774
(dp2775
g76
I2
sg77
I1
sg14
(I0
I1
I2
I4
tp2776
sbaa(lp2777
g0
(g794
g2
Ntp2778
Rp2779
(dp2780
g76
I3
sg77
I1
sg14
(I2
I4
I0
I1
tp2781
sbaa(lp2782
a(lp2783
a(lp2784
a(lp2785
a(lp2786
a(lp2787
a(lp2788
a(lp2789
aa(lp2790
(lp2791
a(lp2792
a(lp2793
g0
(g794
g2
Ntp2794
Rp2795
(dp2796
g76
I2
sg77
I2
sg14
(I1
I1
I4
I3
tp2797
sbaa(lp2798
g0
(g794
g2
Ntp2799
Rp2800
(dp2801
g76
I3
sg77
I2
sg14
(I4
I2
I1
I0
tp2802
sbaa(lp2803
a(lp2804
a(lp2805
a(lp2806
a(lp2807
g0
(g2460
g2
Ntp2808
Rp2809
(dp2810
g76
I8
sg77
I2
sg109
g0
(g608
g2
Ntp2811
Rp2812
(dp2813
g115
(lp2814
g2809
asbsg185
I3
sg14
(I0
I0
I0
I0
tp2815
sbaa(lp2816
g0
(g794
g2
Ntp2817
Rp2818
(dp2819
g76
I9
sg77
I2
sg14
(I0
I1
I0
I1
tp2820
sbaa(lp2821
a(lp2822
aa(lp2823
(lp2824
a(lp2825
a(lp2826
g0
(g794
g2
Ntp2827
Rp2828
(dp2829
g76
I2
sg77
I3
sg14
(I1
I0
I1
I0
tp2830
sbaa(lp2831
a(lp2832
a(lp2833
a(lp2834
a(lp2835
a(lp2836
a(lp2837
g0
(g794
g2
Ntp2838
Rp2839
(dp2840
g76
I9
sg77
I3
sg14
(I1
I1
I1
I1
tp2841
sbaa(lp2842
a(lp2843
aa(lp2844
(lp2845
a(lp2846
a(lp2847
a(lp2848
a(lp2849
a(lp2850
g0
(g2460
g2
Ntp2851
Rp2852
(dp2853
g76
I5
sg77
I4
sg109
g0
(g608
g2
Ntp2854
Rp2855
(dp2856
g115
(lp2857
g2852
asbsg185
I1
sg14
(I0
I0
I0
I0
tp2858
sbaa(lp2859
g0
(g794
g2
Ntp2860
Rp2861
(dp2862
g76
I6
sg77
I4
sg14
(I0
I1
I0
I1
tp2863
sbaa(lp2864
a(lp2865
a(lp2866
g0
(g794
g2
Ntp2867
Rp2868
(dp2869
g76
I9
sg77
I4
sg14
(I1
I1
I1
I1
tp2870
sbaa(lp2871
a(lp2872
aa(lp2873
(lp2874
a(lp2875
a(lp2876
a(lp2877
a(lp2878
a(lp2879
a(lp2880
g0
(g794
g2
Ntp2881
Rp2882
(dp2883
g76
I6
sg77
I5
sg14
(I1
I0
I1
I0
tp2884
sbaa(lp2885
a(lp2886
g0
(g2460
g2
Ntp2887
Rp2888
(dp2889
g76
I8
sg77
I5
sg109
g0
(g608
g2
Ntp2890
Rp2891
(dp2892
g115
(lp2893
g2888
asbsg185
I1
sg14
(I0
I0
I0
I0
tp2894
sbaa(lp2895
g0
(g794
g2
Ntp2896
Rp2897
(dp2898
g76
I9
sg77
I5
sg14
(I1
I0
I3
I2
tp2899
sbaa(lp2900
g0
(g794
g2
Ntp2901
Rp2902
(dp2903
g76
I10
sg77
I5
sg14
(I2
I3
I0
I1
tp2904
sbaa(lp2905
aa(lp2906
(lp2907
a(lp2908
a(lp2909
a(lp2910
a(lp2911
a(lp2912
a(lp2913
a(lp2914
a(lp2915
a(lp2916
a(lp2917
g0
(g794
g2
Ntp2918
Rp2919
(dp2920
g76
I10
sg77
I6
sg14
(I1
I1
I1
I1
tp2921
sbaa(lp2922
aa(lp2923
(lp2924
a(lp2925
a(lp2926
a(lp2927
a(lp2928
a(lp2929
a(lp2930
a(lp2931
a(lp2932
a(lp2933
g0
(g794
g2
Ntp2934
Rp2935
(dp2936
g76
I9
sg77
I7
sg14
(I0
I1
I2
I3
tp2937
sbaa(lp2938
g0
(g794
g2
Ntp2939
Rp2940
(dp2941
g76
I10
sg77
I7
sg14
(I3
I2
I1
I0
tp2942
sbaa(lp2943
aa(lp2944
(lp2945
a(lp2946
a(lp2947
a(lp2948
a(lp2949
a(lp2950
a(lp2951
g0
(g794
g2
Ntp2952
Rp2953
(dp2954
g76
I6
sg77
I8
sg14
(I0
I1
I0
I1
tp2955
sbaa(lp2956
a(lp2957
a(lp2958
g0
(g794
g2
Ntp2959
Rp2960
(dp2961
g76
I9
sg77
I8
sg14
(I1
I1
I1
I1
tp2962
sbaa(lp2963
a(lp2964
aa(lp2965
(lp2966
a(lp2967
a(lp2968
a(lp2969
a(lp2970
a(lp2971
g0
(g2460
g2
Ntp2972
Rp2973
(dp2974
g76
I5
sg77
I9
sg109
g0
(g608
g2
Ntp2975
Rp2976
(dp2977
g115
(lp2978
g2973
asbsg185
I3
sg14
(I0
I0
I0
I0
tp2979
sbaa(lp2980
g0
(g794
g2
Ntp2981
Rp2982
(dp2983
g76
I6
sg77
I9
sg14
(I1
I0
I1
I0
tp2984
sbaa(lp2985
a(lp2986
a(lp2987
g0
(g794
g2
Ntp2988
Rp2989
(dp2990
g76
I9
sg77
I9
sg14
(I1
I1
I1
I1
tp2991
sbaa(lp2992
a(lp2993
aa(lp2994
(lp2995
a(lp2996
a(lp2997
a(lp2998
a(lp2999
a(lp3000
a(lp3001
a(lp3002
a(lp3003
a(lp3004
g0
(g794
g2
Ntp3005
Rp3006
(dp3007
g76
I9
sg77
I10
sg14
(I1
I0
I1
I0
tp3008
sbaa(lp3009
a(lp3010
aa(lp3011
(lp3012
a(lp3013
a(lp3014
a(lp3015
a(lp3016
a(lp3017
a(lp3018
a(lp3019
a(lp3020
a(lp3021
a(lp3022
a(lp3023
aasg544
I3
sbsg16
(lp3024
I00
aI00
aI0
aI00
asg18
I00
sbaNaa(lp3025
Nag0
(g10
g2
Ntp3026
Rp3027
(dp3028
g14
(I1
I0
I3
I2
tp3029
sg16
(lp3030
I0
aI0
aI00
aI00
asg18
I00
sbag0
(g10
g2
Ntp3031
Rp3032
(dp3033
g14
(I2
I2
I2
I2
tp3034
sg16
(lp3035
I00
aI0
aI00
aI0
asg18
I00
sbag0
(g52
g2
Ntp3036
Rp3037
(dp3038
g56
S'unisolid'
p3039
sg14
(I2
I3
I2
I3
tp3040
sg59
g0
(g60
g2
Ntp3041
Rp3042
(dp3043
g64
I12
sg65
I12
sg66
I64
sg67
I4
sg68
(lp3044
(lp3045
(lp3046
a(lp3047
g0
(g524
g2
Ntp3048
Rp3049
(dp3050
g76
I1
sg77
I0
sg212
I01
sbaa(lp3051
a(lp3052
g0
(g72
g2
Ntp3053
Rp3054
(dp3055
g76
I3
sg77
I0
sg14
(I1
I0
I4
I2
tp3056
sbaa(lp3057
g0
(g72
g2
Ntp3058
Rp3059
(dp3060
g76
I4
sg77
I0
sg14
(I4
I2
I1
I0
tp3061
sbaa(lp3062
a(lp3063
a(lp3064
a(lp3065
a(lp3066
a(lp3067
a(lp3068
aa(lp3069
(lp3070
a(lp3071
a(lp3072
a(lp3073
a(lp3074
g0
(g679
g2
Ntp3075
Rp3076
(dp3077
g76
I4
sg77
I1
sg212
I3
sbaa(lp3078
a(lp3079
a(lp3080
a(lp3081
a(lp3082
a(lp3083
a(lp3084
aa(lp3085
(lp3086
g0
(g72
g2
Ntp3087
Rp3088
(dp3089
g76
I0
sg77
I2
sg14
(I2
I4
I2
I3
tp3090
sbaa(lp3091
g0
(g72
g2
Ntp3092
Rp3093
(dp3094
g76
I1
sg77
I2
sg14
(I2
I2
I2
I2
tp3095
sbaa(lp3096
g0
(g72
g2
Ntp3097
Rp3098
(dp3099
g76
I2
sg77
I2
sg14
(I2
I2
I0
I0
tp3100
sbaa(lp3101
a(lp3102
g0
(g679
g2
Ntp3103
Rp3104
(dp3105
g76
I4
sg77
I2
sg212
I3
sbaa(lp3106
a(lp3107
a(lp3108
g0
(g72
g2
Ntp3109
Rp3110
(dp3111
g76
I7
sg77
I2
sg14
(I0
I1
I2
I4
tp3112
sbaa(lp3113
g0
(g72
g2
Ntp3114
Rp3115
(dp3116
g76
I8
sg77
I2
sg14
(I2
I4
I0
I1
tp3117
sbaa(lp3118
a(lp3119
a(lp3120
aa(lp3121
(lp3122
g0
(g72
g2
Ntp3123
Rp3124
(dp3125
g76
I0
sg77
I3
sg14
(I4
I4
I1
I1
tp3126
sbaa(lp3127
g0
(g1477
g2
Ntp3128
Rp3129
(dp3130
g76
I1
sg77
I3
sg114
I3
sbaa(lp3131
g0
(g679
g2
Ntp3132
Rp3133
(dp3134
g76
I2
sg77
I3
sg212
I3
sbaa(lp3135
a(lp3136
g0
(g679
g2
Ntp3137
Rp3138
(dp3139
g76
I4
sg77
I3
sg212
I1
sbaa(lp3140
a(lp3141
a(lp3142
g0
(g72
g2
Ntp3143
Rp3144
(dp3145
g76
I7
sg77
I3
sg14
(I1
I1
I4
I4
tp3146
sbaa(lp3147
g0
(g72
g2
Ntp3148
Rp3149
(dp3150
g76
I8
sg77
I3
sg14
(I4
I4
I3
I4
tp3151
sbaa(lp3152
g0
(g72
g2
Ntp3153
Rp3154
(dp3155
g76
I9
sg77
I3
sg14
(I2
I4
I0
I1
tp3156
sbaa(lp3157
a(lp3158
aa(lp3159
(lp3160
g0
(g72
g2
Ntp3161
Rp3162
(dp3163
g76
I0
sg77
I4
sg14
(I4
I4
I1
I1
tp3164
sbaa(lp3165
a(lp3166
g0
(g679
g2
Ntp3167
Rp3168
(dp3169
g76
I2
sg77
I4
sg212
I3
sbaa(lp3170
a(lp3171
a(lp3172
a(lp3173
a(lp3174
g0
(g72
g2
Ntp3175
Rp3176
(dp3177
g76
I7
sg77
I4
sg14
(I1
I1
I4
I4
tp3178
sbaa(lp3179
g0
(g72
g2
Ntp3180
Rp3181
(dp3182
g76
I8
sg77
I4
sg14
(I4
I4
I4
I4
tp3183
sbaa(lp3184
g0
(g72
g2
Ntp3185
Rp3186
(dp3187
g76
I9
sg77
I4
sg14
(I4
I4
I1
I1
tp3188
sbaa(lp3189
a(lp3190
aa(lp3191
(lp3192
g0
(g72
g2
Ntp3193
Rp3194
(dp3195
g76
I0
sg77
I5
sg14
(I4
I4
I1
I1
tp3196
sbaa(lp3197
a(lp3198
g0
(g679
g2
Ntp3199
Rp3200
(dp3201
g76
I2
sg77
I5
sg212
I3
sbaa(lp3202
a(lp3203
a(lp3204
a(lp3205
a(lp3206
g0
(g72
g2
Ntp3207
Rp3208
(dp3209
g76
I7
sg77
I5
sg14
(I1
I1
I4
I4
tp3210
sbaa(lp3211
g0
(g72
g2
Ntp3212
Rp3213
(dp3214
g76
I8
sg77
I5
sg14
(I4
I4
I4
I4
tp3215
sbaa(lp3216
g0
(g72
g2
Ntp3217
Rp3218
(dp3219
g76
I9
sg77
I5
sg14
(I4
I4
I1
I1
tp3220
sbaa(lp3221
a(lp3222
aa(lp3223
(lp3224
g0
(g72
g2
Ntp3225
Rp3226
(dp3227
g76
I0
sg77
I6
sg14
(I4
I4
I1
I1
tp3228
sbaa(lp3229
a(lp3230
g0
(g679
g2
Ntp3231
Rp3232
(dp3233
g76
I2
sg77
I6
sg212
I3
sbaa(lp3234
a(lp3235
a(lp3236
a(lp3237
a(lp3238
g0
(g72
g2
Ntp3239
Rp3240
(dp3241
g76
I7
sg77
I6
sg14
(I1
I1
I4
I4
tp3242
sbaa(lp3243
g0
(g72
g2
Ntp3244
Rp3245
(dp3246
g76
I8
sg77
I6
sg14
(I4
I4
I4
I4
tp3247
sbaa(lp3248
g0
(g72
g2
Ntp3249
Rp3250
(dp3251
g76
I9
sg77
I6
sg14
(I4
I4
I1
I1
tp3252
sbaa(lp3253
a(lp3254
aa(lp3255
(lp3256
g0
(g72
g2
Ntp3257
Rp3258
(dp3259
g76
I0
sg77
I7
sg14
(I4
I4
I1
I1
tp3260
sbaa(lp3261
g0
(g1477
g2
Ntp3262
Rp3263
(dp3264
g76
I1
sg77
I7
sg114
I4
sbaa(lp3265
g0
(g679
g2
Ntp3266
Rp3267
(dp3268
g76
I2
sg77
I7
sg212
I3
sbaa(lp3269
a(lp3270
a(lp3271
a(lp3272
a(lp3273
g0
(g72
g2
Ntp3274
Rp3275
(dp3276
g76
I7
sg77
I7
sg14
(I1
I1
I4
I4
tp3277
sbaa(lp3278
g0
(g72
g2
Ntp3279
Rp3280
(dp3281
g76
I8
sg77
I7
sg14
(I4
I4
I4
I4
tp3282
sbaa(lp3283
g0
(g72
g2
Ntp3284
Rp3285
(dp3286
g76
I9
sg77
I7
sg14
(I4
I4
I1
I1
tp3287
sbaa(lp3288
a(lp3289
aa(lp3290
(lp3291
g0
(g72
g2
Ntp3292
Rp3293
(dp3294
g76
I0
sg77
I8
sg14
(I4
I2
I3
I2
tp3295
sbaa(lp3296
g0
(g72
g2
Ntp3297
Rp3298
(dp3299
g76
I1
sg77
I8
sg14
(I2
I2
I2
I2
tp3300
sbaa(lp3301
g0
(g72
g2
Ntp3302
Rp3303
(dp3304
g76
I2
sg77
I8
sg14
(I2
I2
I0
I0
tp3305
sbaa(lp3306
a(lp3307
a(lp3308
g0
(g126
g2
Ntp3309
Rp3310
(dp3311
g76
I5
sg77
I8
sg109
g0
(g110
g2
Ntp3312
Rp3313
(dp3314
g114
I1
sg115
(lp3315
g0
(g105
g2
Ntp3316
Rp3317
(dp3318
g109
g3313
sg120
g3313
sg121
I3
sg76
I5
sg77
I10
sg122
Nsbag0
(g105
g2
Ntp3319
Rp3320
(dp3321
g109
g3313
sg120
g3313
sg121
I3
sg76
I5
sg77
I9
sg122
I1
sbag3310
asbsg120
g3313
sg130
I3
sbaa(lp3322
g0
(g126
g2
Ntp3323
Rp3324
(dp3325
g76
I6
sg77
I8
sg109
g0
(g110
g2
Ntp3326
Rp3327
(dp3328
g114
I0
sg115
(lp3329
g0
(g105
g2
Ntp3330
Rp3331
(dp3332
g109
g3327
sg120
g3327
sg121
I3
sg76
I6
sg77
I10
sg122
Nsbag0
(g105
g2
Ntp3333
Rp3334
(dp3335
g109
g3327
sg120
g3327
sg121
I3
sg76
I6
sg77
I9
sg122
I1
sbag3324
asbsg120
g3327
sg130
I3
sbaa(lp3336
g0
(g72
g2
Ntp3337
Rp3338
(dp3339
g76
I7
sg77
I8
sg14
(I1
I1
I4
I4
tp3340
sbaa(lp3341
g0
(g72
g2
Ntp3342
Rp3343
(dp3344
g76
I8
sg77
I8
sg14
(I4
I4
I4
I3
tp3345
sbaa(lp3346
g0
(g72
g2
Ntp3347
Rp3348
(dp3349
g76
I9
sg77
I8
sg14
(I4
I2
I1
I0
tp3350
sbaa(lp3351
a(lp3352
aa(lp3353
(lp3354
a(lp3355
a(lp3356
a(lp3357
a(lp3358
a(lp3359
g3320
aa(lp3360
g3334
aa(lp3361
g0
(g72
g2
Ntp3362
Rp3363
(dp3364
g76
I7
sg77
I9
sg14
(I1
I1
I4
I3
tp3365
sbaa(lp3366
g0
(g72
g2
Ntp3367
Rp3368
(dp3369
g76
I8
sg77
I9
sg14
(I4
I2
I1
I0
tp3370
sbaa(lp3371
a(lp3372
a(lp3373
aa(lp3374
(lp3375
a(lp3376
a(lp3377
a(lp3378
a(lp3379
a(lp3380
g3317
aa(lp3381
g3331
aa(lp3382
g0
(g72
g2
Ntp3383
Rp3384
(dp3385
g76
I7
sg77
I10
sg14
(I1
I0
I1
I0
tp3386
sbaa(lp3387
a(lp3388
a(lp3389
a(lp3390
aa(lp3391
(lp3392
a(lp3393
a(lp3394
a(lp3395
a(lp3396
a(lp3397
a(lp3398
a(lp3399
a(lp3400
a(lp3401
a(lp3402
a(lp3403
aasg544
I3
sbsg16
(lp3404
I00
aI01
aI00
aI0
asg18
I00
sbag0
(g10
g2
Ntp3405
Rp3406
(dp3407
g14
(I3
I2
I3
I2
tp3408
sg16
(lp3409
I00
aI0
aI00
aI00
asg18
I00
sbag0
(g52
g2
Ntp3410
Rp3411
(dp3412
g56
S'order'
p3413
sg14
(I2
I3
I2
I3
tp3414
sg59
g0
(g60
g2
Ntp3415
Rp3416
(dp3417
g64
I12
sg65
I12
sg66
I64
sg67
I4
sg68
(lp3418
(lp3419
(lp3420
a(lp3421
a(lp3422
a(lp3423
a(lp3424
a(lp3425
a(lp3426
a(lp3427
g0
(g524
g2
Ntp3428
Rp3429
(dp3430
g76
I7
sg77
I0
sg212
I01
sbaa(lp3431
a(lp3432
g0
(g105
g2
Ntp3433
Rp3434
(dp3435
g109
g0
(g110
g2
Ntp3436
Rp3437
(dp3438
g114
I2
sg115
(lp3439
g3434
ag0
(g126
g2
Ntp3440
Rp3441
(dp3442
g76
I9
sg77
I1
sg109
g3437
sg120
g3437
sg130
I1
sbasbsg120
g3437
sg121
I1
sg76
I9
sg77
I0
sg122
Nsbaa(lp3443
g0
(g72
g2
Ntp3444
Rp3445
(dp3446
g76
I10
sg77
I0
sg14
(I1
I1
I4
I4
tp3447
sbaa(lp3448
g0
(g72
g2
Ntp3449
Rp3450
(dp3451
g76
I11
sg77
I0
sg14
(I4
I4
I4
I4
tp3452
sbaaa(lp3453
(lp3454
a(lp3455
a(lp3456
g0
(g72
g2
Ntp3457
Rp3458
(dp3459
g76
I2
sg77
I1
sg14
(I0
I1
I0
I1
tp3460
sbaa(lp3461
a(lp3462
a(lp3463
a(lp3464
a(lp3465
a(lp3466
a(lp3467
g3441
aa(lp3468
g0
(g72
g2
Ntp3469
Rp3470
(dp3471
g76
I10
sg77
I1
sg14
(I1
I1
I4
I4
tp3472
sbaa(lp3473
g0
(g72
g2
Ntp3474
Rp3475
(dp3476
g76
I11
sg77
I1
sg14
(I4
I4
I4
I4
tp3477
sbaaa(lp3478
(lp3479
a(lp3480
g0
(g208
g2
Ntp3481
Rp3482
(dp3483
g76
I1
sg77
I2
sg212
I4
sbaa(lp3484
g0
(g72
g2
Ntp3485
Rp3486
(dp3487
g76
I2
sg77
I2
sg14
(I1
I0
I1
I0
tp3488
sbaa(lp3489
a(lp3490
a(lp3491
a(lp3492
a(lp3493
a(lp3494
a(lp3495
g0
(g1477
g2
Ntp3496
Rp3497
(dp3498
g76
I9
sg77
I2
sg114
I3
sbaa(lp3499
g0
(g72
g2
Ntp3500
Rp3501
(dp3502
g76
I10
sg77
I2
sg14
(I1
I1
I4
I4
tp3503
sbaa(lp3504
g0
(g72
g2
Ntp3505
Rp3506
(dp3507
g76
I11
sg77
I2
sg14
(I4
I4
I4
I4
tp3508
sbaaa(lp3509
(lp3510
a(lp3511
a(lp3512
a(lp3513
a(lp3514
a(lp3515
a(lp3516
a(lp3517
a(lp3518
a(lp3519
g0
(g72
g2
Ntp3520
Rp3521
(dp3522
g76
I9
sg77
I3
sg14
(I0
I1
I2
I4
tp3523
sbaa(lp3524
g0
(g72
g2
Ntp3525
Rp3526
(dp3527
g76
I10
sg77
I3
sg14
(I3
I4
I4
I4
tp3528
sbaa(lp3529
g0
(g72
g2
Ntp3530
Rp3531
(dp3532
g76
I11
sg77
I3
sg14
(I4
I4
I4
I4
tp3533
sbaaa(lp3534
(lp3535
a(lp3536
a(lp3537
a(lp3538
a(lp3539
a(lp3540
a(lp3541
a(lp3542
a(lp3543
g0
(g72
g2
Ntp3544
Rp3545
(dp3546
g76
I8
sg77
I4
sg14
(I0
I1
I2
I4
tp3547
sbaa(lp3548
g0
(g72
g2
Ntp3549
Rp3550
(dp3551
g76
I9
sg77
I4
sg14
(I3
I4
I4
I4
tp3552
sbaa(lp3553
g0
(g72
g2
Ntp3554
Rp3555
(dp3556
g76
I10
sg77
I4
sg14
(I4
I4
I4
I4
tp3557
sbaa(lp3558
g0
(g72
g2
Ntp3559
Rp3560
(dp3561
g76
I11
sg77
I4
sg14
(I4
I4
I4
I4
tp3562
sbaaa(lp3563
(lp3564
a(lp3565
a(lp3566
a(lp3567
a(lp3568
a(lp3569
a(lp3570
a(lp3571
g0
(g72
g2
Ntp3572
Rp3573
(dp3574
g76
I7
sg77
I5
sg14
(I0
I1
I2
I4
tp3575
sbaa(lp3576
g0
(g72
g2
Ntp3577
Rp3578
(dp3579
g76
I8
sg77
I5
sg14
(I3
I4
I4
I4
tp3580
sbaa(lp3581
g0
(g72
g2
Ntp3582
Rp3583
(dp3584
g76
I9
sg77
I5
sg14
(I4
I4
I4
I4
tp3585
sbaa(lp3586
g0
(g72
g2
Ntp3587
Rp3588
(dp3589
g76
I10
sg77
I5
sg14
(I4
I4
I4
I4
tp3590
sbaa(lp3591
g0
(g72
g2
Ntp3592
Rp3593
(dp3594
g76
I11
sg77
I5
sg14
(I4
I4
I4
I4
tp3595
sbaaa(lp3596
(lp3597
a(lp3598
a(lp3599
a(lp3600
a(lp3601
a(lp3602
a(lp3603
g0
(g72
g2
Ntp3604
Rp3605
(dp3606
g76
I6
sg77
I6
sg14
(I0
I1
I2
I4
tp3607
sbaa(lp3608
g0
(g72
g2
Ntp3609
Rp3610
(dp3611
g76
I7
sg77
I6
sg14
(I3
I4
I4
I4
tp3612
sbaa(lp3613
g0
(g72
g2
Ntp3614
Rp3615
(dp3616
g76
I8
sg77
I6
sg14
(I4
I4
I4
I4
tp3617
sbaa(lp3618
g0
(g72
g2
Ntp3619
Rp3620
(dp3621
g76
I9
sg77
I6
sg14
(I4
I4
I4
I4
tp3622
sbaa(lp3623
g0
(g72
g2
Ntp3624
Rp3625
(dp3626
g76
I10
sg77
I6
sg14
(I4
I4
I4
I4
tp3627
sbaa(lp3628
g0
(g72
g2
Ntp3629
Rp3630
(dp3631
g76
I11
sg77
I6
sg14
(I4
I4
I4
I4
tp3632
sbaaa(lp3633
(lp3634
a(lp3635
a(lp3636
a(lp3637
a(lp3638
a(lp3639
g0
(g72
g2
Ntp3640
Rp3641
(dp3642
g76
I5
sg77
I7
sg14
(I0
I0
I2
I2
tp3643
sbaa(lp3644
g0
(g72
g2
Ntp3645
Rp3646
(dp3647
g76
I6
sg77
I7
sg14
(I3
I2
I4
I2
tp3648
sbaa(lp3649
g0
(g72
g2
Ntp3650
Rp3651
(dp3652
g76
I7
sg77
I7
sg14
(I4
I2
I4
I2
tp3653
sbaa(lp3654
g0
(g72
g2
Ntp3655
Rp3656
(dp3657
g76
I8
sg77
I7
sg14
(I4
I2
I4
I2
tp3658
sbaa(lp3659
g0
(g72
g2
Ntp3660
Rp3661
(dp3662
g76
I9
sg77
I7
sg14
(I4
I2
I4
I2
tp3663
sbaa(lp3664
g0
(g72
g2
Ntp3665
Rp3666
(dp3667
g76
I10
sg77
I7
sg14
(I4
I2
I4
I2
tp3668
sbaa(lp3669
g0
(g72
g2
Ntp3670
Rp3671
(dp3672
g76
I11
sg77
I7
sg14
(I4
I3
I4
I4
tp3673
sbaaa(lp3674
(lp3675
a(lp3676
a(lp3677
a(lp3678
a(lp3679
a(lp3680
a(lp3681
a(lp3682
a(lp3683
a(lp3684
a(lp3685
a(lp3686
g0
(g72
g2
Ntp3687
Rp3688
(dp3689
g76
I11
sg77
I8
sg14
(I1
I1
I4
I4
tp3690
sbaaa(lp3691
(lp3692
a(lp3693
a(lp3694
g0
(g72
g2
Ntp3695
Rp3696
(dp3697
g76
I2
sg77
I9
sg14
(I0
I0
I2
I2
tp3698
sbaa(lp3699
g0
(g72
g2
Ntp3700
Rp3701
(dp3702
g76
I3
sg77
I9
sg14
(I2
I3
I0
I1
tp3703
sbaa(lp3704
a(lp3705
g0
(g72
g2
Ntp3706
Rp3707
(dp3708
g76
I5
sg77
I9
sg14
(I0
I0
I2
I2
tp3709
sbaa(lp3710
g0
(g72
g2
Ntp3711
Rp3712
(dp3713
g76
I6
sg77
I9
sg14
(I2
I2
I0
I0
tp3714
sbaa(lp3715
g0
(g1477
g2
Ntp3716
Rp3717
(dp3718
g76
I7
sg77
I9
sg114
I1
sbaa(lp3719
g0
(g72
g2
Ntp3720
Rp3721
(dp3722
g76
I8
sg77
I9
sg14
(I0
I1
I2
I4
tp3723
sbaa(lp3724
g0
(g72
g2
Ntp3725
Rp3726
(dp3727
g76
I9
sg77
I9
sg14
(I2
I4
I2
I4
tp3728
sbaa(lp3729
g0
(g72
g2
Ntp3730
Rp3731
(dp3732
g76
I10
sg77
I9
sg14
(I2
I4
I2
I4
tp3733
sbaa(lp3734
g0
(g72
g2
Ntp3735
Rp3736
(dp3737
g76
I11
sg77
I9
sg14
(I3
I4
I4
I4
tp3738
sbaaa(lp3739
(lp3740
a(lp3741
a(lp3742
g0
(g208
g2
Ntp3743
Rp3744
(dp3745
g76
I2
sg77
I10
sg212
I12
sbaa(lp3746
g0
(g72
g2
Ntp3747
Rp3748
(dp3749
g76
I3
sg77
I10
sg14
(I1
I1
I1
I1
tp3750
sbaa(lp3751
a(lp3752
a(lp3753
g0
(g679
g2
Ntp3754
Rp3755
(dp3756
g76
I6
sg77
I10
sg212
I3
sbaa(lp3757
a(lp3758
g0
(g72
g2
Ntp3759
Rp3760
(dp3761
g76
I8
sg77
I10
sg14
(I1
I1
I4
I4
tp3762
sbaa(lp3763
g0
(g72
g2
Ntp3764
Rp3765
(dp3766
g76
I9
sg77
I10
sg14
(I4
I4
I4
I4
tp3767
sbaa(lp3768
g0
(g72
g2
Ntp3769
Rp3770
(dp3771
g76
I10
sg77
I10
sg14
(I4
I4
I4
I4
tp3772
sbaa(lp3773
g0
(g72
g2
Ntp3774
Rp3775
(dp3776
g76
I11
sg77
I10
sg14
(I4
I4
I4
I4
tp3777
sbaaa(lp3778
(lp3779
a(lp3780
a(lp3781
a(lp3782
g0
(g72
g2
Ntp3783
Rp3784
(dp3785
g76
I3
sg77
I11
sg14
(I1
I1
I1
I1
tp3786
sbaa(lp3787
g0
(g1477
g2
Ntp3788
Rp3789
(dp3790
g76
I4
sg77
I11
sg114
I4
sbaa(lp3791
a(lp3792
g0
(g72
g2
Ntp3793
Rp3794
(dp3795
g76
I6
sg77
I11
sg14
(I0
I1
I2
I4
tp3796
sbaa(lp3797
g0
(g72
g2
Ntp3798
Rp3799
(dp3800
g76
I7
sg77
I11
sg14
(I2
I4
I2
I4
tp3801
sbaa(lp3802
g0
(g72
g2
Ntp3803
Rp3804
(dp3805
g76
I8
sg77
I11
sg14
(I3
I4
I4
I4
tp3806
sbaa(lp3807
g0
(g72
g2
Ntp3808
Rp3809
(dp3810
g76
I9
sg77
I11
sg14
(I4
I4
I4
I4
tp3811
sbaa(lp3812
g0
(g72
g2
Ntp3813
Rp3814
(dp3815
g76
I10
sg77
I11
sg14
(I4
I4
I4
I4
tp3816
sbaa(lp3817
g0
(g72
g2
Ntp3818
Rp3819
(dp3820
g76
I11
sg77
I11
sg14
(I4
I4
I4
I4
tp3821
sbaaasg544
I3
sbsg16
(lp3822
I00
aI01
aI00
aI0
asg18
I00
sbag0
(g10
g2
Ntp3823
Rp3824
(dp3825
g14
(I3
I2
I1
I0
tp3826
sg16
(lp3827
I00
aI0
aI0
aI00
asg18
I00
sbaNaNaNaNag0
(g10
g2
Ntp3828
Rp3829
(dp3830
g14
(I1
I1
I1
I1
tp3831
sg16
(lp3832
I0
aI00
aI0
aI00
asg18
I00
sbaNaa(lp3833
NaNaNag0
(g10
g2
Ntp3834
Rp3835
(dp3836
g18
I01
sg14
(I1
I1
I1
I1
tp3837
sbaNag0
(g10
g2
Ntp3838
Rp3839
(dp3840
g14
(I1
I1
I1
I1
tp3841
sg16
(lp3842
I0
aI00
aI0
aI00
asg18
I01
sbaNaNaNaNaNag0
(g52
g2
Ntp3843
Rp3844
(dp3845
g56
S'additive'
p3846
sg18
I00
sg59
g0
(g60
g2
Ntp3847
Rp3848
(dp3849
g785
g786
sg64
I12
sg65
I12
sg66
I64
sg67
I4
sg68
(lp3850
(lp3851
(lp3852
a(lp3853
g0
(g2460
g2
Ntp3854
Rp3855
(dp3856
g76
I1
sg77
I0
sg109
g0
(g608
g2
Ntp3857
Rp3858
(dp3859
g115
(lp3860
g3855
asbsg185
I0
sg14
(I0
I0
I0
I0
tp3861
sbaa(lp3862
g0
(g794
g2
Ntp3863
Rp3864
(dp3865
g76
I2
sg77
I0
sg14
(I1
I1
I1
I1
tp3866
sbaa(lp3867
a(lp3868
a(lp3869
g0
(g818
g2
Ntp3870
Rp3871
(dp3872
g76
I5
sg77
I0
sg109
g0
(g608
g2
Ntp3873
Rp3874
(dp3875
g115
(lp3876
g3871
asbsbaa(lp3877
g0
(g180
g2
Ntp3878
Rp3879
(dp3880
g76
I6
sg77
I0
sg184
I1
sg185
I0
sbaa(lp3881
g0
(g524
g2
Ntp3882
Rp3883
(dp3884
g76
I7
sg77
I0
sg212
I01
sbaa(lp3885
g0
(g794
g2
Ntp3886
Rp3887
(dp3888
g76
I8
sg77
I0
sg14
(I1
I1
I1
I1
tp3889
sbaa(lp3890
a(lp3891
a(lp3892
aa(lp3893
(lp3894
g0
(g2460
g2
Ntp3895
Rp3896
(dp3897
g76
I0
sg77
I1
sg109
g0
(g608
g2
Ntp3898
Rp3899
(dp3900
g115
(lp3901
g3896
asbsg185
I0
sg14
(I0
I0
I0
I0
tp3902
sbaa(lp3903
g0
(g679
g2
Ntp3904
Rp3905
(dp3906
g76
I1
sg77
I1
sg212
I0
sbaa(lp3907
g0
(g794
g2
Ntp3908
Rp3909
(dp3910
g76
I2
sg77
I1
sg14
(I1
I1
I1
I1
tp3911
sbaa(lp3912
a(lp3913
a(lp3914
a(lp3915
g0
(g794
g2
Ntp3916
Rp3917
(dp3918
g76
I6
sg77
I1
sg14
(I0
I1
I2
I3
tp3919
sbaa(lp3920
g0
(g794
g2
Ntp3921
Rp3922
(dp3923
g76
I7
sg77
I1
sg14
(I2
I2
I2
I2
tp3924
sbaa(lp3925
g0
(g794
g2
Ntp3926
Rp3927
(dp3928
g76
I8
sg77
I1
sg14
(I3
I2
I1
I0
tp3929
sbaa(lp3930
g0
(g208
g2
Ntp3931
Rp3932
(dp3933
g76
I9
sg77
I1
sg212
I3
sbaa(lp3934
a(lp3935
aa(lp3936
(lp3937
a(lp3938
g0
(g2460
g2
Ntp3939
Rp3940
(dp3941
g76
I1
sg77
I2
sg109
g0
(g608
g2
Ntp3942
Rp3943
(dp3944
g115
(lp3945
g3940
asbsg185
I0
sg14
(I0
I0
I0
I0
tp3946
sbaa(lp3947
g0
(g794
g2
Ntp3948
Rp3949
(dp3950
g76
I2
sg77
I2
sg14
(I1
I1
I3
I4
tp3951
sbaa(lp3952
g0
(g794
g2
Ntp3953
Rp3954
(dp3955
g76
I3
sg77
I2
sg14
(I2
I4
I2
I4
tp3956
sbaa(lp3957
g0
(g794
g2
Ntp3958
Rp3959
(dp3960
g76
I4
sg77
I2
sg14
(I2
I4
I0
I1
tp3961
sbaa(lp3962
a(lp3963
g0
(g794
g2
Ntp3964
Rp3965
(dp3966
g76
I6
sg77
I2
sg14
(I1
I1
I1
I1
tp3967
sbaa(lp3968
a(lp3969
a(lp3970
g0
(g208
g2
Ntp3971
Rp3972
(dp3973
g76
I9
sg77
I2
sg212
I10
sbaa(lp3974
a(lp3975
aa(lp3976
(lp3977
g0
(g2460
g2
Ntp3978
Rp3979
(dp3980
g76
I0
sg77
I3
sg109
g0
(g608
g2
Ntp3981
Rp3982
(dp3983
g115
(lp3984
g3979
asbsg185
I0
sg14
(I0
I0
I0
I0
tp3985
sbaa(lp3986
g0
(g679
g2
Ntp3987
Rp3988
(dp3989
g76
I1
sg77
I3
sg212
I0
sbaa(lp3990
g0
(g794
g2
Ntp3991
Rp3992
(dp3993
g76
I2
sg77
I3
sg14
(I1
I0
I4
I2
tp3994
sbaa(lp3995
g0
(g794
g2
Ntp3996
Rp3997
(dp3998
g76
I3
sg77
I3
sg14
(I4
I3
I4
I4
tp3999
sbaa(lp4000
g0
(g794
g2
Ntp4001
Rp4002
(dp4003
g76
I4
sg77
I3
sg14
(I4
I4
I1
I1
tp4004
sbaa(lp4005
a(lp4006
g0
(g794
g2
Ntp4007
Rp4008
(dp4009
g76
I6
sg77
I3
sg14
(I1
I1
I1
I1
tp4010
sbaa(lp4011
a(lp4012
a(lp4013
g0
(g208
g2
Ntp4014
Rp4015
(dp4016
g76
I9
sg77
I3
sg212
I10
sbaa(lp4017
a(lp4018
aa(lp4019
(lp4020
a(lp4021
a(lp4022
a(lp4023
g0
(g794
g2
Ntp4024
Rp4025
(dp4026
g76
I3
sg77
I4
sg14
(I1
I0
I4
I2
tp4027
sbaa(lp4028
g0
(g794
g2
Ntp4029
Rp4030
(dp4031
g76
I4
sg77
I4
sg14
(I4
I3
I1
I1
tp4032
sbaa(lp4033
a(lp4034
g0
(g794
g2
Ntp4035
Rp4036
(dp4037
g76
I6
sg77
I4
sg14
(I1
I0
I1
I0
tp4038
sbaa(lp4039
a(lp4040
a(lp4041
g0
(g208
g2
Ntp4042
Rp4043
(dp4044
g76
I9
sg77
I4
sg212
I10
sbaa(lp4045
a(lp4046
aa(lp4047
(lp4048
g0
(g2460
g2
Ntp4049
Rp4050
(dp4051
g76
I0
sg77
I5
sg109
g0
(g608
g2
Ntp4052
Rp4053
(dp4054
g115
(lp4055
g4050
asbsg185
I0
sg14
(I0
I0
I0
I0
tp4056
sbaa(lp4057
g0
(g794
g2
Ntp4058
Rp4059
(dp4060
g76
I1
sg77
I5
sg14
(I0
I1
I0
I1
tp4061
sbaa(lp4062
a(lp4063
a(lp4064
g0
(g794
g2
Ntp4065
Rp4066
(dp4067
g76
I4
sg77
I5
sg14
(I1
I1
I1
I1
tp4068
sbaa(lp4069
a(lp4070
a(lp4071
a(lp4072
a(lp4073
g0
(g208
g2
Ntp4074
Rp4075
(dp4076
g76
I9
sg77
I5
sg212
I10
sbaa(lp4077
a(lp4078
aa(lp4079
(lp4080
g0
(g794
g2
Ntp4081
Rp4082
(dp4083
g76
I0
sg77
I6
sg14
(I2
I2
I2
I2
tp4084
sbaa(lp4085
g0
(g794
g2
Ntp4086
Rp4087
(dp4088
g76
I1
sg77
I6
sg14
(I3
I2
I1
I0
tp4089
sbaa(lp4090
a(lp4091
a(lp4092
g0
(g794
g2
Ntp4093
Rp4094
(dp4095
g76
I4
sg77
I6
sg14
(I1
I0
I1
I0
tp4096
sbaa(lp4097
a(lp4098
a(lp4099
a(lp4100
a(lp4101
g0
(g208
g2
Ntp4102
Rp4103
(dp4104
g76
I9
sg77
I6
sg212
I10
sbaa(lp4105
a(lp4106
aa(lp4107
(lp4108
g0
(g524
g2
Ntp4109
Rp4110
(dp4111
g76
I0
sg77
I7
sg212
I01
sbaa(lp4112
a(lp4113
a(lp4114
a(lp4115
g0
(g208
g2
Ntp4116
Rp4117
(dp4118
g76
I4
sg77
I7
sg212
I10
sbaa(lp4119
a(lp4120
a(lp4121
a(lp4122
a(lp4123
g0
(g208
g2
Ntp4124
Rp4125
(dp4126
g76
I9
sg77
I7
sg212
I10
sbaa(lp4127
a(lp4128
aa(lp4129
(lp4130
a(lp4131
a(lp4132
a(lp4133
g0
(cSnake
IronSnakeHead
p4134
g2
Ntp4135
Rp4136
(dp4137
g76
I3
sg77
I8
sg109
g0
(cSnake
IronSnake
p4138
g2
Ntp4139
Rp4140
(dp4141
g114
I1
sg115
(lp4142
g0
(cSnake
IronSnakeSeg
p4143
g2
Ntp4144
Rp4145
(dp4146
g109
g4140
sg120
g4140
sg121
I3
sg76
I3
sg77
I10
sg122
Nsbag0
(g4143
g2
Ntp4147
Rp4148
(dp4149
g109
g4140
sg120
g4140
sg121
I3
sg76
I3
sg77
I9
sg122
I1
sbag4136
asbsg120
g4140
sg130
I3
sbaa(lp4150
g0
(g208
g2
Ntp4151
Rp4152
(dp4153
g76
I4
sg77
I8
sg212
I14
sbaa(lp4154
g0
(g1021
g2
Ntp4155
Rp4156
(dp4157
g76
I5
sg77
I8
sg1025
I1
sg184
I01
sg185
I0
sbaa(lp4158
a(lp4159
a(lp4160
a(lp4161
g0
(g208
g2
Ntp4162
Rp4163
(dp4164
g76
I9
sg77
I8
sg212
I10
sbaa(lp4165
a(lp4166
aa(lp4167
(lp4168
a(lp4169
a(lp4170
a(lp4171
g4148
aa(lp4172
g0
(g794
g2
Ntp4173
Rp4174
(dp4175
g76
I4
sg77
I9
sg14
(I0
I1
I2
I3
tp4176
sbaa(lp4177
g0
(g794
g2
Ntp4178
Rp4179
(dp4180
g76
I5
sg77
I9
sg14
(I2
I2
I0
I0
tp4181
sbaa(lp4182
a(lp4183
g0
(g794
g2
Ntp4184
Rp4185
(dp4186
g76
I7
sg77
I9
sg14
(I0
I1
I2
I4
tp4187
sbaa(lp4188
g0
(g794
g2
Ntp4189
Rp4190
(dp4191
g76
I8
sg77
I9
sg14
(I2
I4
I2
I4
tp4192
sbaa(lp4193
g0
(g794
g2
Ntp4194
Rp4195
(dp4196
g76
I9
sg77
I9
sg14
(I2
I4
I0
I1
tp4197
sbaa(lp4198
a(lp4199
aa(lp4200
(lp4201
a(lp4202
a(lp4203
a(lp4204
g4145
aa(lp4205
g0
(g794
g2
Ntp4206
Rp4207
(dp4208
g76
I4
sg77
I10
sg14
(I1
I0
I1
I0
tp4209
sbaa(lp4210
a(lp4211
a(lp4212
g0
(g794
g2
Ntp4213
Rp4214
(dp4215
g76
I7
sg77
I10
sg14
(I1
I1
I4
I4
tp4216
sbaa(lp4217
g0
(g794
g2
Ntp4218
Rp4219
(dp4220
g76
I8
sg77
I10
sg14
(I4
I4
I4
I4
tp4221
sbaa(lp4222
g0
(g794
g2
Ntp4223
Rp4224
(dp4225
g76
I9
sg77
I10
sg14
(I4
I4
I3
I4
tp4226
sbaa(lp4227
g0
(g794
g2
Ntp4228
Rp4229
(dp4230
g76
I10
sg77
I10
sg14
(I2
I4
I2
I4
tp4231
sbaa(lp4232
g0
(g794
g2
Ntp4233
Rp4234
(dp4235
g76
I11
sg77
I10
sg14
(I2
I4
I2
I4
tp4236
sbaaa(lp4237
(lp4238
a(lp4239
a(lp4240
a(lp4241
a(lp4242
a(lp4243
a(lp4244
a(lp4245
g0
(g794
g2
Ntp4246
Rp4247
(dp4248
g76
I7
sg77
I11
sg14
(I1
I1
I4
I4
tp4249
sbaa(lp4250
g0
(g794
g2
Ntp4251
Rp4252
(dp4253
g76
I8
sg77
I11
sg14
(I4
I4
I4
I4
tp4254
sbaa(lp4255
g0
(g794
g2
Ntp4256
Rp4257
(dp4258
g76
I9
sg77
I11
sg14
(I4
I4
I4
I4
tp4259
sbaa(lp4260
g0
(g794
g2
Ntp4261
Rp4262
(dp4263
g76
I10
sg77
I11
sg14
(I4
I4
I4
I4
tp4264
sbaa(lp4265
g0
(g794
g2
Ntp4266
Rp4267
(dp4268
g76
I11
sg77
I11
sg14
(I4
I4
I4
I4
tp4269
sbaaasg544
I3
sbsg16
(lp4270
I0
aI00
aI0
aI00
asg14
(I1
I1
I1
I1
tp4271
sbaNaa(lp4272
NaNaNag0
(g10
g2
Ntp4273
Rp4274
(dp4275
g18
I00
sg16
(lp4276
I0
aI00
aI0
aI01
asg14
(I1
I1
I1
I1
tp4277
sbaNag0
(g52
g2
Ntp4278
Rp4279
(dp4280
g56
S'restraint'
p4281
sg14
(I1
I1
I1
I1
tp4282
sg59
g0
(g60
g2
Ntp4283
Rp4284
(dp4285
g64
I12
sg65
I15
sg66
I64
sg67
I4
sg68
(lp4286
(lp4287
(lp4288
a(lp4289
a(lp4290
a(lp4291
a(lp4292
a(lp4293
a(lp4294
a(lp4295
g0
(g105
g2
Ntp4296
Rp4297
(dp4298
g109
g0
(g110
g2
Ntp4299
Rp4300
(dp4301
g114
I2
sg115
(lp4302
g0
(g105
g2
Ntp4303
Rp4304
(dp4305
g109
g4300
sg120
g4300
sg121
I0
sg76
I8
sg77
I0
sg122
Nsbag4297
ag0
(g105
g2
Ntp4306
Rp4307
(dp4308
g109
g4300
sg120
g4300
sg121
I2
sg76
I7
sg77
I1
sg122
I3
sbag0
(g105
g2
Ntp4309
Rp4310
(dp4311
g109
g4300
sg120
g4300
sg121
I1
sg76
I8
sg77
I1
sg122
I0
sbag0
(g126
g2
Ntp4312
Rp4313
(dp4314
g76
I8
sg77
I2
sg109
g4300
sg120
g4300
sg130
I1
sbasbsg120
g4300
sg121
I1
sg76
I7
sg77
I0
sg122
I2
sbaa(lp4315
g4304
aa(lp4316
g0
(g72
g2
Ntp4317
Rp4318
(dp4319
g76
I9
sg77
I0
sg14
(I1
I1
I4
I4
tp4320
sbaa(lp4321
g0
(g72
g2
Ntp4322
Rp4323
(dp4324
g76
I10
sg77
I0
sg14
(I4
I4
I4
I4
tp4325
sbaa(lp4326
g0
(g72
g2
Ntp4327
Rp4328
(dp4329
g76
I11
sg77
I0
sg14
(I4
I4
I4
I4
tp4330
sbaaa(lp4331
(lp4332
a(lp4333
a(lp4334
a(lp4335
a(lp4336
a(lp4337
a(lp4338
a(lp4339
g4307
aa(lp4340
g4310
aa(lp4341
g0
(g72
g2
Ntp4342
Rp4343
(dp4344
g76
I9
sg77
I1
sg14
(I1
I1
I4
I4
tp4345
sbaa(lp4346
g0
(g72
g2
Ntp4347
Rp4348
(dp4349
g76
I10
sg77
I1
sg14
(I4
I4
I4
I4
tp4350
sbaa(lp4351
g0
(g72
g2
Ntp4352
Rp4353
(dp4354
g76
I11
sg77
I1
sg14
(I4
I4
I4
I4
tp4355
sbaaa(lp4356
(lp4357
a(lp4358
a(lp4359
a(lp4360
a(lp4361
a(lp4362
a(lp4363
a(lp4364
a(lp4365
g4313
aa(lp4366
g0
(g72
g2
Ntp4367
Rp4368
(dp4369
g76
I9
sg77
I2
sg14
(I1
I1
I4
I4
tp4370
sbaa(lp4371
g0
(g72
g2
Ntp4372
Rp4373
(dp4374
g76
I10
sg77
I2
sg14
(I4
I4
I4
I4
tp4375
sbaa(lp4376
g0
(g72
g2
Ntp4377
Rp4378
(dp4379
g76
I11
sg77
I2
sg14
(I4
I4
I4
I4
tp4380
sbaaa(lp4381
(lp4382
a(lp4383
a(lp4384
a(lp4385
a(lp4386
a(lp4387
a(lp4388
a(lp4389
a(lp4390
a(lp4391
g0
(g72
g2
Ntp4392
Rp4393
(dp4394
g76
I9
sg77
I3
sg14
(I1
I1
I4
I4
tp4395
sbaa(lp4396
g0
(g72
g2
Ntp4397
Rp4398
(dp4399
g76
I10
sg77
I3
sg14
(I4
I4
I4
I4
tp4400
sbaa(lp4401
g0
(g72
g2
Ntp4402
Rp4403
(dp4404
g76
I11
sg77
I3
sg14
(I4
I4
I4
I4
tp4405
sbaaa(lp4406
(lp4407
a(lp4408
a(lp4409
a(lp4410
a(lp4411
a(lp4412
a(lp4413
a(lp4414
g0
(g1241
g2
Ntp4415
Rp4416
(dp4417
g76
I7
sg77
I4
sg109
g0
(g1245
g2
Ntp4418
Rp4419
(dp4420
g114
I0
sg115
(lp4421
g0
(g1241
g2
Ntp4422
Rp4423
(dp4424
g76
I8
sg77
I4
sg109
g4419
sg14
(I2
I4
I0
I1
tp4425
sbag4416
ag0
(g1241
g2
Ntp4426
Rp4427
(dp4428
g76
I7
sg77
I5
sg109
g4419
sg14
(I1
I0
I4
I2
tp4429
sbag0
(g1241
g2
Ntp4430
Rp4431
(dp4432
g76
I8
sg77
I5
sg109
g4419
sg14
(I4
I2
I1
I0
tp4433
sbasbsg14
(I0
I1
I2
I4
tp4434
sbaa(lp4435
g4423
aa(lp4436
g0
(g72
g2
Ntp4437
Rp4438
(dp4439
g76
I9
sg77
I4
sg14
(I1
I1
I4
I4
tp4440
sbaa(lp4441
g0
(g72
g2
Ntp4442
Rp4443
(dp4444
g76
I10
sg77
I4
sg14
(I4
I4
I4
I4
tp4445
sbaa(lp4446
g0
(g72
g2
Ntp4447
Rp4448
(dp4449
g76
I11
sg77
I4
sg14
(I4
I4
I4
I4
tp4450
sbaaa(lp4451
(lp4452
a(lp4453
a(lp4454
a(lp4455
a(lp4456
a(lp4457
a(lp4458
a(lp4459
g4427
aa(lp4460
g4431
aa(lp4461
g0
(g72
g2
Ntp4462
Rp4463
(dp4464
g76
I9
sg77
I5
sg14
(I1
I1
I4
I4
tp4465
sbaa(lp4466
g0
(g72
g2
Ntp4467
Rp4468
(dp4469
g76
I10
sg77
I5
sg14
(I4
I4
I4
I4
tp4470
sbaa(lp4471
g0
(g72
g2
Ntp4472
Rp4473
(dp4474
g76
I11
sg77
I5
sg14
(I4
I4
I4
I4
tp4475
sbaaa(lp4476
(lp4477
a(lp4478
a(lp4479
a(lp4480
a(lp4481
a(lp4482
a(lp4483
a(lp4484
a(lp4485
a(lp4486
g0
(g72
g2
Ntp4487
Rp4488
(dp4489
g76
I9
sg77
I6
sg14
(I1
I0
I4
I2
tp4490
sbaa(lp4491
g0
(g72
g2
Ntp4492
Rp4493
(dp4494
g76
I10
sg77
I6
sg14
(I4
I3
I4
I4
tp4495
sbaa(lp4496
g0
(g72
g2
Ntp4497
Rp4498
(dp4499
g76
I11
sg77
I6
sg14
(I4
I4
I4
I4
tp4500
sbaaa(lp4501
(lp4502
a(lp4503
a(lp4504
a(lp4505
a(lp4506
a(lp4507
a(lp4508
a(lp4509
a(lp4510
a(lp4511
a(lp4512
g0
(g72
g2
Ntp4513
Rp4514
(dp4515
g76
I10
sg77
I7
sg14
(I1
I1
I4
I4
tp4516
sbaa(lp4517
g0
(g72
g2
Ntp4518
Rp4519
(dp4520
g76
I11
sg77
I7
sg14
(I4
I4
I4
I4
tp4521
sbaaa(lp4522
(lp4523
a(lp4524
a(lp4525
a(lp4526
a(lp4527
a(lp4528
a(lp4529
a(lp4530
a(lp4531
a(lp4532
a(lp4533
g0
(g72
g2
Ntp4534
Rp4535
(dp4536
g76
I10
sg77
I8
sg14
(I1
I1
I4
I4
tp4537
sbaa(lp4538
g0
(g72
g2
Ntp4539
Rp4540
(dp4541
g76
I11
sg77
I8
sg14
(I4
I4
I4
I4
tp4542
sbaaa(lp4543
(lp4544
a(lp4545
a(lp4546
a(lp4547
a(lp4548
a(lp4549
a(lp4550
a(lp4551
a(lp4552
g0
(g72
g2
Ntp4553
Rp4554
(dp4555
g76
I8
sg77
I9
sg14
(I0
I1
I2
I4
tp4556
sbaa(lp4557
g0
(g72
g2
Ntp4558
Rp4559
(dp4560
g76
I9
sg77
I9
sg14
(I2
I4
I2
I4
tp4561
sbaa(lp4562
g0
(g72
g2
Ntp4563
Rp4564
(dp4565
g76
I10
sg77
I9
sg14
(I3
I4
I4
I4
tp4566
sbaa(lp4567
g0
(g72
g2
Ntp4568
Rp4569
(dp4570
g76
I11
sg77
I9
sg14
(I4
I4
I4
I4
tp4571
sbaaa(lp4572
(lp4573
a(lp4574
a(lp4575
a(lp4576
a(lp4577
a(lp4578
a(lp4579
a(lp4580
a(lp4581
g0
(g72
g2
Ntp4582
Rp4583
(dp4584
g76
I8
sg77
I10
sg14
(I1
I1
I4
I4
tp4585
sbaa(lp4586
g0
(g72
g2
Ntp4587
Rp4588
(dp4589
g76
I9
sg77
I10
sg14
(I4
I4
I4
I4
tp4590
sbaa(lp4591
g0
(g72
g2
Ntp4592
Rp4593
(dp4594
g76
I10
sg77
I10
sg14
(I4
I4
I4
I4
tp4595
sbaa(lp4596
g0
(g72
g2
Ntp4597
Rp4598
(dp4599
g76
I11
sg77
I10
sg14
(I4
I4
I4
I4
tp4600
sbaaa(lp4601
(lp4602
a(lp4603
a(lp4604
a(lp4605
a(lp4606
a(lp4607
a(lp4608
a(lp4609
g0
(g524
g2
Ntp4610
Rp4611
(dp4612
g76
I7
sg77
I11
sg212
I01
sbaa(lp4613
g0
(g72
g2
Ntp4614
Rp4615
(dp4616
g76
I8
sg77
I11
sg14
(I1
I1
I4
I4
tp4617
sbaa(lp4618
g0
(g72
g2
Ntp4619
Rp4620
(dp4621
g76
I9
sg77
I11
sg14
(I4
I4
I4
I4
tp4622
sbaa(lp4623
g0
(g72
g2
Ntp4624
Rp4625
(dp4626
g76
I10
sg77
I11
sg14
(I4
I4
I4
I4
tp4627
sbaa(lp4628
g0
(g72
g2
Ntp4629
Rp4630
(dp4631
g76
I11
sg77
I11
sg14
(I4
I4
I4
I4
tp4632
sbaaa(lp4633
(lp4634
a(lp4635
a(lp4636
a(lp4637
g0
(g72
g2
Ntp4638
Rp4639
(dp4640
g76
I3
sg77
I12
sg14
(I0
I1
I2
I4
tp4641
sbaa(lp4642
g0
(g72
g2
Ntp4643
Rp4644
(dp4645
g76
I4
sg77
I12
sg14
(I2
I4
I2
I4
tp4646
sbaa(lp4647
g0
(g72
g2
Ntp4648
Rp4649
(dp4650
g76
I5
sg77
I12
sg14
(I2
I4
I2
I4
tp4651
sbaa(lp4652
g0
(g72
g2
Ntp4653
Rp4654
(dp4655
g76
I6
sg77
I12
sg14
(I2
I4
I2
I4
tp4656
sbaa(lp4657
g0
(g72
g2
Ntp4658
Rp4659
(dp4660
g76
I7
sg77
I12
sg14
(I2
I4
I2
I4
tp4661
sbaa(lp4662
g0
(g72
g2
Ntp4663
Rp4664
(dp4665
g76
I8
sg77
I12
sg14
(I3
I4
I4
I4
tp4666
sbaa(lp4667
g0
(g72
g2
Ntp4668
Rp4669
(dp4670
g76
I9
sg77
I12
sg14
(I4
I4
I4
I4
tp4671
sbaa(lp4672
g0
(g72
g2
Ntp4673
Rp4674
(dp4675
g76
I10
sg77
I12
sg14
(I4
I4
I4
I4
tp4676
sbaa(lp4677
g0
(g72
g2
Ntp4678
Rp4679
(dp4680
g76
I11
sg77
I12
sg14
(I4
I4
I4
I4
tp4681
sbaaa(lp4682
(lp4683
a(lp4684
g0
(g1477
g2
Ntp4685
Rp4686
(dp4687
g76
I1
sg77
I13
sg114
I2
sbaa(lp4688
a(lp4689
g0
(g72
g2
Ntp4690
Rp4691
(dp4692
g76
I3
sg77
I13
sg14
(I1
I1
I4
I4
tp4693
sbaa(lp4694
g0
(g72
g2
Ntp4695
Rp4696
(dp4697
g76
I4
sg77
I13
sg14
(I4
I4
I4
I4
tp4698
sbaa(lp4699
g0
(g72
g2
Ntp4700
Rp4701
(dp4702
g76
I5
sg77
I13
sg14
(I4
I4
I4
I4
tp4703
sbaa(lp4704
g0
(g72
g2
Ntp4705
Rp4706
(dp4707
g76
I6
sg77
I13
sg14
(I4
I4
I4
I4
tp4708
sbaa(lp4709
g0
(g72
g2
Ntp4710
Rp4711
(dp4712
g76
I7
sg77
I13
sg14
(I4
I4
I4
I4
tp4713
sbaa(lp4714
g0
(g72
g2
Ntp4715
Rp4716
(dp4717
g76
I8
sg77
I13
sg14
(I4
I4
I4
I4
tp4718
sbaa(lp4719
g0
(g72
g2
Ntp4720
Rp4721
(dp4722
g76
I9
sg77
I13
sg14
(I4
I4
I4
I4
tp4723
sbaa(lp4724
g0
(g72
g2
Ntp4725
Rp4726
(dp4727
g76
I10
sg77
I13
sg14
(I4
I4
I4
I4
tp4728
sbaa(lp4729
g0
(g72
g2
Ntp4730
Rp4731
(dp4732
g76
I11
sg77
I13
sg14
(I4
I4
I4
I4
tp4733
sbaaa(lp4734
(lp4735
a(lp4736
a(lp4737
a(lp4738
g0
(g72
g2
Ntp4739
Rp4740
(dp4741
g76
I3
sg77
I14
sg14
(I1
I1
I4
I4
tp4742
sbaa(lp4743
g0
(g72
g2
Ntp4744
Rp4745
(dp4746
g76
I4
sg77
I14
sg14
(I4
I4
I4
I4
tp4747
sbaa(lp4748
g0
(g72
g2
Ntp4749
Rp4750
(dp4751
g76
I5
sg77
I14
sg14
(I4
I4
I4
I4
tp4752
sbaa(lp4753
g0
(g72
g2
Ntp4754
Rp4755
(dp4756
g76
I6
sg77
I14
sg14
(I4
I4
I4
I4
tp4757
sbaa(lp4758
g0
(g72
g2
Ntp4759
Rp4760
(dp4761
g76
I7
sg77
I14
sg14
(I4
I4
I4
I4
tp4762
sbaa(lp4763
g0
(g72
g2
Ntp4764
Rp4765
(dp4766
g76
I8
sg77
I14
sg14
(I4
I4
I4
I4
tp4767
sbaa(lp4768
g0
(g72
g2
Ntp4769
Rp4770
(dp4771
g76
I9
sg77
I14
sg14
(I4
I4
I4
I4
tp4772
sbaa(lp4773
g0
(g72
g2
Ntp4774
Rp4775
(dp4776
g76
I10
sg77
I14
sg14
(I4
I4
I4
I4
tp4777
sbaa(lp4778
g0
(g72
g2
Ntp4779
Rp4780
(dp4781
g76
I11
sg77
I14
sg14
(I4
I4
I4
I4
tp4782
sbaaasg544
I3
sbsg16
(lp4783
I0
aI00
aI0
aI01
asg18
I00
sbaNaNaNaNaNag0
(g10
g2
Ntp4784
Rp4785
(dp4786
g18
I00
sg16
(lp4787
I0
aI01
aI0
aI00
asg14
(I1
I1
I1
I1
tp4788
sbaNaa(lp4789
Nag0
(g10
g2
Ntp4790
Rp4791
(dp4792
g14
(I0
I1
I2
I3
tp4793
sg16
(lp4794
I0
aI00
aI00
aI0
asg18
I00
sbag0
(g10
g2
Ntp4795
Rp4796
(dp4797
g14
(I2
I2
I2
I2
tp4798
sg16
(lp4799
I00
aI0
aI00
aI0
asg18
I00
sbag0
(g52
g2
Ntp4800
Rp4801
(dp4802
g56
S'confusing'
p4803
sg14
(I3
I3
I1
I1
tp4804
sg59
g0
(g60
g2
Ntp4805
Rp4806
(dp4807
g64
I12
sg65
I12
sg66
I64
sg67
I4
sg68
(lp4808
(lp4809
(lp4810
a(lp4811
a(lp4812
a(lp4813
g0
(cTiles
CloudBlock
p4814
g2
Ntp4815
Rp4816
(dp4817
g76
I3
sg77
I0
sg109
g0
(g608
g2
Ntp4818
Rp4819
(dp4820
g115
(lp4821
g0
(g4814
g2
Ntp4822
Rp4823
(dp4824
g76
I1
sg77
I3
sg109
g4819
sg14
(I1
I0
I4
I2
tp4825
sbag0
(g4814
g2
Ntp4826
Rp4827
(dp4828
g76
I1
sg77
I2
sg109
g4819
sg14
(I0
I1
I2
I4
tp4829
sbag0
(g4814
g2
Ntp4830
Rp4831
(dp4832
g76
I2
sg77
I2
sg109
g4819
sg14
(I3
I4
I4
I4
tp4833
sbag0
(g4814
g2
Ntp4834
Rp4835
(dp4836
g76
I2
sg77
I1
sg109
g4819
sg14
(I0
I1
I2
I4
tp4837
sbag0
(g4814
g2
Ntp4838
Rp4839
(dp4840
g76
I3
sg77
I1
sg109
g4819
sg14
(I3
I4
I4
I4
tp4841
sbag4816
ag0
(g4814
g2
Ntp4842
Rp4843
(dp4844
g76
I4
sg77
I0
sg109
g4819
sg14
(I2
I4
I0
I1
tp4845
sbag0
(g4814
g2
Ntp4846
Rp4847
(dp4848
g76
I4
sg77
I1
sg109
g4819
sg14
(I4
I4
I1
I1
tp4849
sbag0
(g4814
g2
Ntp4850
Rp4851
(dp4852
g76
I4
sg77
I2
sg109
g4819
sg14
(I4
I2
I1
I0
tp4853
sbag0
(g4814
g2
Ntp4854
Rp4855
(dp4856
g76
I3
sg77
I3
sg109
g4819
sg14
(I4
I2
I1
I0
tp4857
sbag0
(g4814
g2
Ntp4858
Rp4859
(dp4860
g76
I2
sg77
I3
sg109
g4819
sg14
(I4
I2
I4
I2
tp4861
sbag0
(g4814
g2
Ntp4862
Rp4863
(dp4864
g76
I3
sg77
I2
sg109
g4819
sg14
(I4
I4
I4
I3
tp4865
sbasbsg14
(I0
I1
I2
I4
tp4866
sbaa(lp4867
g4843
aa(lp4868
a(lp4869
a(lp4870
a(lp4871
a(lp4872
g0
(g105
g2
Ntp4873
Rp4874
(dp4875
g109
g0
(g110
g2
Ntp4876
Rp4877
(dp4878
g114
I0
sg115
(lp4879
g4874
ag0
(g105
g2
Ntp4880
Rp4881
(dp4882
g109
g4877
sg120
g4877
sg121
I1
sg76
I9
sg77
I1
sg122
I3
sbag0
(g105
g2
Ntp4883
Rp4884
(dp4885
g109
g4877
sg120
g4877
sg121
I1
sg76
I9
sg77
I2
sg122
I3
sbag0
(g105
g2
Ntp4886
Rp4887
(dp4888
g109
g4877
sg120
g4877
sg121
I1
sg76
I9
sg77
I3
sg122
I3
sbag0
(g126
g2
Ntp4889
Rp4890
(dp4891
g76
I9
sg77
I4
sg109
g4877
sg120
g4877
sg130
I1
sbasbsg120
g4877
sg121
I1
sg76
I9
sg77
I0
sg122
Nsbaa(lp4892
g0
(g72
g2
Ntp4893
Rp4894
(dp4895
g76
I10
sg77
I0
sg14
(I1
I1
I4
I4
tp4896
sbaa(lp4897
g0
(g72
g2
Ntp4898
Rp4899
(dp4900
g76
I11
sg77
I0
sg14
(I4
I4
I4
I4
tp4901
sbaaa(lp4902
(lp4903
a(lp4904
a(lp4905
g4835
aa(lp4906
g4839
aa(lp4907
g4847
aa(lp4908
a(lp4909
a(lp4910
a(lp4911
a(lp4912
g4881
aa(lp4913
g0
(g72
g2
Ntp4914
Rp4915
(dp4916
g76
I10
sg77
I1
sg14
(I1
I1
I4
I4
tp4917
sbaa(lp4918
g0
(g72
g2
Ntp4919
Rp4920
(dp4921
g76
I11
sg77
I1
sg14
(I4
I4
I4
I4
tp4922
sbaaa(lp4923
(lp4924
a(lp4925
g4827
aa(lp4926
g4831
aa(lp4927
g4863
aa(lp4928
g4851
aa(lp4929
a(lp4930
a(lp4931
a(lp4932
a(lp4933
g4884
aa(lp4934
g0
(g72
g2
Ntp4935
Rp4936
(dp4937
g76
I10
sg77
I2
sg14
(I1
I1
I4
I4
tp4938
sbaa(lp4939
g0
(g72
g2
Ntp4940
Rp4941
(dp4942
g76
I11
sg77
I2
sg14
(I4
I4
I4
I4
tp4943
sbaaa(lp4944
(lp4945
a(lp4946
g4823
aa(lp4947
g4859
aa(lp4948
g4855
aa(lp4949
a(lp4950
a(lp4951
g0
(g4814
g2
Ntp4952
Rp4953
(dp4954
g76
I6
sg77
I3
sg109
g0
(g608
g2
Ntp4955
Rp4956
(dp4957
g115
(lp4958
g0
(g4814
g2
Ntp4959
Rp4960
(dp4961
g76
I5
sg77
I5
sg109
g4956
sg14
(I0
I0
I2
I2
tp4962
sbag0
(g4814
g2
Ntp4963
Rp4964
(dp4965
g76
I6
sg77
I5
sg109
g4956
sg14
(I3
I3
I4
I3
tp4966
sbag0
(g4814
g2
Ntp4967
Rp4968
(dp4969
g76
I6
sg77
I4
sg109
g4956
sg14
(I1
I1
I4
I4
tp4970
sbag4953
ag0
(g4814
g2
Ntp4971
Rp4972
(dp4973
g76
I7
sg77
I3
sg109
g4956
sg14
(I2
I4
I0
I1
tp4974
sbag0
(g4814
g2
Ntp4975
Rp4976
(dp4977
g76
I7
sg77
I4
sg109
g4956
sg14
(I4
I4
I1
I1
tp4978
sbag0
(g4814
g2
Ntp4979
Rp4980
(dp4981
g76
I7
sg77
I5
sg109
g4956
sg14
(I4
I2
I1
I0
tp4982
sbag0
(g4814
g2
Ntp4983
Rp4984
(dp4985
g76
I6
sg77
I6
sg109
g4956
sg14
(I1
I0
I1
I0
tp4986
sbasbsg14
(I0
I1
I2
I4
tp4987
sbaa(lp4988
g4972
aa(lp4989
a(lp4990
g4887
aa(lp4991
g0
(g72
g2
Ntp4992
Rp4993
(dp4994
g76
I10
sg77
I3
sg14
(I1
I1
I4
I4
tp4995
sbaa(lp4996
g0
(g72
g2
Ntp4997
Rp4998
(dp4999
g76
I11
sg77
I3
sg14
(I4
I4
I4
I4
tp5000
sbaaa(lp5001
(lp5002
a(lp5003
a(lp5004
a(lp5005
a(lp5006
a(lp5007
a(lp5008
g4968
aa(lp5009
g4976
aa(lp5010
a(lp5011
g4890
aa(lp5012
g0
(g72
g2
Ntp5013
Rp5014
(dp5015
g76
I10
sg77
I4
sg14
(I1
I1
I4
I4
tp5016
sbaa(lp5017
g0
(g72
g2
Ntp5018
Rp5019
(dp5020
g76
I11
sg77
I4
sg14
(I4
I4
I4
I4
tp5021
sbaaa(lp5022
(lp5023
a(lp5024
a(lp5025
a(lp5026
a(lp5027
a(lp5028
g4960
aa(lp5029
g4964
aa(lp5030
g4980
aa(lp5031
a(lp5032
a(lp5033
g0
(g72
g2
Ntp5034
Rp5035
(dp5036
g76
I10
sg77
I5
sg14
(I1
I1
I4
I4
tp5037
sbaa(lp5038
g0
(g72
g2
Ntp5039
Rp5040
(dp5041
g76
I11
sg77
I5
sg14
(I4
I4
I4
I4
tp5042
sbaaa(lp5043
(lp5044
a(lp5045
a(lp5046
g0
(g4814
g2
Ntp5047
Rp5048
(dp5049
g76
I2
sg77
I6
sg109
g0
(g608
g2
Ntp5050
Rp5051
(dp5052
g115
(lp5053
g0
(g4814
g2
Ntp5054
Rp5055
(dp5056
g76
I2
sg77
I7
sg109
g5051
sg14
(I1
I1
I4
I4
tp5057
sbag5048
ag0
(g4814
g2
Ntp5058
Rp5059
(dp5060
g76
I3
sg77
I6
sg109
g5051
sg14
(I2
I4
I0
I1
tp5061
sbag0
(g4814
g2
Ntp5062
Rp5063
(dp5064
g76
I3
sg77
I7
sg109
g5051
sg14
(I4
I4
I1
I1
tp5065
sbag0
(g4814
g2
Ntp5066
Rp5067
(dp5068
g76
I3
sg77
I8
sg109
g5051
sg14
(I4
I4
I1
I1
tp5069
sbag0
(g4814
g2
Ntp5070
Rp5071
(dp5072
g76
I3
sg77
I9
sg109
g5051
sg14
(I4
I2
I1
I0
tp5073
sbag0
(g4814
g2
Ntp5074
Rp5075
(dp5076
g76
I2
sg77
I9
sg109
g5051
sg14
(I1
I0
I4
I2
tp5077
sbag0
(g4814
g2
Ntp5078
Rp5079
(dp5080
g76
I2
sg77
I8
sg109
g5051
sg14
(I1
I1
I4
I4
tp5081
sbasbsg14
(I0
I1
I2
I4
tp5082
sbaa(lp5083
g5059
aa(lp5084
g0
(g126
g2
Ntp5085
Rp5086
(dp5087
g76
I4
sg77
I6
sg109
g0
(g110
g2
Ntp5088
Rp5089
(dp5090
g114
I2
sg115
(lp5091
g0
(g105
g2
Ntp5092
Rp5093
(dp5094
g109
g5089
sg120
g5089
sg121
I3
sg76
I4
sg77
I9
sg122
Nsbag0
(g105
g2
Ntp5095
Rp5096
(dp5097
g109
g5089
sg120
g5089
sg121
I3
sg76
I4
sg77
I8
sg122
I1
sbag0
(g105
g2
Ntp5098
Rp5099
(dp5100
g109
g5089
sg120
g5089
sg121
I3
sg76
I4
sg77
I7
sg122
I1
sbag5086
asS'grav'
p5101
I-1
sbsg120
g5089
sg130
I3
sbaa(lp5102
a(lp5103
g4984
aa(lp5104
a(lp5105
a(lp5106
a(lp5107
g0
(g72
g2
Ntp5108
Rp5109
(dp5110
g76
I10
sg77
I6
sg14
(I1
I1
I4
I4
tp5111
sbaa(lp5112
g0
(g72
g2
Ntp5113
Rp5114
(dp5115
g76
I11
sg77
I6
sg14
(I4
I4
I4
I4
tp5116
sbaaa(lp5117
(lp5118
a(lp5119
a(lp5120
g5055
aa(lp5121
g5063
aa(lp5122
g5099
aa(lp5123
a(lp5124
a(lp5125
a(lp5126
a(lp5127
a(lp5128
g0
(g72
g2
Ntp5129
Rp5130
(dp5131
g76
I10
sg77
I7
sg14
(I1
I1
I4
I4
tp5132
sbaa(lp5133
g0
(g72
g2
Ntp5134
Rp5135
(dp5136
g76
I11
sg77
I7
sg14
(I4
I4
I4
I4
tp5137
sbaaa(lp5138
(lp5139
a(lp5140
g0
(g524
g2
Ntp5141
Rp5142
(dp5143
g76
I1
sg77
I8
sg212
I01
sbaa(lp5144
g5079
aa(lp5145
g5067
aa(lp5146
g5096
aa(lp5147
a(lp5148
a(lp5149
a(lp5150
a(lp5151
a(lp5152
g0
(g72
g2
Ntp5153
Rp5154
(dp5155
g76
I10
sg77
I8
sg14
(I1
I1
I4
I4
tp5156
sbaa(lp5157
g0
(g72
g2
Ntp5158
Rp5159
(dp5160
g76
I11
sg77
I8
sg14
(I4
I4
I4
I4
tp5161
sbaaa(lp5162
(lp5163
a(lp5164
a(lp5165
g5075
aa(lp5166
g5071
aa(lp5167
g5093
aa(lp5168
a(lp5169
g0
(g72
g2
Ntp5170
Rp5171
(dp5172
g76
I6
sg77
I9
sg14
(I0
I1
I2
I3
tp5173
sbaa(lp5174
g0
(g72
g2
Ntp5175
Rp5176
(dp5177
g76
I7
sg77
I9
sg14
(I2
I2
I2
I2
tp5178
sbaa(lp5179
g0
(g72
g2
Ntp5180
Rp5181
(dp5182
g76
I8
sg77
I9
sg14
(I2
I2
I0
I0
tp5183
sbaa(lp5184
a(lp5185
g0
(g72
g2
Ntp5186
Rp5187
(dp5188
g76
I10
sg77
I9
sg14
(I1
I1
I4
I4
tp5189
sbaa(lp5190
g0
(g72
g2
Ntp5191
Rp5192
(dp5193
g76
I11
sg77
I9
sg14
(I4
I4
I4
I4
tp5194
sbaaa(lp5195
(lp5196
a(lp5197
a(lp5198
a(lp5199
a(lp5200
a(lp5201
a(lp5202
g0
(g72
g2
Ntp5203
Rp5204
(dp5205
g76
I6
sg77
I10
sg14
(I1
I1
I1
I1
tp5206
sbaa(lp5207
g0
(g1477
g2
Ntp5208
Rp5209
(dp5210
g76
I7
sg77
I10
sg114
I1
sbaa(lp5211
a(lp5212
a(lp5213
g0
(g72
g2
Ntp5214
Rp5215
(dp5216
g76
I10
sg77
I10
sg14
(I1
I1
I4
I4
tp5217
sbaa(lp5218
g0
(g72
g2
Ntp5219
Rp5220
(dp5221
g76
I11
sg77
I10
sg14
(I4
I4
I4
I4
tp5222
sbaaa(lp5223
(lp5224
a(lp5225
a(lp5226
a(lp5227
a(lp5228
a(lp5229
a(lp5230
g0
(g72
g2
Ntp5231
Rp5232
(dp5233
g76
I6
sg77
I11
sg14
(I1
I1
I1
I1
tp5234
sbaa(lp5235
a(lp5236
a(lp5237
a(lp5238
g0
(g72
g2
Ntp5239
Rp5240
(dp5241
g76
I10
sg77
I11
sg14
(I1
I1
I4
I4
tp5242
sbaa(lp5243
g0
(g72
g2
Ntp5244
Rp5245
(dp5246
g76
I11
sg77
I11
sg14
(I4
I4
I4
I4
tp5247
sbaaasg544
I3
sbsg16
(lp5248
I00
aI00
aI0
aI00
asg18
I00
sbaNag0
(g10
g2
Ntp5249
Rp5250
(dp5251
g14
(I1
I1
I1
I1
tp5252
sg16
(lp5253
I0
aI00
aI0
aI00
asg18
I00
sbaNag0
(g52
g2
Ntp5254
Rp5255
(dp5256
g56
S'superstacker2'
p5257
sg14
(I0
I1
I0
I1
tp5258
sg59
g0
(g60
g2
Ntp5259
Rp5260
(dp5261
g64
I12
sg65
I12
sg66
I64
sg67
I4
sg68
(lp5262
(lp5263
(lp5264
a(lp5265
a(lp5266
a(lp5267
a(lp5268
a(lp5269
a(lp5270
a(lp5271
a(lp5272
g0
(g105
g2
Ntp5273
Rp5274
(dp5275
g109
g0
(g110
g2
Ntp5276
Rp5277
(dp5278
g114
I1
sg115
(lp5279
g5274
ag0
(g105
g2
Ntp5280
Rp5281
(dp5282
g109
g5277
sg120
g5277
sg121
I1
sg76
I8
sg77
I1
sg122
I3
sbag0
(g126
g2
Ntp5283
Rp5284
(dp5285
g76
I8
sg77
I2
sg109
g5277
sg120
g5277
sg130
I1
sbasbsg120
g5277
sg121
I1
sg76
I8
sg77
I0
sg122
Nsbaa(lp5286
g0
(g105
g2
Ntp5287
Rp5288
(dp5289
g109
g0
(g110
g2
Ntp5290
Rp5291
(dp5292
g114
I0
sg115
(lp5293
g5288
ag0
(g105
g2
Ntp5294
Rp5295
(dp5296
g109
g5291
sg120
g5291
sg121
I1
sg76
I9
sg77
I1
sg122
I3
sbag0
(g105
g2
Ntp5297
Rp5298
(dp5299
g109
g5291
sg120
g5291
sg121
I1
sg76
I9
sg77
I2
sg122
I3
sbag0
(g126
g2
Ntp5300
Rp5301
(dp5302
g76
I9
sg77
I3
sg109
g5291
sg120
g5291
sg130
I1
sbasbsg120
g5291
sg121
I1
sg76
I9
sg77
I0
sg122
Nsbaa(lp5303
g0
(g72
g2
Ntp5304
Rp5305
(dp5306
g76
I10
sg77
I0
sg14
(I1
I1
I4
I4
tp5307
sbaa(lp5308
g0
(g72
g2
Ntp5309
Rp5310
(dp5311
g76
I11
sg77
I0
sg14
(I4
I4
I4
I4
tp5312
sbaaa(lp5313
(lp5314
a(lp5315
a(lp5316
a(lp5317
a(lp5318
g0
(g1241
g2
Ntp5319
Rp5320
(dp5321
g76
I4
sg77
I1
sg109
g0
(g1245
g2
Ntp5322
Rp5323
(dp5324
g114
I2
sg115
(lp5325
g0
(g1241
g2
Ntp5326
Rp5327
(dp5328
g76
I6
sg77
I2
sg109
g5323
sg14
(I2
I2
I0
I0
tp5329
sbag0
(g1241
g2
Ntp5330
Rp5331
(dp5332
g76
I5
sg77
I2
sg109
g5323
sg14
(I2
I2
I2
I2
tp5333
sbag0
(g1241
g2
Ntp5334
Rp5335
(dp5336
g76
I4
sg77
I2
sg109
g5323
sg14
(I1
I0
I3
I2
tp5337
sbag5320
asbsg14
(I0
I1
I0
I1
tp5338
sbaa(lp5339
g0
(g1241
g2
Ntp5340
Rp5341
(dp5342
g76
I5
sg77
I1
sg109
g0
(g1245
g2
Ntp5343
Rp5344
(dp5345
g114
I0
sg115
(lp5346
g0
(g1241
g2
Ntp5347
Rp5348
(dp5349
g76
I7
sg77
I1
sg109
g5344
sg14
(I2
I2
I0
I0
tp5350
sbag0
(g1241
g2
Ntp5351
Rp5352
(dp5353
g76
I6
sg77
I1
sg109
g5344
sg14
(I2
I2
I2
I2
tp5354
sbag5341
asbsg14
(I0
I0
I2
I2
tp5355
sbaa(lp5356
g5352
aa(lp5357
g5348
aa(lp5358
g5281
aa(lp5359
g5295
aa(lp5360
g0
(g72
g2
Ntp5361
Rp5362
(dp5363
g76
I10
sg77
I1
sg14
(I1
I1
I4
I4
tp5364
sbaa(lp5365
g0
(g72
g2
Ntp5366
Rp5367
(dp5368
g76
I11
sg77
I1
sg14
(I4
I4
I4
I4
tp5369
sbaaa(lp5370
(lp5371
a(lp5372
a(lp5373
a(lp5374
a(lp5375
g5335
aa(lp5376
g5331
aa(lp5377
g5327
aa(lp5378
g0
(g1241
g2
Ntp5379
Rp5380
(dp5381
g76
I7
sg77
I2
sg109
g0
(g1245
g2
Ntp5382
Rp5383
(dp5384
g114
I1
sg115
(lp5385
g5380
ag0
(g1241
g2
Ntp5386
Rp5387
(dp5388
g76
I7
sg77
I3
sg109
g5383
sg14
(I3
I2
I1
I0
tp5389
sbag0
(g1241
g2
Ntp5390
Rp5391
(dp5392
g76
I6
sg77
I3
sg109
g5383
sg14
(I0
I0
I2
I2
tp5393
sbasbsg14
(I0
I1
I0
I1
tp5394
sbaa(lp5395
g5284
aa(lp5396
g5298
aa(lp5397
g0
(g72
g2
Ntp5398
Rp5399
(dp5400
g76
I10
sg77
I2
sg14
(I1
I1
I4
I4
tp5401
sbaa(lp5402
g0
(g72
g2
Ntp5403
Rp5404
(dp5405
g76
I11
sg77
I2
sg14
(I4
I4
I4
I4
tp5406
sbaaa(lp5407
(lp5408
a(lp5409
a(lp5410
a(lp5411
a(lp5412
a(lp5413
a(lp5414
g5391
aa(lp5415
g5387
aa(lp5416
a(lp5417
g5301
aa(lp5418
g0
(g72
g2
Ntp5419
Rp5420
(dp5421
g76
I10
sg77
I3
sg14
(I1
I1
I4
I4
tp5422
sbaa(lp5423
g0
(g72
g2
Ntp5424
Rp5425
(dp5426
g76
I11
sg77
I3
sg14
(I4
I4
I4
I4
tp5427
sbaaa(lp5428
(lp5429
a(lp5430
a(lp5431
a(lp5432
a(lp5433
a(lp5434
a(lp5435
a(lp5436
a(lp5437
a(lp5438
a(lp5439
g0
(g72
g2
Ntp5440
Rp5441
(dp5442
g76
I10
sg77
I4
sg14
(I1
I1
I4
I4
tp5443
sbaa(lp5444
g0
(g72
g2
Ntp5445
Rp5446
(dp5447
g76
I11
sg77
I4
sg14
(I4
I4
I4
I4
tp5448
sbaaa(lp5449
(lp5450
a(lp5451
a(lp5452
a(lp5453
a(lp5454
a(lp5455
a(lp5456
a(lp5457
a(lp5458
a(lp5459
a(lp5460
g0
(g72
g2
Ntp5461
Rp5462
(dp5463
g76
I10
sg77
I5
sg14
(I1
I1
I4
I4
tp5464
sbaa(lp5465
g0
(g72
g2
Ntp5466
Rp5467
(dp5468
g76
I11
sg77
I5
sg14
(I4
I4
I4
I4
tp5469
sbaaa(lp5470
(lp5471
a(lp5472
a(lp5473
a(lp5474
a(lp5475
a(lp5476
a(lp5477
a(lp5478
a(lp5479
a(lp5480
a(lp5481
g0
(g72
g2
Ntp5482
Rp5483
(dp5484
g76
I10
sg77
I6
sg14
(I1
I1
I4
I4
tp5485
sbaa(lp5486
g0
(g72
g2
Ntp5487
Rp5488
(dp5489
g76
I11
sg77
I6
sg14
(I4
I4
I4
I4
tp5490
sbaaa(lp5491
(lp5492
a(lp5493
a(lp5494
a(lp5495
a(lp5496
a(lp5497
a(lp5498
a(lp5499
a(lp5500
a(lp5501
a(lp5502
g0
(g72
g2
Ntp5503
Rp5504
(dp5505
g76
I10
sg77
I7
sg14
(I1
I1
I4
I4
tp5506
sbaa(lp5507
g0
(g72
g2
Ntp5508
Rp5509
(dp5510
g76
I11
sg77
I7
sg14
(I4
I4
I4
I4
tp5511
sbaaa(lp5512
(lp5513
a(lp5514
a(lp5515
a(lp5516
a(lp5517
a(lp5518
a(lp5519
a(lp5520
a(lp5521
a(lp5522
a(lp5523
g0
(g72
g2
Ntp5524
Rp5525
(dp5526
g76
I10
sg77
I8
sg14
(I1
I1
I4
I4
tp5527
sbaa(lp5528
g0
(g72
g2
Ntp5529
Rp5530
(dp5531
g76
I11
sg77
I8
sg14
(I4
I4
I4
I4
tp5532
sbaaa(lp5533
(lp5534
a(lp5535
a(lp5536
a(lp5537
a(lp5538
a(lp5539
a(lp5540
a(lp5541
a(lp5542
a(lp5543
a(lp5544
g0
(g72
g2
Ntp5545
Rp5546
(dp5547
g76
I10
sg77
I9
sg14
(I1
I1
I4
I4
tp5548
sbaa(lp5549
g0
(g72
g2
Ntp5550
Rp5551
(dp5552
g76
I11
sg77
I9
sg14
(I4
I4
I4
I4
tp5553
sbaaa(lp5554
(lp5555
a(lp5556
a(lp5557
g0
(g72
g2
Ntp5558
Rp5559
(dp5560
g76
I2
sg77
I10
sg14
(I0
I1
I2
I4
tp5561
sbaa(lp5562
g0
(g72
g2
Ntp5563
Rp5564
(dp5565
g76
I3
sg77
I10
sg14
(I2
I4
I2
I4
tp5566
sbaa(lp5567
g0
(g72
g2
Ntp5568
Rp5569
(dp5570
g76
I4
sg77
I10
sg14
(I2
I4
I2
I4
tp5571
sbaa(lp5572
g0
(g72
g2
Ntp5573
Rp5574
(dp5575
g76
I5
sg77
I10
sg14
(I2
I4
I2
I4
tp5576
sbaa(lp5577
g0
(g72
g2
Ntp5578
Rp5579
(dp5580
g76
I6
sg77
I10
sg14
(I2
I4
I2
I4
tp5581
sbaa(lp5582
g0
(g72
g2
Ntp5583
Rp5584
(dp5585
g76
I7
sg77
I10
sg14
(I2
I4
I2
I4
tp5586
sbaa(lp5587
g0
(g72
g2
Ntp5588
Rp5589
(dp5590
g76
I8
sg77
I10
sg14
(I2
I4
I2
I4
tp5591
sbaa(lp5592
g0
(g72
g2
Ntp5593
Rp5594
(dp5595
g76
I9
sg77
I10
sg14
(I2
I4
I2
I4
tp5596
sbaa(lp5597
g0
(g72
g2
Ntp5598
Rp5599
(dp5600
g76
I10
sg77
I10
sg14
(I3
I4
I4
I4
tp5601
sbaa(lp5602
g0
(g72
g2
Ntp5603
Rp5604
(dp5605
g76
I11
sg77
I10
sg14
(I4
I4
I4
I4
tp5606
sbaaa(lp5607
(lp5608
g0
(g524
g2
Ntp5609
Rp5610
(dp5611
g76
I0
sg77
I11
sg212
I01
sbaa(lp5612
g0
(g72
g2
Ntp5613
Rp5614
(dp5615
g76
I1
sg77
I11
sg14
(I0
I1
I2
I4
tp5616
sbaa(lp5617
g0
(g72
g2
Ntp5618
Rp5619
(dp5620
g76
I2
sg77
I11
sg14
(I3
I4
I4
I4
tp5621
sbaa(lp5622
g0
(g72
g2
Ntp5623
Rp5624
(dp5625
g76
I3
sg77
I11
sg14
(I4
I4
I4
I4
tp5626
sbaa(lp5627
g0
(g72
g2
Ntp5628
Rp5629
(dp5630
g76
I4
sg77
I11
sg14
(I4
I4
I4
I4
tp5631
sbaa(lp5632
g0
(g72
g2
Ntp5633
Rp5634
(dp5635
g76
I5
sg77
I11
sg14
(I4
I4
I4
I4
tp5636
sbaa(lp5637
g0
(g72
g2
Ntp5638
Rp5639
(dp5640
g76
I6
sg77
I11
sg14
(I4
I4
I4
I4
tp5641
sbaa(lp5642
g0
(g72
g2
Ntp5643
Rp5644
(dp5645
g76
I7
sg77
I11
sg14
(I4
I4
I4
I4
tp5646
sbaa(lp5647
g0
(g72
g2
Ntp5648
Rp5649
(dp5650
g76
I8
sg77
I11
sg14
(I4
I4
I4
I4
tp5651
sbaa(lp5652
g0
(g72
g2
Ntp5653
Rp5654
(dp5655
g76
I9
sg77
I11
sg14
(I4
I4
I4
I4
tp5656
sbaa(lp5657
g0
(g72
g2
Ntp5658
Rp5659
(dp5660
g76
I10
sg77
I11
sg14
(I4
I4
I4
I4
tp5661
sbaa(lp5662
g0
(g72
g2
Ntp5663
Rp5664
(dp5665
g76
I11
sg77
I11
sg14
(I4
I4
I4
I4
tp5666
sbaaasg544
I3
sbsg16
(lp5667
I0
aI00
aI0
aI0
asg18
I00
sbaNaNaNag0
(g10
g2
Ntp5668
Rp5669
(dp5670
g18
I01
sg14
(I1
I1
I1
I1
tp5671
sbaNaa(lp5672
Nag0
(g52
g2
Ntp5673
Rp5674
(dp5675
g56
S'twoplay'
p5676
sg14
(I1
I0
I1
I0
tp5677
sg59
g0
(g60
g2
Ntp5678
Rp5679
(dp5680
g64
I12
sg65
I12
sg66
I64
sg67
I4
sg68
(lp5681
(lp5682
(lp5683
a(lp5684
a(lp5685
a(lp5686
a(lp5687
a(lp5688
a(lp5689
a(lp5690
a(lp5691
a(lp5692
a(lp5693
a(lp5694
aa(lp5695
(lp5696
a(lp5697
a(lp5698
a(lp5699
a(lp5700
a(lp5701
a(lp5702
a(lp5703
a(lp5704
a(lp5705
a(lp5706
a(lp5707
aa(lp5708
(lp5709
a(lp5710
a(lp5711
a(lp5712
a(lp5713
a(lp5714
a(lp5715
a(lp5716
a(lp5717
a(lp5718
a(lp5719
a(lp5720
aa(lp5721
(lp5722
a(lp5723
a(lp5724
g0
(g1477
g2
Ntp5725
Rp5726
(dp5727
g76
I2
sg77
I3
sg114
I1
sbaa(lp5728
a(lp5729
a(lp5730
a(lp5731
a(lp5732
a(lp5733
a(lp5734
a(lp5735
a(lp5736
aa(lp5737
(lp5738
a(lp5739
a(lp5740
a(lp5741
a(lp5742
a(lp5743
a(lp5744
g0
(g105
g2
Ntp5745
Rp5746
(dp5747
g109
g0
(g110
g2
Ntp5748
Rp5749
(dp5750
g114
I3
sg115
(lp5751
g5746
ag0
(g126
g2
Ntp5752
Rp5753
(dp5754
g76
I6
sg77
I5
sg109
g5749
sg120
g5749
sg130
I1
sbasbsg120
g5749
sg121
I1
sg76
I6
sg77
I4
sg122
Nsbaa(lp5755
g0
(g126
g2
Ntp5756
Rp5757
(dp5758
g76
I7
sg77
I4
sg109
g0
(g110
g2
Ntp5759
Rp5760
(dp5761
g114
I0
sg115
(lp5762
g0
(g105
g2
Ntp5763
Rp5764
(dp5765
g109
g5760
sg120
g5760
sg121
I3
sg76
I7
sg77
I5
sg122
Nsbag5757
asg5101
I-1
sbsg120
g5760
sg130
I3
sbaa(lp5766
a(lp5767
a(lp5768
a(lp5769
aa(lp5770
(lp5771
a(lp5772
a(lp5773
a(lp5774
a(lp5775
a(lp5776
a(lp5777
g5753
aa(lp5778
g5764
aa(lp5779
a(lp5780
a(lp5781
a(lp5782
aa(lp5783
(lp5784
a(lp5785
a(lp5786
a(lp5787
a(lp5788
a(lp5789
a(lp5790
a(lp5791
a(lp5792
a(lp5793
a(lp5794
a(lp5795
aa(lp5796
(lp5797
a(lp5798
a(lp5799
a(lp5800
a(lp5801
a(lp5802
a(lp5803
a(lp5804
a(lp5805
a(lp5806
a(lp5807
a(lp5808
aa(lp5809
(lp5810
a(lp5811
a(lp5812
a(lp5813
a(lp5814
a(lp5815
a(lp5816
a(lp5817
a(lp5818
a(lp5819
a(lp5820
g0
(g1477
g2
Ntp5821
Rp5822
(dp5823
g76
I10
sg77
I8
sg114
I2
sbaa(lp5824
aa(lp5825
(lp5826
a(lp5827
a(lp5828
g0
(g524
g2
Ntp5829
Rp5830
(dp5831
g76
I2
sg77
I9
sg212
I01
sbaa(lp5832
a(lp5833
a(lp5834
a(lp5835
a(lp5836
a(lp5837
a(lp5838
a(lp5839
a(lp5840
aa(lp5841
(lp5842
a(lp5843
a(lp5844
a(lp5845
a(lp5846
a(lp5847
a(lp5848
a(lp5849
a(lp5850
a(lp5851
a(lp5852
a(lp5853
aa(lp5854
(lp5855
a(lp5856
a(lp5857
a(lp5858
a(lp5859
a(lp5860
a(lp5861
a(lp5862
a(lp5863
a(lp5864
a(lp5865
a(lp5866
aasg544
I3
sbsg16
(lp5867
I0
aI0
aI0
aI00
asg18
I00
sbaNag0
(g10
g2
Ntp5868
Rp5869
(dp5870
g14
(I1
I0
I3
I2
tp5871
sg16
(lp5872
I0
aI0
aI00
aI00
asg18
I00
sbag0
(g10
g2
Ntp5873
Rp5874
(dp5875
g14
(I2
I2
I2
I2
tp5876
sg16
(lp5877
I00
aI0
aI00
aI0
asg18
I00
sbag0
(g52
g2
Ntp5878
Rp5879
(dp5880
g56
S'superstacker'
p5881
sg14
(I3
I2
I3
I2
tp5882
sg59
g0
(g60
g2
Ntp5883
Rp5884
(dp5885
g64
I12
sg65
I12
sg66
I64
sg67
I4
sg68
(lp5886
(lp5887
(lp5888
a(lp5889
a(lp5890
a(lp5891
a(lp5892
a(lp5893
a(lp5894
a(lp5895
a(lp5896
a(lp5897
a(lp5898
g0
(g72
g2
Ntp5899
Rp5900
(dp5901
g76
I10
sg77
I0
sg14
(I0
I1
I2
I4
tp5902
sbaa(lp5903
g0
(g72
g2
Ntp5904
Rp5905
(dp5906
g76
I11
sg77
I0
sg14
(I2
I4
I0
I1
tp5907
sbaaa(lp5908
(lp5909
a(lp5910
a(lp5911
a(lp5912
a(lp5913
a(lp5914
g0
(g1241
g2
Ntp5915
Rp5916
(dp5917
g76
I5
sg77
I1
sg109
g0
(g1245
g2
Ntp5918
Rp5919
(dp5920
g114
I8
sg115
(lp5921
g0
(g1241
g2
Ntp5922
Rp5923
(dp5924
g76
I7
sg77
I2
sg109
g5919
sg14
(I1
I0
I1
I0
tp5925
sbag0
(g1241
g2
Ntp5926
Rp5927
(dp5928
g76
I7
sg77
I1
sg109
g5919
sg14
(I2
I3
I0
I1
tp5929
sbag0
(g1241
g2
Ntp5930
Rp5931
(dp5932
g76
I6
sg77
I1
sg109
g5919
sg14
(I2
I2
I2
I2
tp5933
sbag5916
asbsg14
(I0
I0
I2
I2
tp5934
sbaa(lp5935
g5931
aa(lp5936
g5927
aa(lp5937
g0
(g1241
g2
Ntp5938
Rp5939
(dp5940
g76
I8
sg77
I1
sg109
g0
(g1245
g2
Ntp5941
Rp5942
(dp5943
g114
I3
sg115
(lp5944
g0
(g1241
g2
Ntp5945
Rp5946
(dp5947
g76
I9
sg77
I1
sg109
g5942
sg14
(I2
I4
I0
I1
tp5948
sbag5939
ag0
(g1241
g2
Ntp5949
Rp5950
(dp5951
g76
I8
sg77
I2
sg109
g5942
sg14
(I1
I0
I4
I2
tp5952
sbag0
(g1241
g2
Ntp5953
Rp5954
(dp5955
g76
I9
sg77
I2
sg109
g5942
sg14
(I4
I2
I1
I0
tp5956
sbasbsg14
(I0
I1
I2
I4
tp5957
sbaa(lp5958
g5946
aa(lp5959
g0
(g72
g2
Ntp5960
Rp5961
(dp5962
g76
I10
sg77
I1
sg14
(I1
I1
I4
I4
tp5963
sbaa(lp5964
g0
(g72
g2
Ntp5965
Rp5966
(dp5967
g76
I11
sg77
I1
sg14
(I4
I4
I1
I1
tp5968
sbaaa(lp5969
(lp5970
a(lp5971
a(lp5972
a(lp5973
a(lp5974
a(lp5975
a(lp5976
a(lp5977
g5923
aa(lp5978
g5950
aa(lp5979
g5954
aa(lp5980
g0
(g72
g2
Ntp5981
Rp5982
(dp5983
g76
I10
sg77
I2
sg14
(I1
I1
I4
I4
tp5984
sbaa(lp5985
g0
(g72
g2
Ntp5986
Rp5987
(dp5988
g76
I11
sg77
I2
sg14
(I4
I4
I1
I1
tp5989
sbaaa(lp5990
(lp5991
a(lp5992
a(lp5993
a(lp5994
a(lp5995
a(lp5996
a(lp5997
a(lp5998
a(lp5999
a(lp6000
a(lp6001
g0
(g72
g2
Ntp6002
Rp6003
(dp6004
g76
I10
sg77
I3
sg14
(I1
I1
I4
I4
tp6005
sbaa(lp6006
g0
(g72
g2
Ntp6007
Rp6008
(dp6009
g76
I11
sg77
I3
sg14
(I4
I4
I1
I1
tp6010
sbaaa(lp6011
(lp6012
a(lp6013
a(lp6014
a(lp6015
a(lp6016
a(lp6017
a(lp6018
g0
(g126
g2
Ntp6019
Rp6020
(dp6021
g76
I6
sg77
I4
sg109
g0
(g110
g2
Ntp6022
Rp6023
(dp6024
g114
I0
sg115
(lp6025
g0
(g105
g2
Ntp6026
Rp6027
(dp6028
g109
g6023
sg120
g6023
sg121
I0
sg76
I9
sg77
I4
sg122
Nsbag0
(g105
g2
Ntp6029
Rp6030
(dp6031
g109
g6023
sg120
g6023
sg121
I0
sg76
I8
sg77
I4
sg122
I2
sbag0
(g105
g2
Ntp6032
Rp6033
(dp6034
g109
g6023
sg120
g6023
sg121
I0
sg76
I7
sg77
I4
sg122
I2
sbag6020
asbsg120
g6023
sg130
I0
sbaa(lp6035
g6033
aa(lp6036
g6030
aa(lp6037
g6027
aa(lp6038
g0
(g72
g2
Ntp6039
Rp6040
(dp6041
g76
I10
sg77
I4
sg14
(I1
I1
I4
I4
tp6042
sbaa(lp6043
g0
(g72
g2
Ntp6044
Rp6045
(dp6046
g76
I11
sg77
I4
sg14
(I4
I4
I1
I1
tp6047
sbaaa(lp6048
(lp6049
a(lp6050
a(lp6051
a(lp6052
a(lp6053
a(lp6054
a(lp6055
a(lp6056
a(lp6057
a(lp6058
a(lp6059
g0
(g72
g2
Ntp6060
Rp6061
(dp6062
g76
I10
sg77
I5
sg14
(I1
I1
I4
I4
tp6063
sbaa(lp6064
g0
(g72
g2
Ntp6065
Rp6066
(dp6067
g76
I11
sg77
I5
sg14
(I4
I4
I1
I1
tp6068
sbaaa(lp6069
(lp6070
a(lp6071
a(lp6072
a(lp6073
a(lp6074
a(lp6075
a(lp6076
a(lp6077
a(lp6078
a(lp6079
a(lp6080
g0
(g72
g2
Ntp6081
Rp6082
(dp6083
g76
I10
sg77
I6
sg14
(I1
I1
I4
I4
tp6084
sbaa(lp6085
g0
(g72
g2
Ntp6086
Rp6087
(dp6088
g76
I11
sg77
I6
sg14
(I4
I4
I1
I1
tp6089
sbaaa(lp6090
(lp6091
a(lp6092
a(lp6093
a(lp6094
a(lp6095
a(lp6096
a(lp6097
a(lp6098
a(lp6099
a(lp6100
a(lp6101
g0
(g72
g2
Ntp6102
Rp6103
(dp6104
g76
I10
sg77
I7
sg14
(I1
I1
I4
I4
tp6105
sbaa(lp6106
g0
(g72
g2
Ntp6107
Rp6108
(dp6109
g76
I11
sg77
I7
sg14
(I4
I4
I1
I1
tp6110
sbaaa(lp6111
(lp6112
a(lp6113
a(lp6114
a(lp6115
g0
(g72
g2
Ntp6116
Rp6117
(dp6118
g76
I3
sg77
I8
sg14
(I0
I1
I2
I4
tp6119
sbaa(lp6120
g0
(g72
g2
Ntp6121
Rp6122
(dp6123
g76
I4
sg77
I8
sg14
(I2
I4
I2
I4
tp6124
sbaa(lp6125
g0
(g72
g2
Ntp6126
Rp6127
(dp6128
g76
I5
sg77
I8
sg14
(I2
I4
I2
I4
tp6129
sbaa(lp6130
g0
(g72
g2
Ntp6131
Rp6132
(dp6133
g76
I6
sg77
I8
sg14
(I2
I4
I2
I4
tp6134
sbaa(lp6135
g0
(g72
g2
Ntp6136
Rp6137
(dp6138
g76
I7
sg77
I8
sg14
(I2
I4
I2
I4
tp6139
sbaa(lp6140
g0
(g72
g2
Ntp6141
Rp6142
(dp6143
g76
I8
sg77
I8
sg14
(I2
I4
I2
I4
tp6144
sbaa(lp6145
g0
(g72
g2
Ntp6146
Rp6147
(dp6148
g76
I9
sg77
I8
sg14
(I2
I4
I2
I4
tp6149
sbaa(lp6150
g0
(g72
g2
Ntp6151
Rp6152
(dp6153
g76
I10
sg77
I8
sg14
(I3
I4
I4
I4
tp6154
sbaa(lp6155
g0
(g72
g2
Ntp6156
Rp6157
(dp6158
g76
I11
sg77
I8
sg14
(I4
I4
I1
I1
tp6159
sbaaa(lp6160
(lp6161
a(lp6162
a(lp6163
g0
(g72
g2
Ntp6164
Rp6165
(dp6166
g76
I2
sg77
I9
sg14
(I0
I1
I2
I4
tp6167
sbaa(lp6168
g0
(g72
g2
Ntp6169
Rp6170
(dp6171
g76
I3
sg77
I9
sg14
(I3
I4
I4
I4
tp6172
sbaa(lp6173
g0
(g72
g2
Ntp6174
Rp6175
(dp6176
g76
I4
sg77
I9
sg14
(I4
I4
I4
I4
tp6177
sbaa(lp6178
g0
(g72
g2
Ntp6179
Rp6180
(dp6181
g76
I5
sg77
I9
sg14
(I4
I4
I4
I4
tp6182
sbaa(lp6183
g0
(g72
g2
Ntp6184
Rp6185
(dp6186
g76
I6
sg77
I9
sg14
(I4
I4
I4
I4
tp6187
sbaa(lp6188
g0
(g72
g2
Ntp6189
Rp6190
(dp6191
g76
I7
sg77
I9
sg14
(I4
I4
I4
I4
tp6192
sbaa(lp6193
g0
(g72
g2
Ntp6194
Rp6195
(dp6196
g76
I8
sg77
I9
sg14
(I4
I4
I4
I4
tp6197
sbaa(lp6198
g0
(g72
g2
Ntp6199
Rp6200
(dp6201
g76
I9
sg77
I9
sg14
(I4
I4
I4
I4
tp6202
sbaa(lp6203
g0
(g72
g2
Ntp6204
Rp6205
(dp6206
g76
I10
sg77
I9
sg14
(I4
I4
I4
I4
tp6207
sbaa(lp6208
g0
(g72
g2
Ntp6209
Rp6210
(dp6211
g76
I11
sg77
I9
sg14
(I4
I4
I1
I1
tp6212
sbaaa(lp6213
(lp6214
a(lp6215
g0
(g524
g2
Ntp6216
Rp6217
(dp6218
g76
I1
sg77
I10
sg212
I01
sbaa(lp6219
g0
(g72
g2
Ntp6220
Rp6221
(dp6222
g76
I2
sg77
I10
sg14
(I1
I1
I4
I4
tp6223
sbaa(lp6224
g0
(g72
g2
Ntp6225
Rp6226
(dp6227
g76
I3
sg77
I10
sg14
(I4
I4
I4
I4
tp6228
sbaa(lp6229
g0
(g72
g2
Ntp6230
Rp6231
(dp6232
g76
I4
sg77
I10
sg14
(I4
I4
I4
I4
tp6233
sbaa(lp6234
g0
(g72
g2
Ntp6235
Rp6236
(dp6237
g76
I5
sg77
I10
sg14
(I4
I4
I4
I4
tp6238
sbaa(lp6239
g0
(g72
g2
Ntp6240
Rp6241
(dp6242
g76
I6
sg77
I10
sg14
(I4
I4
I4
I4
tp6243
sbaa(lp6244
g0
(g72
g2
Ntp6245
Rp6246
(dp6247
g76
I7
sg77
I10
sg14
(I4
I4
I4
I4
tp6248
sbaa(lp6249
g0
(g72
g2
Ntp6250
Rp6251
(dp6252
g76
I8
sg77
I10
sg14
(I4
I4
I4
I4
tp6253
sbaa(lp6254
g0
(g72
g2
Ntp6255
Rp6256
(dp6257
g76
I9
sg77
I10
sg14
(I4
I4
I4
I4
tp6258
sbaa(lp6259
g0
(g72
g2
Ntp6260
Rp6261
(dp6262
g76
I10
sg77
I10
sg14
(I4
I4
I4
I4
tp6263
sbaa(lp6264
g0
(g72
g2
Ntp6265
Rp6266
(dp6267
g76
I11
sg77
I10
sg14
(I4
I4
I1
I1
tp6268
sbaaa(lp6269
(lp6270
a(lp6271
a(lp6272
g0
(g72
g2
Ntp6273
Rp6274
(dp6275
g76
I2
sg77
I11
sg14
(I1
I0
I4
I2
tp6276
sbaa(lp6277
g0
(g72
g2
Ntp6278
Rp6279
(dp6280
g76
I3
sg77
I11
sg14
(I4
I2
I4
I2
tp6281
sbaa(lp6282
g0
(g72
g2
Ntp6283
Rp6284
(dp6285
g76
I4
sg77
I11
sg14
(I4
I2
I4
I2
tp6286
sbaa(lp6287
g0
(g72
g2
Ntp6288
Rp6289
(dp6290
g76
I5
sg77
I11
sg14
(I4
I2
I4
I2
tp6291
sbaa(lp6292
g0
(g72
g2
Ntp6293
Rp6294
(dp6295
g76
I6
sg77
I11
sg14
(I4
I2
I4
I2
tp6296
sbaa(lp6297
g0
(g72
g2
Ntp6298
Rp6299
(dp6300
g76
I7
sg77
I11
sg14
(I4
I2
I4
I2
tp6301
sbaa(lp6302
g0
(g72
g2
Ntp6303
Rp6304
(dp6305
g76
I8
sg77
I11
sg14
(I4
I2
I4
I2
tp6306
sbaa(lp6307
g0
(g72
g2
Ntp6308
Rp6309
(dp6310
g76
I9
sg77
I11
sg14
(I4
I2
I4
I2
tp6311
sbaa(lp6312
g0
(g72
g2
Ntp6313
Rp6314
(dp6315
g76
I10
sg77
I11
sg14
(I4
I2
I4
I2
tp6316
sbaa(lp6317
g0
(g72
g2
Ntp6318
Rp6319
(dp6320
g76
I11
sg77
I11
sg14
(I4
I2
I1
I0
tp6321
sbaaasg544
I3
sbsg16
(lp6322
I00
aI0
aI00
aI00
asg18
I00
sbag0
(g10
g2
Ntp6323
Rp6324
(dp6325
g14
(I2
I2
I2
I2
tp6326
sg16
(lp6327
I00
aI0
aI00
aI0
asg18
I00
sbag0
(g10
g2
Ntp6328
Rp6329
(dp6330
g14
(I3
I2
I1
I0
tp6331
sg16
(lp6332
I00
aI0
aI0
aI00
asg18
I00
sbaNaNaNag0
(g10
g2
Ntp6333
Rp6334
(dp6335
g18
I00
sg16
(lp6336
I0
aI00
aI0
aI01
asg14
(I1
I1
I1
I1
tp6337
sbaNaa(lp6338
NaNaNaNaNaNaNaNaNaNaNag0
(g52
g2
Ntp6339
Rp6340
(dp6341
g56
S'crevasse'
p6342
sg18
I00
sg59
g0
(g60
g2
Ntp6343
Rp6344
(dp6345
g785
g786
sg64
I12
sg65
I12
sg66
I64
sg67
I4
sg68
(lp6346
(lp6347
(lp6348
a(lp6349
a(lp6350
a(lp6351
a(lp6352
a(lp6353
a(lp6354
g0
(g794
g2
Ntp6355
Rp6356
(dp6357
g76
I6
sg77
I0
sg14
(I1
I0
I4
I2
tp6358
sbaa(lp6359
g0
(g794
g2
Ntp6360
Rp6361
(dp6362
g76
I7
sg77
I0
sg14
(I4
I3
I4
I4
tp6363
sbaa(lp6364
g0
(g794
g2
Ntp6365
Rp6366
(dp6367
g76
I8
sg77
I0
sg14
(I4
I4
I4
I4
tp6368
sbaa(lp6369
g0
(g794
g2
Ntp6370
Rp6371
(dp6372
g76
I9
sg77
I0
sg14
(I4
I4
I4
I4
tp6373
sbaa(lp6374
g0
(g794
g2
Ntp6375
Rp6376
(dp6377
g76
I10
sg77
I0
sg14
(I4
I4
I4
I4
tp6378
sbaa(lp6379
g0
(g794
g2
Ntp6380
Rp6381
(dp6382
g76
I11
sg77
I0
sg14
(I4
I4
I4
I4
tp6383
sbaaa(lp6384
(lp6385
a(lp6386
a(lp6387
a(lp6388
a(lp6389
a(lp6390
g0
(g4134
g2
Ntp6391
Rp6392
(dp6393
g76
I5
sg77
I1
sg109
g0
(g4138
g2
Ntp6394
Rp6395
(dp6396
g114
I0
sg115
(lp6397
g0
(g4143
g2
Ntp6398
Rp6399
(dp6400
g212
I8
sg109
g6395
sg120
g6395
sg121
I3
sg76
I6
sg77
I2
sg122
Nsbag0
(g4143
g2
Ntp6401
Rp6402
(dp6403
g212
I3
sg109
g6395
sg120
g6395
sg121
I0
sg76
I6
sg77
I1
sg122
I1
sbag6392
asbsg120
g6395
sg130
I0
sbaa(lp6404
g6402
aa(lp6405
g0
(g794
g2
Ntp6406
Rp6407
(dp6408
g76
I7
sg77
I1
sg14
(I1
I1
I4
I4
tp6409
sbaa(lp6410
g0
(g794
g2
Ntp6411
Rp6412
(dp6413
g76
I8
sg77
I1
sg14
(I4
I4
I4
I4
tp6414
sbaa(lp6415
g0
(g794
g2
Ntp6416
Rp6417
(dp6418
g76
I9
sg77
I1
sg14
(I4
I4
I4
I4
tp6419
sbaa(lp6420
g0
(g794
g2
Ntp6421
Rp6422
(dp6423
g76
I10
sg77
I1
sg14
(I4
I4
I4
I4
tp6424
sbaa(lp6425
g0
(g794
g2
Ntp6426
Rp6427
(dp6428
g76
I11
sg77
I1
sg14
(I4
I4
I4
I4
tp6429
sbaaa(lp6430
(lp6431
a(lp6432
a(lp6433
a(lp6434
a(lp6435
a(lp6436
a(lp6437
g6399
aa(lp6438
g0
(g794
g2
Ntp6439
Rp6440
(dp6441
g76
I7
sg77
I2
sg14
(I1
I1
I4
I4
tp6442
sbaa(lp6443
g0
(g794
g2
Ntp6444
Rp6445
(dp6446
g76
I8
sg77
I2
sg14
(I4
I4
I4
I4
tp6447
sbaa(lp6448
g0
(g794
g2
Ntp6449
Rp6450
(dp6451
g76
I9
sg77
I2
sg14
(I4
I4
I4
I4
tp6452
sbaa(lp6453
g0
(g794
g2
Ntp6454
Rp6455
(dp6456
g76
I10
sg77
I2
sg14
(I4
I4
I4
I4
tp6457
sbaa(lp6458
g0
(g794
g2
Ntp6459
Rp6460
(dp6461
g76
I11
sg77
I2
sg14
(I4
I4
I4
I4
tp6462
sbaaa(lp6463
(lp6464
a(lp6465
a(lp6466
a(lp6467
a(lp6468
a(lp6469
g0
(g818
g2
Ntp6470
Rp6471
(dp6472
g76
I5
sg77
I3
sg109
g0
(g608
g2
Ntp6473
Rp6474
(dp6475
g115
(lp6476
g6471
asbsbaa(lp6477
g0
(g794
g2
Ntp6478
Rp6479
(dp6480
g76
I6
sg77
I3
sg14
(I0
I1
I2
I4
tp6481
sbaa(lp6482
g0
(g794
g2
Ntp6483
Rp6484
(dp6485
g76
I7
sg77
I3
sg14
(I3
I4
I4
I4
tp6486
sbaa(lp6487
g0
(g794
g2
Ntp6488
Rp6489
(dp6490
g76
I8
sg77
I3
sg14
(I4
I4
I4
I3
tp6491
sbaa(lp6492
g0
(g794
g2
Ntp6493
Rp6494
(dp6495
g76
I9
sg77
I3
sg14
(I4
I2
I4
I2
tp6496
sbaa(lp6497
g0
(g794
g2
Ntp6498
Rp6499
(dp6500
g76
I10
sg77
I3
sg14
(I4
I2
I4
I2
tp6501
sbaa(lp6502
g0
(g794
g2
Ntp6503
Rp6504
(dp6505
g76
I11
sg77
I3
sg14
(I4
I2
I4
I2
tp6506
sbaaa(lp6507
(lp6508
a(lp6509
a(lp6510
a(lp6511
a(lp6512
a(lp6513
a(lp6514
g0
(g794
g2
Ntp6515
Rp6516
(dp6517
g76
I6
sg77
I4
sg14
(I1
I0
I4
I2
tp6518
sbaa(lp6519
g0
(g794
g2
Ntp6520
Rp6521
(dp6522
g76
I7
sg77
I4
sg14
(I4
I2
I4
I2
tp6523
sbaa(lp6524
g0
(g794
g2
Ntp6525
Rp6526
(dp6527
g76
I8
sg77
I4
sg14
(I4
I2
I1
I0
tp6528
sbaa(lp6529
a(lp6530
a(lp6531
aa(lp6532
(lp6533
a(lp6534
a(lp6535
a(lp6536
a(lp6537
a(lp6538
a(lp6539
a(lp6540
a(lp6541
a(lp6542
a(lp6543
a(lp6544
aa(lp6545
(lp6546
a(lp6547
a(lp6548
a(lp6549
a(lp6550
a(lp6551
a(lp6552
a(lp6553
a(lp6554
a(lp6555
a(lp6556
a(lp6557
aa(lp6558
(lp6559
a(lp6560
a(lp6561
a(lp6562
a(lp6563
a(lp6564
a(lp6565
a(lp6566
a(lp6567
a(lp6568
a(lp6569
a(lp6570
aa(lp6571
(lp6572
a(lp6573
a(lp6574
g0
(g794
g2
Ntp6575
Rp6576
(dp6577
g76
I2
sg77
I8
sg14
(I0
I1
I2
I3
tp6578
sbaa(lp6579
g0
(g794
g2
Ntp6580
Rp6581
(dp6582
g76
I3
sg77
I8
sg14
(I2
I2
I0
I0
tp6583
sbaa(lp6584
a(lp6585
a(lp6586
g0
(g794
g2
Ntp6587
Rp6588
(dp6589
g76
I6
sg77
I8
sg14
(I0
I1
I2
I4
tp6590
sbaa(lp6591
g0
(g794
g2
Ntp6592
Rp6593
(dp6594
g76
I7
sg77
I8
sg14
(I2
I4
I2
I4
tp6595
sbaa(lp6596
g0
(g794
g2
Ntp6597
Rp6598
(dp6599
g76
I8
sg77
I8
sg14
(I2
I4
I2
I4
tp6600
sbaa(lp6601
g0
(g794
g2
Ntp6602
Rp6603
(dp6604
g76
I9
sg77
I8
sg14
(I2
I4
I0
I1
tp6605
sbaa(lp6606
a(lp6607
aa(lp6608
(lp6609
g0
(g604
g2
Ntp6610
Rp6611
(dp6612
g76
I0
sg77
I9
sg109
g0
(g608
g2
Ntp6613
Rp6614
(dp6615
g115
(lp6616
g6611
asbsbaa(lp6617
g0
(g794
g2
Ntp6618
Rp6619
(dp6620
g76
I1
sg77
I9
sg14
(I0
I1
I2
I4
tp6621
sbaa(lp6622
g0
(g794
g2
Ntp6623
Rp6624
(dp6625
g76
I2
sg77
I9
sg14
(I3
I4
I1
I1
tp6626
sbaa(lp6627
a(lp6628
a(lp6629
a(lp6630
g0
(g794
g2
Ntp6631
Rp6632
(dp6633
g76
I6
sg77
I9
sg14
(I1
I1
I4
I4
tp6634
sbaa(lp6635
g0
(g794
g2
Ntp6636
Rp6637
(dp6638
g76
I7
sg77
I9
sg14
(I4
I4
I4
I4
tp6639
sbaa(lp6640
g0
(g794
g2
Ntp6641
Rp6642
(dp6643
g76
I8
sg77
I9
sg14
(I4
I4
I4
I4
tp6644
sbaa(lp6645
g0
(g794
g2
Ntp6646
Rp6647
(dp6648
g76
I9
sg77
I9
sg14
(I4
I4
I3
I4
tp6649
sbaa(lp6650
g0
(g794
g2
Ntp6651
Rp6652
(dp6653
g76
I10
sg77
I9
sg14
(I2
I4
I0
I1
tp6654
sbaa(lp6655
aa(lp6656
(lp6657
g0
(g794
g2
Ntp6658
Rp6659
(dp6660
g76
I0
sg77
I10
sg14
(I2
I4
I2
I4
tp6661
sbaa(lp6662
g0
(g794
g2
Ntp6663
Rp6664
(dp6665
g76
I1
sg77
I10
sg14
(I3
I4
I4
I4
tp6666
sbaa(lp6667
g0
(g794
g2
Ntp6668
Rp6669
(dp6670
g76
I2
sg77
I10
sg14
(I4
I4
I1
I1
tp6671
sbaa(lp6672
a(lp6673
g0
(g524
g2
Ntp6674
Rp6675
(dp6676
g76
I4
sg77
I10
sg212
I01
sbaa(lp6677
a(lp6678
g0
(g794
g2
Ntp6679
Rp6680
(dp6681
g76
I6
sg77
I10
sg14
(I1
I1
I4
I4
tp6682
sbaa(lp6683
g0
(g794
g2
Ntp6684
Rp6685
(dp6686
g76
I7
sg77
I10
sg14
(I4
I4
I4
I4
tp6687
sbaa(lp6688
g0
(g794
g2
Ntp6689
Rp6690
(dp6691
g76
I8
sg77
I10
sg14
(I4
I4
I4
I4
tp6692
sbaa(lp6693
g0
(g794
g2
Ntp6694
Rp6695
(dp6696
g76
I9
sg77
I10
sg14
(I4
I4
I4
I4
tp6697
sbaa(lp6698
g0
(g794
g2
Ntp6699
Rp6700
(dp6701
g76
I10
sg77
I10
sg14
(I4
I4
I1
I1
tp6702
sbaa(lp6703
aa(lp6704
(lp6705
g0
(g794
g2
Ntp6706
Rp6707
(dp6708
g76
I0
sg77
I11
sg14
(I4
I4
I4
I4
tp6709
sbaa(lp6710
g0
(g794
g2
Ntp6711
Rp6712
(dp6713
g76
I1
sg77
I11
sg14
(I4
I4
I4
I4
tp6714
sbaa(lp6715
g0
(g794
g2
Ntp6716
Rp6717
(dp6718
g76
I2
sg77
I11
sg14
(I4
I4
I1
I1
tp6719
sbaa(lp6720
a(lp6721
a(lp6722
a(lp6723
g0
(g794
g2
Ntp6724
Rp6725
(dp6726
g76
I6
sg77
I11
sg14
(I1
I1
I4
I4
tp6727
sbaa(lp6728
g0
(g794
g2
Ntp6729
Rp6730
(dp6731
g76
I7
sg77
I11
sg14
(I4
I4
I4
I4
tp6732
sbaa(lp6733
g0
(g794
g2
Ntp6734
Rp6735
(dp6736
g76
I8
sg77
I11
sg14
(I4
I4
I4
I4
tp6737
sbaa(lp6738
g0
(g794
g2
Ntp6739
Rp6740
(dp6741
g76
I9
sg77
I11
sg14
(I4
I4
I4
I4
tp6742
sbaa(lp6743
g0
(g794
g2
Ntp6744
Rp6745
(dp6746
g76
I10
sg77
I11
sg14
(I4
I4
I3
I4
tp6747
sbaa(lp6748
g0
(g794
g2
Ntp6749
Rp6750
(dp6751
g76
I11
sg77
I11
sg14
(I2
I4
I2
I4
tp6752
sbaaasg544
I3
sbsg16
(lp6753
I0
aI0
aI0
aI00
asg14
(I1
I0
I1
I0
tp6754
sbaNaasg64
I13
sg65
I12
sg66
I64
sS'terrain'
p6755
(lp6756
(lp6757
NaNaNaNaNaNaNaNaNaNaNaNaNaa(lp6758
NaNag0
(cWMObjects
Dirt
p6759
g2
Ntp6760
Rp6761
(dp6762
g14
(I0
I1
I2
I4
tp6763
sbag0
(g6759
g2
Ntp6764
Rp6765
(dp6766
g14
(I2
I4
I2
I4
tp6767
sbag0
(g6759
g2
Ntp6768
Rp6769
(dp6770
g14
(I2
I4
I2
I4
tp6771
sbag0
(g6759
g2
Ntp6772
Rp6773
(dp6774
g14
(I2
I4
I2
I4
tp6775
sbag0
(g6759
g2
Ntp6776
Rp6777
(dp6778
g14
(I2
I4
I0
I1
tp6779
sbaNaNaNag0
(cWMObjects
Snow
p6780
g2
Ntp6781
Rp6782
(dp6783
g14
(I0
I1
I2
I4
tp6784
sbag0
(g6780
g2
Ntp6785
Rp6786
(dp6787
g14
(I2
I4
I0
I1
tp6788
sbaNaa(lp6789
Nag0
(g6759
g2
Ntp6790
Rp6791
(dp6792
g14
(I0
I1
I2
I4
tp6793
sbag0
(g6759
g2
Ntp6794
Rp6795
(dp6796
g14
(I3
I4
I4
I4
tp6797
sbag0
(g6759
g2
Ntp6798
Rp6799
(dp6800
g14
(I4
I4
I4
I4
tp6801
sbag0
(g6759
g2
Ntp6802
Rp6803
(dp6804
g14
(I4
I4
I4
I4
tp6805
sbag0
(g6759
g2
Ntp6806
Rp6807
(dp6808
g14
(I4
I4
I4
I4
tp6809
sbag0
(g6759
g2
Ntp6810
Rp6811
(dp6812
g14
(I4
I4
I3
I4
tp6813
sbag0
(g6759
g2
Ntp6814
Rp6815
(dp6816
g14
(I2
I4
I0
I1
tp6817
sbaNaNag0
(g6780
g2
Ntp6818
Rp6819
(dp6820
g14
(I1
I1
I4
I4
tp6821
sbag0
(g6780
g2
Ntp6822
Rp6823
(dp6824
g14
(I4
I4
I3
I4
tp6825
sbag0
(g6780
g2
Ntp6826
Rp6827
(dp6828
g14
(I2
I4
I2
I4
tp6829
sbaa(lp6830
Nag0
(g6759
g2
Ntp6831
Rp6832
(dp6833
g14
(I1
I1
I4
I4
tp6834
sbag0
(g6759
g2
Ntp6835
Rp6836
(dp6837
g14
(I4
I4
I4
I4
tp6838
sbag0
(g6759
g2
Ntp6839
Rp6840
(dp6841
g14
(I4
I4
I4
I4
tp6842
sbag0
(g6759
g2
Ntp6843
Rp6844
(dp6845
g14
(I4
I4
I4
I4
tp6846
sbag0
(g6759
g2
Ntp6847
Rp6848
(dp6849
g14
(I4
I4
I4
I4
tp6850
sbag0
(g6759
g2
Ntp6851
Rp6852
(dp6853
g14
(I4
I4
I4
I4
tp6854
sbag0
(g6759
g2
Ntp6855
Rp6856
(dp6857
g14
(I4
I4
I1
I1
tp6858
sbaNag0
(g6780
g2
Ntp6859
Rp6860
(dp6861
g14
(I0
I1
I2
I4
tp6862
sbag0
(g6780
g2
Ntp6863
Rp6864
(dp6865
g14
(I3
I4
I4
I4
tp6866
sbag0
(g6780
g2
Ntp6867
Rp6868
(dp6869
g14
(I4
I4
I4
I4
tp6870
sbag0
(g6780
g2
Ntp6871
Rp6872
(dp6873
g14
(I4
I4
I4
I4
tp6874
sbaa(lp6875
Nag0
(g6759
g2
Ntp6876
Rp6877
(dp6878
g14
(I1
I1
I4
I4
tp6879
sbag0
(g6759
g2
Ntp6880
Rp6881
(dp6882
g14
(I4
I4
I4
I4
tp6883
sbag0
(g6759
g2
Ntp6884
Rp6885
(dp6886
g14
(I4
I4
I4
I4
tp6887
sbag0
(g6759
g2
Ntp6888
Rp6889
(dp6890
g14
(I4
I4
I4
I4
tp6891
sbag0
(g6759
g2
Ntp6892
Rp6893
(dp6894
g14
(I4
I4
I4
I4
tp6895
sbag0
(g6759
g2
Ntp6896
Rp6897
(dp6898
g14
(I4
I4
I4
I4
tp6899
sbag0
(g6759
g2
Ntp6900
Rp6901
(dp6902
g14
(I4
I4
I1
I1
tp6903
sbaNag0
(g6780
g2
Ntp6904
Rp6905
(dp6906
g14
(I1
I1
I4
I4
tp6907
sbag0
(g6780
g2
Ntp6908
Rp6909
(dp6910
g14
(I4
I4
I4
I4
tp6911
sbag0
(g6780
g2
Ntp6912
Rp6913
(dp6914
g14
(I4
I4
I4
I3
tp6915
sbag0
(g6780
g2
Ntp6916
Rp6917
(dp6918
g14
(I4
I2
I4
I2
tp6919
sbaa(lp6920
Nag0
(g6759
g2
Ntp6921
Rp6922
(dp6923
g14
(I1
I1
I4
I4
tp6924
sbag0
(g6759
g2
Ntp6925
Rp6926
(dp6927
g14
(I4
I4
I4
I4
tp6928
sbag0
(g6759
g2
Ntp6929
Rp6930
(dp6931
g14
(I4
I4
I4
I4
tp6932
sbag0
(g6759
g2
Ntp6933
Rp6934
(dp6935
g14
(I4
I4
I4
I4
tp6936
sbag0
(g6759
g2
Ntp6937
Rp6938
(dp6939
g14
(I4
I4
I4
I4
tp6940
sbag0
(g6759
g2
Ntp6941
Rp6942
(dp6943
g14
(I4
I4
I4
I4
tp6944
sbag0
(g6759
g2
Ntp6945
Rp6946
(dp6947
g14
(I4
I4
I1
I1
tp6948
sbaNag0
(g6780
g2
Ntp6949
Rp6950
(dp6951
g14
(I1
I1
I4
I4
tp6952
sbag0
(g6780
g2
Ntp6953
Rp6954
(dp6955
g14
(I4
I4
I4
I4
tp6956
sbag0
(g6780
g2
Ntp6957
Rp6958
(dp6959
g14
(I4
I4
I1
I1
tp6960
sbaNaa(lp6961
Nag0
(g6759
g2
Ntp6962
Rp6963
(dp6964
g14
(I1
I0
I4
I2
tp6965
sbag0
(g6759
g2
Ntp6966
Rp6967
(dp6968
g14
(I4
I2
I4
I2
tp6969
sbag0
(g6759
g2
Ntp6970
Rp6971
(dp6972
g14
(I4
I2
I4
I2
tp6973
sbag0
(g6759
g2
Ntp6974
Rp6975
(dp6976
g14
(I4
I2
I4
I2
tp6977
sbag0
(g6759
g2
Ntp6978
Rp6979
(dp6980
g14
(I4
I2
I4
I2
tp6981
sbag0
(g6759
g2
Ntp6982
Rp6983
(dp6984
g14
(I4
I2
I4
I2
tp6985
sbag0
(g6759
g2
Ntp6986
Rp6987
(dp6988
g14
(I4
I2
I1
I0
tp6989
sbaNag0
(g6780
g2
Ntp6990
Rp6991
(dp6992
g14
(I1
I0
I4
I2
tp6993
sbag0
(g6780
g2
Ntp6994
Rp6995
(dp6996
g14
(I4
I3
I4
I4
tp6997
sbag0
(g6780
g2
Ntp6998
Rp6999
(dp7000
g14
(I4
I4
I1
I1
tp7001
sbaNaa(lp7002
NaNaNaNaNaNaNaNaNaNag0
(g6780
g2
Ntp7003
Rp7004
(dp7005
g14
(I1
I1
I4
I4
tp7006
sbag0
(g6780
g2
Ntp7007
Rp7008
(dp7009
g14
(I4
I4
I3
I4
tp7010
sbag0
(g6780
g2
Ntp7011
Rp7012
(dp7013
g14
(I2
I4
I2
I4
tp7014
sbaa(lp7015
Nag0
(g6759
g2
Ntp7016
Rp7017
(dp7018
g14
(I0
I1
I2
I4
tp7019
sbag0
(g6759
g2
Ntp7020
Rp7021
(dp7022
g14
(I2
I4
I2
I4
tp7023
sbag0
(g6759
g2
Ntp7024
Rp7025
(dp7026
g14
(I2
I4
I2
I4
tp7027
sbag0
(g6759
g2
Ntp7028
Rp7029
(dp7030
g14
(I2
I4
I2
I4
tp7031
sbag0
(g6759
g2
Ntp7032
Rp7033
(dp7034
g14
(I2
I4
I2
I4
tp7035
sbag0
(g6759
g2
Ntp7036
Rp7037
(dp7038
g14
(I2
I4
I2
I4
tp7039
sbag0
(g6759
g2
Ntp7040
Rp7041
(dp7042
g14
(I2
I4
I2
I4
tp7043
sbag0
(g6759
g2
Ntp7044
Rp7045
(dp7046
g14
(I2
I4
I0
I1
tp7047
sbaNag0
(g6780
g2
Ntp7048
Rp7049
(dp7050
g14
(I1
I0
I4
I2
tp7051
sbag0
(g6780
g2
Ntp7052
Rp7053
(dp7054
g14
(I4
I2
I4
I2
tp7055
sbag0
(g6780
g2
Ntp7056
Rp7057
(dp7058
g14
(I4
I2
I4
I2
tp7059
sbaa(lp7060
Nag0
(g6759
g2
Ntp7061
Rp7062
(dp7063
g14
(I1
I1
I4
I4
tp7064
sbag0
(g6759
g2
Ntp7065
Rp7066
(dp7067
g14
(I4
I4
I4
I4
tp7068
sbag0
(g6759
g2
Ntp7069
Rp7070
(dp7071
g14
(I4
I4
I4
I4
tp7072
sbag0
(g6759
g2
Ntp7073
Rp7074
(dp7075
g14
(I4
I4
I4
I4
tp7076
sbag0
(g6759
g2
Ntp7077
Rp7078
(dp7079
g14
(I4
I4
I4
I4
tp7080
sbag0
(g6759
g2
Ntp7081
Rp7082
(dp7083
g14
(I4
I4
I4
I4
tp7084
sbag0
(g6759
g2
Ntp7085
Rp7086
(dp7087
g14
(I4
I4
I4
I4
tp7088
sbag0
(g6759
g2
Ntp7089
Rp7090
(dp7091
g14
(I4
I4
I1
I1
tp7092
sbaNaNaNaNaa(lp7093
Nag0
(g6759
g2
Ntp7094
Rp7095
(dp7096
g14
(I1
I1
I4
I4
tp7097
sbag0
(g6759
g2
Ntp7098
Rp7099
(dp7100
g14
(I4
I4
I4
I4
tp7101
sbag0
(g6759
g2
Ntp7102
Rp7103
(dp7104
g14
(I4
I4
I4
I4
tp7105
sbag0
(g6759
g2
Ntp7106
Rp7107
(dp7108
g14
(I4
I4
I4
I4
tp7109
sbag0
(g6759
g2
Ntp7110
Rp7111
(dp7112
g14
(I4
I4
I4
I4
tp7113
sbag0
(g6759
g2
Ntp7114
Rp7115
(dp7116
g14
(I4
I4
I4
I4
tp7117
sbag0
(g6759
g2
Ntp7118
Rp7119
(dp7120
g14
(I4
I4
I4
I3
tp7121
sbag0
(g6759
g2
Ntp7122
Rp7123
(dp7124
g14
(I4
I2
I1
I0
tp7125
sbaNag0
(g6780
g2
Ntp7126
Rp7127
(dp7128
g14
(I0
I1
I2
I4
tp7129
sbag0
(g6780
g2
Ntp7130
Rp7131
(dp7132
g14
(I2
I4
I2
I4
tp7133
sbag0
(g6780
g2
Ntp7134
Rp7135
(dp7136
g14
(I2
I4
I2
I4
tp7137
sbaa(lp7138
Nag0
(g6759
g2
Ntp7139
Rp7140
(dp7141
g14
(I1
I1
I4
I4
tp7142
sbag0
(g6759
g2
Ntp7143
Rp7144
(dp7145
g14
(I4
I4
I4
I4
tp7146
sbag0
(g6759
g2
Ntp7147
Rp7148
(dp7149
g14
(I4
I4
I4
I4
tp7150
sbag0
(g6759
g2
Ntp7151
Rp7152
(dp7153
g14
(I4
I4
I4
I4
tp7154
sbag0
(g6759
g2
Ntp7155
Rp7156
(dp7157
g14
(I4
I4
I4
I4
tp7158
sbag0
(g6759
g2
Ntp7159
Rp7160
(dp7161
g14
(I4
I4
I4
I4
tp7162
sbag0
(g6759
g2
Ntp7163
Rp7164
(dp7165
g14
(I4
I4
I1
I1
tp7166
sbaNaNag0
(g6780
g2
Ntp7167
Rp7168
(dp7169
g14
(I1
I1
I4
I4
tp7170
sbag0
(g6780
g2
Ntp7171
Rp7172
(dp7173
g14
(I4
I4
I4
I4
tp7174
sbag0
(g6780
g2
Ntp7175
Rp7176
(dp7177
g14
(I4
I4
I4
I4
tp7178
sbaasg67
I4
sS'completed'
p7179
c__builtin__
set
p7180
((lp7181
tp7182
Rp7183
sg544
I3
sS'unodes'
p7184
(lp7185
sb.