ccopy_reg
_reconstructor
p0
(cWorldMap
WorldMap
p1
c__builtin__
object
p2
Ntp3
Rp4
(dp5
S'paths'
p6
(lp7
(lp8
NaNaNaNaNaNaNaNaNaNaNaNaNaNaa(lp9
NaNaNaNag0
(cWMObjects
Path
p10
g2
Ntp11
Rp12
(dp13
S'corners'
p14
(I0
I1
I2
I3
tp15
sS'bridgeends'
p16
(lp17
I0
aI00
aI00
aI0
asS'bridge'
p18
I00
sbag0
(g10
g2
Ntp19
Rp20
(dp21
g14
(I2
I2
I2
I2
tp22
sg16
(lp23
I00
aI0
aI00
aI0
asg18
I00
sbag0
(g10
g2
Ntp24
Rp25
(dp26
g14
(I2
I2
I2
I2
tp27
sg16
(lp28
I00
aI0
aI01
aI0
asg18
I00
sbag0
(g10
g2
Ntp29
Rp30
(dp31
g14
(I2
I2
I2
I2
tp32
sg18
I01
sbag0
(cWMObjects
Level
p33
g2
Ntp34
Rp35
(dp36
S'lname'
p37
S'oceanic'
p38
sg18
I01
sS'b'
p39
g0
(cBoard
Board
p40
g2
Ntp41
Rp42
(dp43
S'biome'
p44
cBiomes
Underwater
p45
sS'sy'
p46
I12
sS'sx'
p47
I12
sS'rscale'
p48
I64
sS'ascale'
p49
I4
sS't'
p50
(lp51
(lp52
(lp53
a(lp54
a(lp55
a(lp56
a(lp57
a(lp58
a(lp59
a(lp60
a(lp61
g0
(cTiles
Spikes
p62
g2
Ntp63
Rp64
(dp65
S'y'
p66
I8
sS'x'
p67
I0
sS'i'
p68
I2
sbaa(lp69
a(lp70
a(lp71
aa(lp72
(lp73
a(lp74
a(lp75
a(lp76
a(lp77
a(lp78
a(lp79
a(lp80
a(lp81
g0
(g62
g2
Ntp82
Rp83
(dp84
g66
I8
sg67
I1
sg68
I14
sbaa(lp85
g0
(cTiles
SeaBlock
p86
g2
Ntp87
Rp88
(dp89
g66
I9
sg67
I1
sg14
(I0
I1
I0
I1
tp90
sbaa(lp91
a(lp92
aa(lp93
(lp94
a(lp95
g0
(cSnake
SnakeHead
p96
g2
Ntp97
Rp98
(dp99
g66
I1
sg67
I2
sS'gshape'
p100
g0
(cSnake
Snake
p101
g2
Ntp102
Rp103
(dp104
S'iid'
p105
I1
sS'tiles'
p106
(lp107
g0
(cSnake
SnakeSeg
p108
g2
Ntp109
Rp110
(dp111
g68
I8
sg100
g103
sS'snake'
p112
g103
sS'fdir'
p113
I3
sg66
I0
sg67
I4
sS'bdir'
p114
Nsbag0
(g108
g2
Ntp115
Rp116
(dp117
g68
I6
sg100
g103
sg112
g103
sg113
I2
sg66
I0
sg67
I3
sg114
I1
sbag0
(g108
g2
Ntp118
Rp119
(dp120
g68
I9
sg100
g103
sg112
g103
sg113
I3
sg66
I1
sg67
I3
sg114
I0
sbag98
asbsg112
g103
sS'd'
p121
I3
sbaa(lp122
g0
(g86
g2
Ntp123
Rp124
(dp125
g66
I2
sg67
I2
sg14
(I0
I1
I2
I3
tp126
sbaa(lp127
g0
(g86
g2
Ntp128
Rp129
(dp130
g66
I3
sg67
I2
sg14
(I2
I2
I2
I2
tp131
sbaa(lp132
g0
(g86
g2
Ntp133
Rp134
(dp135
g66
I4
sg67
I2
sg14
(I2
I2
I0
I0
tp136
sbaa(lp137
a(lp138
g0
(g86
g2
Ntp139
Rp140
(dp141
g66
I6
sg67
I2
sg14
(I0
I1
I2
I4
tp142
sbaa(lp143
g0
(g86
g2
Ntp144
Rp145
(dp146
g66
I7
sg67
I2
sg14
(I2
I4
I2
I4
tp147
sbaa(lp148
g0
(g86
g2
Ntp149
Rp150
(dp151
g66
I8
sg67
I2
sg14
(I2
I4
I2
I4
tp152
sbaa(lp153
g0
(g86
g2
Ntp154
Rp155
(dp156
g66
I9
sg67
I2
sg14
(I3
I4
I1
I1
tp157
sbaa(lp158
a(lp159
aa(lp160
(lp161
g116
aa(lp162
g119
aa(lp163
g0
(g86
g2
Ntp164
Rp165
(dp166
g66
I2
sg67
I3
sg14
(I1
I1
I1
I1
tp167
sbaa(lp168
a(lp169
a(lp170
a(lp171
g0
(g86
g2
Ntp172
Rp173
(dp174
g66
I6
sg67
I3
sg14
(I1
I1
I4
I4
tp175
sbaa(lp176
g0
(g86
g2
Ntp177
Rp178
(dp179
g66
I7
sg67
I3
sg14
(I4
I4
I4
I4
tp180
sbaa(lp181
g0
(g86
g2
Ntp182
Rp183
(dp184
g66
I8
sg67
I3
sg14
(I4
I4
I4
I3
tp185
sbaa(lp186
g0
(g86
g2
Ntp187
Rp188
(dp189
g66
I9
sg67
I3
sg14
(I4
I2
I3
I2
tp190
sbaa(lp191
g0
(g86
g2
Ntp192
Rp193
(dp194
g66
I10
sg67
I3
sg14
(I2
I3
I2
I4
tp195
sbaa(lp196
g0
(g86
g2
Ntp197
Rp198
(dp199
g66
I11
sg67
I3
sg14
(I2
I4
I2
I4
tp200
sbaaa(lp201
(lp202
g110
aa(lp203
g0
(g86
g2
Ntp204
Rp205
(dp206
g66
I1
sg67
I4
sg14
(I0
I1
I2
I3
tp207
sbaa(lp208
g0
(g86
g2
Ntp209
Rp210
(dp211
g66
I2
sg67
I4
sg14
(I3
I2
I1
I0
tp212
sbaa(lp213
a(lp214
g0
(g86
g2
Ntp215
Rp216
(dp217
g66
I4
sg67
I4
sg14
(I0
I0
I2
I2
tp218
sbaa(lp219
g0
(g86
g2
Ntp220
Rp221
(dp222
g66
I5
sg67
I4
sg14
(I2
I2
I2
I2
tp223
sbaa(lp224
g0
(g86
g2
Ntp225
Rp226
(dp227
g66
I6
sg67
I4
sg14
(I3
I2
I4
I2
tp228
sbaa(lp229
g0
(g86
g2
Ntp230
Rp231
(dp232
g66
I7
sg67
I4
sg14
(I4
I2
I4
I2
tp233
sbaa(lp234
g0
(g86
g2
Ntp235
Rp236
(dp237
g66
I8
sg67
I4
sg14
(I4
I3
I1
I1
tp238
sbaa(lp239
a(lp240
g0
(g86
g2
Ntp241
Rp242
(dp243
g66
I10
sg67
I4
sg14
(I1
I0
I4
I2
tp244
sbaa(lp245
g0
(g86
g2
Ntp246
Rp247
(dp248
g66
I11
sg67
I4
sg14
(I4
I3
I4
I4
tp249
sbaaa(lp250
(lp251
g0
(g86
g2
Ntp252
Rp253
(dp254
g66
I0
sg67
I5
sg14
(I2
I4
I2
I4
tp255
sbaa(lp256
g0
(g86
g2
Ntp257
Rp258
(dp259
g66
I1
sg67
I5
sg14
(I3
I4
I1
I1
tp260
sbaa(lp261
a(lp262
a(lp263
a(lp264
a(lp265
a(lp266
g0
(g62
g2
Ntp267
Rp268
(dp269
g66
I7
sg67
I5
sg68
I14
sbaa(lp270
g0
(g86
g2
Ntp271
Rp272
(dp273
g66
I8
sg67
I5
sg14
(I1
I0
I1
I0
tp274
sbaa(lp275
a(lp276
g0
(cTiles
Portal
p277
g2
Ntp278
Rp279
(dp280
g66
I10
sg67
I5
sg68
I01
sbaa(lp281
g0
(g86
g2
Ntp282
Rp283
(dp284
g66
I11
sg67
I5
sg14
(I1
I1
I4
I4
tp285
sbaaa(lp286
(lp287
g0
(g86
g2
Ntp288
Rp289
(dp290
g66
I0
sg67
I6
sg14
(I4
I2
I4
I2
tp291
sbaa(lp292
g0
(g86
g2
Ntp293
Rp294
(dp295
g66
I1
sg67
I6
sg14
(I4
I2
I1
I0
tp296
sbaa(lp297
a(lp298
a(lp299
a(lp300
a(lp301
a(lp302
g0
(g62
g2
Ntp303
Rp304
(dp305
g66
I7
sg67
I6
sg68
I10
sbaa(lp306
a(lp307
a(lp308
g0
(g86
g2
Ntp309
Rp310
(dp311
g66
I10
sg67
I6
sg14
(I0
I0
I2
I2
tp312
sbaa(lp313
g0
(g86
g2
Ntp314
Rp315
(dp316
g66
I11
sg67
I6
sg14
(I3
I3
I4
I4
tp317
sbaaa(lp318
(lp319
a(lp320
a(lp321
a(lp322
a(lp323
a(lp324
a(lp325
a(lp326
g0
(g62
g2
Ntp327
Rp328
(dp329
g66
I7
sg67
I7
sg68
I14
sbaa(lp330
g0
(g86
g2
Ntp331
Rp332
(dp333
g66
I8
sg67
I7
sg14
(I0
I1
I0
I1
tp334
sbaa(lp335
a(lp336
a(lp337
g0
(g86
g2
Ntp338
Rp339
(dp340
g66
I11
sg67
I7
sg14
(I1
I1
I4
I4
tp341
sbaaa(lp342
(lp343
a(lp344
a(lp345
a(lp346
a(lp347
a(lp348
a(lp349
a(lp350
g0
(g62
g2
Ntp351
Rp352
(dp353
g66
I7
sg67
I8
sg68
I14
sbaa(lp354
g0
(g86
g2
Ntp355
Rp356
(dp357
g66
I8
sg67
I8
sg14
(I1
I1
I1
I1
tp358
sbaa(lp359
a(lp360
a(lp361
g0
(g86
g2
Ntp362
Rp363
(dp364
g66
I11
sg67
I8
sg14
(I1
I0
I4
I2
tp365
sbaaa(lp366
(lp367
a(lp368
a(lp369
a(lp370
a(lp371
a(lp372
a(lp373
a(lp374
g0
(g62
g2
Ntp375
Rp376
(dp377
g66
I7
sg67
I9
sg68
I14
sbaa(lp378
g0
(g86
g2
Ntp379
Rp380
(dp381
g66
I8
sg67
I9
sg14
(I1
I0
I1
I0
tp382
sbaa(lp383
a(lp384
a(lp385
aa(lp386
(lp387
a(lp388
a(lp389
a(lp390
a(lp391
a(lp392
a(lp393
a(lp394
g0
(g86
g2
Ntp395
Rp396
(dp397
g66
I7
sg67
I10
sg14
(I0
I0
I0
I0
tp398
sbaa(lp399
a(lp400
a(lp401
a(lp402
aa(lp403
(lp404
a(lp405
a(lp406
a(lp407
a(lp408
a(lp409
a(lp410
a(lp411
a(lp412
a(lp413
a(lp414
a(lp415
aasS'iscale'
p416
I3
sbsg14
(I2
I3
I2
I3
tp417
sbag0
(g10
g2
Ntp418
Rp419
(dp420
g14
(I2
I2
I2
I2
tp421
sg18
I01
sbag0
(g10
g2
Ntp422
Rp423
(dp424
g14
(I2
I2
I2
I2
tp425
sg16
(lp426
I01
aI0
aI00
aI0
asg18
I00
sbag0
(g10
g2
Ntp427
Rp428
(dp429
g14
(I2
I3
I0
I1
tp430
sg16
(lp431
I00
aI00
aI0
aI0
asg18
I00
sbaNaNaa(lp432
NaNag0
(g33
g2
Ntp433
Rp434
(dp435
g37
S'THEWALL'
p436
sg14
(I0
I1
I2
I3
tp437
sg39
g0
(g40
g2
Ntp438
Rp439
(dp440
g46
I12
sg47
I9
sg48
I64
sg49
I4
sg50
(lp441
(lp442
(lp443
g0
(cTiles
Dirt
p444
g2
Ntp445
Rp446
(dp447
g66
I0
sg67
I0
sg14
(I4
I4
I4
I4
tp448
sbaa(lp449
g0
(g444
g2
Ntp450
Rp451
(dp452
g66
I1
sg67
I0
sg14
(I4
I4
I4
I4
tp453
sbaa(lp454
g0
(g444
g2
Ntp455
Rp456
(dp457
g66
I2
sg67
I0
sg14
(I4
I4
I4
I4
tp458
sbaa(lp459
g0
(g444
g2
Ntp460
Rp461
(dp462
g66
I3
sg67
I0
sg14
(I4
I4
I4
I4
tp463
sbaa(lp464
g0
(g444
g2
Ntp465
Rp466
(dp467
g66
I4
sg67
I0
sg14
(I4
I4
I4
I4
tp468
sbaa(lp469
g0
(g444
g2
Ntp470
Rp471
(dp472
g66
I5
sg67
I0
sg14
(I4
I4
I1
I1
tp473
sbaa(lp474
g0
(g108
g2
Ntp475
Rp476
(dp477
g100
g0
(g101
g2
Ntp478
Rp479
(dp480
g105
I1
sg106
(lp481
g476
ag0
(g108
g2
Ntp482
Rp483
(dp484
g100
g479
sg112
g479
sg113
I2
sg66
I7
sg67
I0
sg114
I0
sbag0
(g108
g2
Ntp485
Rp486
(dp487
g100
g479
sg112
g479
sg113
I1
sg66
I8
sg67
I0
sg114
I0
sbag0
(g96
g2
Ntp488
Rp489
(dp490
g66
I8
sg67
I1
sg100
g479
sg112
g479
sg121
I1
sbasbsg112
g479
sg113
I2
sg66
I6
sg67
I0
sg114
Nsbaa(lp491
g483
aa(lp492
g486
aa(lp493
g0
(g444
g2
Ntp494
Rp495
(dp496
g66
I9
sg67
I0
sg14
(I1
I1
I4
I4
tp497
sbaa(lp498
g0
(g444
g2
Ntp499
Rp500
(dp501
g66
I10
sg67
I0
sg14
(I4
I4
I4
I4
tp502
sbaa(lp503
g0
(g444
g2
Ntp504
Rp505
(dp506
g66
I11
sg67
I0
sg14
(I4
I4
I4
I4
tp507
sbaaa(lp508
(lp509
g0
(g444
g2
Ntp510
Rp511
(dp512
g66
I0
sg67
I1
sg14
(I4
I2
I4
I2
tp513
sbaa(lp514
g0
(g444
g2
Ntp515
Rp516
(dp517
g66
I1
sg67
I1
sg14
(I4
I3
I4
I4
tp518
sbaa(lp519
g0
(g444
g2
Ntp520
Rp521
(dp522
g66
I2
sg67
I1
sg14
(I4
I4
I4
I4
tp523
sbaa(lp524
g0
(g444
g2
Ntp525
Rp526
(dp527
g66
I3
sg67
I1
sg14
(I4
I4
I4
I4
tp528
sbaa(lp529
g0
(g444
g2
Ntp530
Rp531
(dp532
g66
I4
sg67
I1
sg14
(I4
I4
I4
I4
tp533
sbaa(lp534
g0
(g444
g2
Ntp535
Rp536
(dp537
g66
I5
sg67
I1
sg14
(I4
I4
I1
I1
tp538
sbaa(lp539
g0
(cInteractives
XBlock
p540
g2
Ntp541
Rp542
(dp543
g66
I6
sg67
I1
sS'active'
p544
I0
sS'col'
p545
I0
sbaa(lp546
g0
(g540
g2
Ntp547
Rp548
(dp549
g66
I7
sg67
I1
sg544
I0
sg545
I0
sbaa(lp550
g489
aa(lp551
g0
(g444
g2
Ntp552
Rp553
(dp554
g66
I9
sg67
I1
sg14
(I1
I1
I4
I4
tp555
sbaa(lp556
g0
(g444
g2
Ntp557
Rp558
(dp559
g66
I10
sg67
I1
sg14
(I4
I4
I4
I4
tp560
sbaa(lp561
g0
(g444
g2
Ntp562
Rp563
(dp564
g66
I11
sg67
I1
sg14
(I4
I4
I4
I4
tp565
sbaaa(lp566
(lp567
g0
(g62
g2
Ntp568
Rp569
(dp570
g66
I0
sg67
I2
sg68
I12
sbaa(lp571
g0
(g444
g2
Ntp572
Rp573
(dp574
g66
I1
sg67
I2
sg14
(I1
I0
I4
I2
tp575
sbaa(lp576
g0
(g444
g2
Ntp577
Rp578
(dp579
g66
I2
sg67
I2
sg14
(I4
I3
I4
I4
tp580
sbaa(lp581
g0
(g444
g2
Ntp582
Rp583
(dp584
g66
I3
sg67
I2
sg14
(I4
I4
I4
I4
tp585
sbaa(lp586
g0
(g444
g2
Ntp587
Rp588
(dp589
g66
I4
sg67
I2
sg14
(I4
I4
I4
I4
tp590
sbaa(lp591
g0
(g444
g2
Ntp592
Rp593
(dp594
g66
I5
sg67
I2
sg14
(I4
I4
I1
I1
tp595
sbaa(lp596
a(lp597
a(lp598
g0
(g540
g2
Ntp599
Rp600
(dp601
g66
I8
sg67
I2
sg544
I0
sg545
I0
sbaa(lp602
g0
(g444
g2
Ntp603
Rp604
(dp605
g66
I9
sg67
I2
sg14
(I1
I1
I4
I3
tp606
sbaa(lp607
g0
(g444
g2
Ntp608
Rp609
(dp610
g66
I10
sg67
I2
sg14
(I4
I2
I4
I2
tp611
sbaa(lp612
g0
(g444
g2
Ntp613
Rp614
(dp615
g66
I11
sg67
I2
sg14
(I4
I3
I4
I4
tp616
sbaaa(lp617
(lp618
a(lp619
a(lp620
g0
(g444
g2
Ntp621
Rp622
(dp623
g66
I2
sg67
I3
sg14
(I1
I1
I4
I4
tp624
sbaa(lp625
g0
(g444
g2
Ntp626
Rp627
(dp628
g66
I3
sg67
I3
sg14
(I4
I4
I4
I4
tp629
sbaa(lp630
g0
(g444
g2
Ntp631
Rp632
(dp633
g66
I4
sg67
I3
sg14
(I4
I4
I4
I4
tp634
sbaa(lp635
g0
(g444
g2
Ntp636
Rp637
(dp638
g66
I5
sg67
I3
sg14
(I4
I4
I1
I1
tp639
sbaa(lp640
g0
(g540
g2
Ntp641
Rp642
(dp643
g66
I6
sg67
I3
sg544
I1
sg545
I0
sbaa(lp644
g0
(g540
g2
Ntp645
Rp646
(dp647
g66
I7
sg67
I3
sg544
I1
sg545
I1
sbaa(lp648
a(lp649
g0
(g444
g2
Ntp650
Rp651
(dp652
g66
I9
sg67
I3
sg14
(I1
I1
I1
I1
tp653
sbaa(lp654
g0
(cInteractives
XButton
p655
g2
Ntp656
Rp657
(dp658
g66
I10
sg67
I3
sg545
I0
sbaa(lp659
g0
(g444
g2
Ntp660
Rp661
(dp662
g66
I11
sg67
I3
sg14
(I1
I1
I4
I4
tp663
sbaaa(lp664
(lp665
a(lp666
a(lp667
g0
(g444
g2
Ntp668
Rp669
(dp670
g66
I2
sg67
I4
sg14
(I1
I1
I4
I4
tp671
sbaa(lp672
g0
(g444
g2
Ntp673
Rp674
(dp675
g66
I3
sg67
I4
sg14
(I4
I4
I4
I4
tp676
sbaa(lp677
g0
(g444
g2
Ntp678
Rp679
(dp680
g66
I4
sg67
I4
sg14
(I4
I4
I4
I4
tp681
sbaa(lp682
g0
(g444
g2
Ntp683
Rp684
(dp685
g66
I5
sg67
I4
sg14
(I4
I4
I1
I1
tp686
sbaa(lp687
a(lp688
g0
(g540
g2
Ntp689
Rp690
(dp691
g66
I7
sg67
I4
sg544
I1
sg545
I0
sbaa(lp692
g0
(g540
g2
Ntp693
Rp694
(dp695
g66
I8
sg67
I4
sg544
I1
sg545
I0
sbaa(lp696
g0
(g444
g2
Ntp697
Rp698
(dp699
g66
I9
sg67
I4
sg14
(I1
I1
I3
I3
tp700
sbaa(lp701
g0
(g444
g2
Ntp702
Rp703
(dp704
g66
I10
sg67
I4
sg14
(I2
I2
I2
I2
tp705
sbaa(lp706
g0
(g444
g2
Ntp707
Rp708
(dp709
g66
I11
sg67
I4
sg14
(I3
I3
I4
I4
tp710
sbaaa(lp711
(lp712
a(lp713
g0
(g62
g2
Ntp714
Rp715
(dp716
g66
I1
sg67
I5
sg68
I6
sbaa(lp717
g0
(g444
g2
Ntp718
Rp719
(dp720
g66
I2
sg67
I5
sg14
(I1
I1
I4
I4
tp721
sbaa(lp722
g0
(g444
g2
Ntp723
Rp724
(dp725
g66
I3
sg67
I5
sg14
(I4
I4
I4
I4
tp726
sbaa(lp727
g0
(g444
g2
Ntp728
Rp729
(dp730
g66
I4
sg67
I5
sg14
(I4
I4
I4
I4
tp731
sbaa(lp732
g0
(g444
g2
Ntp733
Rp734
(dp735
g66
I5
sg67
I5
sg14
(I4
I4
I1
I1
tp736
sbaa(lp737
g0
(g540
g2
Ntp738
Rp739
(dp740
g66
I6
sg67
I5
sg544
I0
sg545
I1
sbaa(lp741
g0
(g540
g2
Ntp742
Rp743
(dp744
g66
I7
sg67
I5
sg544
I0
sg545
I1
sbaa(lp745
g0
(g540
g2
Ntp746
Rp747
(dp748
g66
I8
sg67
I5
sg544
I0
sg545
I1
sbaa(lp749
g0
(g444
g2
Ntp750
Rp751
(dp752
g66
I9
sg67
I5
sg14
(I1
I1
I1
I1
tp753
sbaa(lp754
g0
(g655
g2
Ntp755
Rp756
(dp757
g66
I10
sg67
I5
sg545
I1
sbaa(lp758
g0
(g444
g2
Ntp759
Rp760
(dp761
g66
I11
sg67
I5
sg14
(I1
I1
I4
I4
tp762
sbaaa(lp763
(lp764
a(lp765
g0
(g62
g2
Ntp766
Rp767
(dp768
g66
I1
sg67
I6
sg68
I12
sbaa(lp769
g0
(g444
g2
Ntp770
Rp771
(dp772
g66
I2
sg67
I6
sg14
(I1
I1
I4
I4
tp773
sbaa(lp774
g0
(g444
g2
Ntp775
Rp776
(dp777
g66
I3
sg67
I6
sg14
(I4
I4
I4
I4
tp778
sbaa(lp779
g0
(g444
g2
Ntp780
Rp781
(dp782
g66
I4
sg67
I6
sg14
(I4
I4
I4
I4
tp783
sbaa(lp784
g0
(g444
g2
Ntp785
Rp786
(dp787
g66
I5
sg67
I6
sg14
(I4
I4
I1
I1
tp788
sbaa(lp789
a(lp790
a(lp791
a(lp792
g0
(g444
g2
Ntp793
Rp794
(dp795
g66
I9
sg67
I6
sg14
(I1
I1
I3
I4
tp796
sbaa(lp797
g0
(g444
g2
Ntp798
Rp799
(dp800
g66
I10
sg67
I6
sg14
(I2
I4
I2
I4
tp801
sbaa(lp802
g0
(g444
g2
Ntp803
Rp804
(dp805
g66
I11
sg67
I6
sg14
(I3
I4
I4
I4
tp806
sbaaa(lp807
(lp808
a(lp809
a(lp810
g0
(g444
g2
Ntp811
Rp812
(dp813
g66
I2
sg67
I7
sg14
(I1
I1
I4
I4
tp814
sbaa(lp815
g0
(g444
g2
Ntp816
Rp817
(dp818
g66
I3
sg67
I7
sg14
(I4
I4
I4
I4
tp819
sbaa(lp820
g0
(g444
g2
Ntp821
Rp822
(dp823
g66
I4
sg67
I7
sg14
(I4
I4
I4
I4
tp824
sbaa(lp825
g0
(g444
g2
Ntp826
Rp827
(dp828
g66
I5
sg67
I7
sg14
(I4
I4
I1
I1
tp829
sbaa(lp830
a(lp831
g0
(g540
g2
Ntp832
Rp833
(dp834
g66
I7
sg67
I7
sg544
I1
sg545
I1
sbaa(lp835
g0
(g540
g2
Ntp836
Rp837
(dp838
g66
I8
sg67
I7
sg544
I1
sg545
I1
sbaa(lp839
g0
(g444
g2
Ntp840
Rp841
(dp842
g66
I9
sg67
I7
sg14
(I1
I1
I4
I4
tp843
sbaa(lp844
g0
(g444
g2
Ntp845
Rp846
(dp847
g66
I10
sg67
I7
sg14
(I4
I4
I4
I4
tp848
sbaa(lp849
g0
(g444
g2
Ntp850
Rp851
(dp852
g66
I11
sg67
I7
sg14
(I4
I4
I4
I4
tp853
sbaaa(lp854
(lp855
a(lp856
a(lp857
g0
(g444
g2
Ntp858
Rp859
(dp860
g66
I2
sg67
I8
sg14
(I1
I1
I4
I4
tp861
sbaa(lp862
g0
(g444
g2
Ntp863
Rp864
(dp865
g66
I3
sg67
I8
sg14
(I4
I4
I4
I4
tp866
sbaa(lp867
g0
(g444
g2
Ntp868
Rp869
(dp870
g66
I4
sg67
I8
sg14
(I4
I4
I4
I4
tp871
sbaa(lp872
g0
(g444
g2
Ntp873
Rp874
(dp875
g66
I5
sg67
I8
sg14
(I4
I4
I1
I1
tp876
sbaa(lp877
g0
(g540
g2
Ntp878
Rp879
(dp880
g66
I6
sg67
I8
sg544
I1
sg545
I1
sbaa(lp881
g0
(g277
g2
Ntp882
Rp883
(dp884
g66
I7
sg67
I8
sg68
I01
sbaa(lp885
a(lp886
g0
(g444
g2
Ntp887
Rp888
(dp889
g66
I9
sg67
I8
sg14
(I1
I1
I4
I4
tp890
sbaa(lp891
g0
(g444
g2
Ntp892
Rp893
(dp894
g66
I10
sg67
I8
sg14
(I4
I4
I4
I4
tp895
sbaa(lp896
g0
(g444
g2
Ntp897
Rp898
(dp899
g66
I11
sg67
I8
sg14
(I4
I4
I4
I4
tp900
sbaaasg416
I3
sbsg16
(lp901
I0
aI00
aI00
aI0
asg18
I00
sbag0
(g10
g2
Ntp902
Rp903
(dp904
g14
(I2
I2
I2
I2
tp905
sg16
(lp906
I00
aI0
aI00
aI0
asg18
I00
sbag0
(g33
g2
Ntp907
Rp908
(dp909
g37
S'thud'
p910
sg14
(I3
I2
I1
I0
tp911
sg39
g0
(g40
g2
Ntp912
Rp913
(dp914
g46
I13
sg47
I12
sg48
I64
sg49
I4
sg50
(lp915
(lp916
(lp917
a(lp918
a(lp919
g0
(g444
g2
Ntp920
Rp921
(dp922
g66
I2
sg67
I0
sg14
(I1
I0
I1
I0
tp923
sbaa(lp924
a(lp925
a(lp926
a(lp927
a(lp928
a(lp929
a(lp930
a(lp931
a(lp932
a(lp933
aa(lp934
(lp935
a(lp936
a(lp937
a(lp938
a(lp939
a(lp940
a(lp941
a(lp942
a(lp943
a(lp944
g0
(g444
g2
Ntp945
Rp946
(dp947
g66
I9
sg67
I1
sg14
(I0
I0
I0
I0
tp948
sbaa(lp949
a(lp950
a(lp951
aa(lp952
(lp953
a(lp954
g0
(g444
g2
Ntp955
Rp956
(dp957
g66
I1
sg67
I2
sg14
(I0
I0
I0
I0
tp958
sbaa(lp959
g0
(cInteractives
SpikyThud
p960
g2
Ntp961
Rp962
(dp963
g66
I2
sg67
I2
sg100
g0
(cTiles
GravShape
p964
g2
Ntp965
Rp966
(dp967
g106
(lp968
g962
asbsbaa(lp969
a(lp970
a(lp971
a(lp972
a(lp973
a(lp974
a(lp975
a(lp976
a(lp977
a(lp978
aa(lp979
(lp980
a(lp981
a(lp982
a(lp983
a(lp984
a(lp985
a(lp986
a(lp987
a(lp988
a(lp989
a(lp990
a(lp991
a(lp992
aa(lp993
(lp994
a(lp995
a(lp996
a(lp997
a(lp998
a(lp999
a(lp1000
a(lp1001
a(lp1002
a(lp1003
a(lp1004
a(lp1005
a(lp1006
aa(lp1007
(lp1008
a(lp1009
a(lp1010
a(lp1011
a(lp1012
g0
(g277
g2
Ntp1013
Rp1014
(dp1015
g66
I4
sg67
I5
sg68
I01
sbaa(lp1016
a(lp1017
a(lp1018
a(lp1019
a(lp1020
a(lp1021
a(lp1022
a(lp1023
aa(lp1024
(lp1025
a(lp1026
g0
(g444
g2
Ntp1027
Rp1028
(dp1029
g66
I1
sg67
I6
sg14
(I0
I0
I0
I0
tp1030
sbaa(lp1031
a(lp1032
a(lp1033
a(lp1034
g0
(cTiles
WoodPlatform
p1035
g2
Ntp1036
Rp1037
(dp1038
g66
I5
sg67
I6
sg68
I0
sbaa(lp1039
a(lp1040
a(lp1041
a(lp1042
a(lp1043
a(lp1044
a(lp1045
aa(lp1046
(lp1047
a(lp1048
a(lp1049
a(lp1050
a(lp1051
a(lp1052
a(lp1053
a(lp1054
a(lp1055
g0
(g444
g2
Ntp1056
Rp1057
(dp1058
g66
I8
sg67
I7
sg14
(I0
I0
I0
I0
tp1059
sbaa(lp1060
a(lp1061
a(lp1062
a(lp1063
aa(lp1064
(lp1065
a(lp1066
a(lp1067
a(lp1068
a(lp1069
a(lp1070
a(lp1071
a(lp1072
a(lp1073
a(lp1074
a(lp1075
a(lp1076
g0
(g444
g2
Ntp1077
Rp1078
(dp1079
g66
I11
sg67
I8
sg14
(I0
I0
I2
I2
tp1080
sbaa(lp1081
aa(lp1082
(lp1083
a(lp1084
a(lp1085
a(lp1086
a(lp1087
a(lp1088
a(lp1089
a(lp1090
a(lp1091
a(lp1092
g0
(g444
g2
Ntp1093
Rp1094
(dp1095
g66
I9
sg67
I9
sg14
(I0
I0
I0
I0
tp1096
sbaa(lp1097
a(lp1098
a(lp1099
aa(lp1100
(lp1101
a(lp1102
a(lp1103
g0
(g444
g2
Ntp1104
Rp1105
(dp1106
g66
I2
sg67
I10
sg14
(I0
I0
I0
I0
tp1107
sbaa(lp1108
a(lp1109
a(lp1110
a(lp1111
a(lp1112
a(lp1113
a(lp1114
a(lp1115
a(lp1116
a(lp1117
aa(lp1118
(lp1119
a(lp1120
a(lp1121
a(lp1122
a(lp1123
a(lp1124
a(lp1125
a(lp1126
a(lp1127
a(lp1128
a(lp1129
a(lp1130
a(lp1131
aasg416
I3
sbsg16
(lp1132
I00
aI0
aI0
aI00
asg18
I00
sbaNaNaNag0
(g10
g2
Ntp1133
Rp1134
(dp1135
g18
I01
sg14
(I1
I1
I1
I1
tp1136
sbaNaNag0
(g33
g2
Ntp1137
Rp1138
(dp1139
g37
S'penguins'
p1140
sg14
(I1
I1
I1
I1
tp1141
sg39
g0
(g40
g2
Ntp1142
Rp1143
(dp1144
g44
cBiomes
Snow
p1145
sg46
I9
sg47
I12
sg48
I64
sg49
I4
sS'music'
p1146
S'Snow'
p1147
sg50
(lp1148
(lp1149
(lp1150
a(lp1151
a(lp1152
g0
(cTiles
Snow
p1153
g2
Ntp1154
Rp1155
(dp1156
g66
I2
sg67
I0
sg14
(I1
I1
I4
I4
tp1157
sbaa(lp1158
g0
(g1153
g2
Ntp1159
Rp1160
(dp1161
g66
I3
sg67
I0
sg14
(I4
I4
I1
I1
tp1162
sbaa(lp1163
g0
(g277
g2
Ntp1164
Rp1165
(dp1166
g66
I4
sg67
I0
sg68
I01
sbaa(lp1167
g0
(g540
g2
Ntp1168
Rp1169
(dp1170
g66
I5
sg67
I0
sg544
I0
sg545
I1
sbaa(lp1171
a(lp1172
a(lp1173
aa(lp1174
(lp1175
a(lp1176
g0
(cInteractives
Penguin
p1177
g2
Ntp1178
Rp1179
(dp1180
g66
I1
sg67
I1
sg100
g0
(g964
g2
Ntp1181
Rp1182
(dp1183
g106
(lp1184
g1179
asbsbaa(lp1185
g0
(g1153
g2
Ntp1186
Rp1187
(dp1188
g66
I2
sg67
I1
sg14
(I1
I1
I4
I4
tp1189
sbaa(lp1190
g0
(g1153
g2
Ntp1191
Rp1192
(dp1193
g66
I3
sg67
I1
sg14
(I4
I4
I1
I1
tp1194
sbaa(lp1195
a(lp1196
g0
(g540
g2
Ntp1197
Rp1198
(dp1199
g66
I5
sg67
I1
sg544
I0
sg545
I1
sbaa(lp1200
a(lp1201
a(lp1202
aa(lp1203
(lp1204
a(lp1205
g0
(g1177
g2
Ntp1206
Rp1207
(dp1208
g66
I1
sg67
I2
sg100
g0
(g964
g2
Ntp1209
Rp1210
(dp1211
g106
(lp1212
g1207
asbsbaa(lp1213
g0
(g1153
g2
Ntp1214
Rp1215
(dp1216
g66
I2
sg67
I2
sg14
(I1
I1
I4
I4
tp1217
sbaa(lp1218
g0
(g1153
g2
Ntp1219
Rp1220
(dp1221
g66
I3
sg67
I2
sg14
(I4
I4
I1
I1
tp1222
sbaa(lp1223
a(lp1224
g0
(g540
g2
Ntp1225
Rp1226
(dp1227
g66
I5
sg67
I2
sg544
I0
sg545
I1
sbaa(lp1228
a(lp1229
a(lp1230
aa(lp1231
(lp1232
a(lp1233
g0
(g1177
g2
Ntp1234
Rp1235
(dp1236
g66
I1
sg67
I3
sg100
g0
(g964
g2
Ntp1237
Rp1238
(dp1239
g106
(lp1240
g1235
asbsbaa(lp1241
g0
(g1153
g2
Ntp1242
Rp1243
(dp1244
g66
I2
sg67
I3
sg14
(I1
I1
I4
I4
tp1245
sbaa(lp1246
g0
(g1153
g2
Ntp1247
Rp1248
(dp1249
g66
I3
sg67
I3
sg14
(I4
I4
I1
I1
tp1250
sbaa(lp1251
a(lp1252
g0
(g540
g2
Ntp1253
Rp1254
(dp1255
g66
I5
sg67
I3
sg544
I0
sg545
I1
sbaa(lp1256
a(lp1257
a(lp1258
aa(lp1259
(lp1260
a(lp1261
a(lp1262
g0
(g1153
g2
Ntp1263
Rp1264
(dp1265
g66
I2
sg67
I4
sg14
(I1
I1
I4
I3
tp1266
sbaa(lp1267
g0
(g1153
g2
Ntp1268
Rp1269
(dp1270
g66
I3
sg67
I4
sg14
(I4
I2
I1
I0
tp1271
sbaa(lp1272
a(lp1273
g0
(g540
g2
Ntp1274
Rp1275
(dp1276
g66
I5
sg67
I4
sg544
I0
sg545
I1
sbaa(lp1277
a(lp1278
g0
(g1153
g2
Ntp1279
Rp1280
(dp1281
g66
I7
sg67
I4
sg14
(I0
I1
I2
I4
tp1282
sbaa(lp1283
g0
(g1153
g2
Ntp1284
Rp1285
(dp1286
g66
I8
sg67
I4
sg14
(I2
I4
I2
I4
tp1287
sbaaa(lp1288
(lp1289
a(lp1290
a(lp1291
g0
(g1153
g2
Ntp1292
Rp1293
(dp1294
g66
I2
sg67
I5
sg14
(I1
I0
I1
I0
tp1295
sbaa(lp1296
a(lp1297
a(lp1298
g0
(g540
g2
Ntp1299
Rp1300
(dp1301
g66
I5
sg67
I5
sg544
I0
sg545
I1
sbaa(lp1302
g0
(g1153
g2
Ntp1303
Rp1304
(dp1305
g66
I6
sg67
I5
sg14
(I0
I1
I2
I4
tp1306
sbaa(lp1307
g0
(g1153
g2
Ntp1308
Rp1309
(dp1310
g66
I7
sg67
I5
sg14
(I3
I4
I4
I3
tp1311
sbaa(lp1312
g0
(g1153
g2
Ntp1313
Rp1314
(dp1315
g66
I8
sg67
I5
sg14
(I4
I2
I4
I2
tp1316
sbaaa(lp1317
(lp1318
a(lp1319
a(lp1320
a(lp1321
a(lp1322
a(lp1323
g0
(g1153
g2
Ntp1324
Rp1325
(dp1326
g66
I5
sg67
I6
sg14
(I0
I1
I2
I4
tp1327
sbaa(lp1328
g0
(g1153
g2
Ntp1329
Rp1330
(dp1331
g66
I6
sg67
I6
sg14
(I3
I4
I4
I3
tp1332
sbaa(lp1333
g0
(g1153
g2
Ntp1334
Rp1335
(dp1336
g66
I7
sg67
I6
sg14
(I4
I2
I1
I0
tp1337
sbaa(lp1338
aa(lp1339
(lp1340
a(lp1341
a(lp1342
a(lp1343
a(lp1344
a(lp1345
g0
(g1153
g2
Ntp1346
Rp1347
(dp1348
g66
I5
sg67
I7
sg14
(I1
I1
I4
I4
tp1349
sbaa(lp1350
g0
(g1153
g2
Ntp1351
Rp1352
(dp1353
g66
I6
sg67
I7
sg14
(I4
I4
I1
I1
tp1354
sbaa(lp1355
a(lp1356
aa(lp1357
(lp1358
a(lp1359
a(lp1360
a(lp1361
a(lp1362
a(lp1363
g0
(g1153
g2
Ntp1364
Rp1365
(dp1366
g66
I5
sg67
I8
sg14
(I1
I1
I4
I4
tp1367
sbaa(lp1368
g0
(g1153
g2
Ntp1369
Rp1370
(dp1371
g66
I6
sg67
I8
sg14
(I4
I4
I1
I1
tp1372
sbaa(lp1373
a(lp1374
aa(lp1375
(lp1376
a(lp1377
a(lp1378
a(lp1379
g0
(cInteractives
XSwitch
p1380
g2
Ntp1381
Rp1382
(dp1383
g66
I3
sg67
I9
sS'r'
p1384
I1
sg544
I01
sg545
I1
sbaa(lp1385
a(lp1386
g0
(g1153
g2
Ntp1387
Rp1388
(dp1389
g66
I5
sg67
I9
sg14
(I1
I1
I4
I4
tp1390
sbaa(lp1391
g0
(g1153
g2
Ntp1392
Rp1393
(dp1394
g66
I6
sg67
I9
sg14
(I4
I4
I1
I1
tp1395
sbaa(lp1396
a(lp1397
aa(lp1398
(lp1399
a(lp1400
a(lp1401
a(lp1402
g0
(g1153
g2
Ntp1403
Rp1404
(dp1405
g66
I3
sg67
I10
sg14
(I0
I0
I2
I2
tp1406
sbaa(lp1407
g0
(g1153
g2
Ntp1408
Rp1409
(dp1410
g66
I4
sg67
I10
sg14
(I2
I3
I2
I4
tp1411
sbaa(lp1412
g0
(g1153
g2
Ntp1413
Rp1414
(dp1415
g66
I5
sg67
I10
sg14
(I3
I4
I4
I4
tp1416
sbaa(lp1417
g0
(g1153
g2
Ntp1418
Rp1419
(dp1420
g66
I6
sg67
I10
sg14
(I4
I4
I3
I4
tp1421
sbaa(lp1422
g0
(g1153
g2
Ntp1423
Rp1424
(dp1425
g66
I7
sg67
I10
sg14
(I2
I4
I2
I4
tp1426
sbaa(lp1427
g0
(g1153
g2
Ntp1428
Rp1429
(dp1430
g66
I8
sg67
I10
sg14
(I2
I4
I2
I4
tp1431
sbaaa(lp1432
(lp1433
a(lp1434
a(lp1435
a(lp1436
a(lp1437
g0
(g1153
g2
Ntp1438
Rp1439
(dp1440
g66
I4
sg67
I11
sg14
(I1
I1
I4
I4
tp1441
sbaa(lp1442
g0
(g1153
g2
Ntp1443
Rp1444
(dp1445
g66
I5
sg67
I11
sg14
(I4
I4
I4
I4
tp1446
sbaa(lp1447
g0
(g1153
g2
Ntp1448
Rp1449
(dp1450
g66
I6
sg67
I11
sg14
(I4
I4
I4
I4
tp1451
sbaa(lp1452
g0
(g1153
g2
Ntp1453
Rp1454
(dp1455
g66
I7
sg67
I11
sg14
(I4
I4
I4
I4
tp1456
sbaa(lp1457
g0
(g1153
g2
Ntp1458
Rp1459
(dp1460
g66
I8
sg67
I11
sg14
(I4
I4
I4
I4
tp1461
sbaaasg416
I3
sbsg16
(lp1462
I0
aI00
aI0
aI00
asg18
I00
sbaNaNaa(lp1463
NaNag0
(g10
g2
Ntp1464
Rp1465
(dp1466
g14
(I1
I1
I1
I1
tp1467
sg16
(lp1468
I0
aI00
aI0
aI00
asg18
I00
sbaNaNaNag0
(cWMObjects
Spawn
p1469
g2
Ntp1470
Rp1471
(dp1472
g14
(I0
I1
I0
I1
tp1473
sg16
(lp1474
I0
aI00
aI0
aI0
asg18
I00
sbaNag0
(g33
g2
Ntp1475
Rp1476
(dp1477
g37
S'falling'
p1478
sg18
I01
sg39
g0
(g40
g2
Ntp1479
Rp1480
(dp1481
g44
g45
sg46
I12
sg47
I12
sg48
I64
sg49
I4
sg50
(lp1482
(lp1483
(lp1484
g0
(g277
g2
Ntp1485
Rp1486
(dp1487
g66
I0
sg67
I0
sg68
I01
sbaa(lp1488
a(lp1489
a(lp1490
a(lp1491
g0
(g86
g2
Ntp1492
Rp1493
(dp1494
g66
I4
sg67
I0
sg14
(I1
I0
I1
I0
tp1495
sbaa(lp1496
g0
(g62
g2
Ntp1497
Rp1498
(dp1499
g66
I5
sg67
I0
sg68
I5
sbaa(lp1500
g0
(g62
g2
Ntp1501
Rp1502
(dp1503
g66
I6
sg67
I0
sg68
I1
sbaa(lp1504
a(lp1505
g0
(g62
g2
Ntp1506
Rp1507
(dp1508
g66
I8
sg67
I0
sg68
I4
sbaa(lp1509
g0
(g62
g2
Ntp1510
Rp1511
(dp1512
g66
I9
sg67
I0
sg68
I5
sbaa(lp1513
g0
(g62
g2
Ntp1514
Rp1515
(dp1516
g66
I10
sg67
I0
sg68
I3
sbaa(lp1517
aa(lp1518
(lp1519
a(lp1520
a(lp1521
a(lp1522
a(lp1523
a(lp1524
a(lp1525
a(lp1526
a(lp1527
a(lp1528
a(lp1529
g0
(g62
g2
Ntp1530
Rp1531
(dp1532
g66
I10
sg67
I1
sg68
I10
sbaa(lp1533
aa(lp1534
(lp1535
a(lp1536
g0
(cTiles
Block
p1537
g2
Ntp1538
Rp1539
(dp1540
g66
I1
sg67
I2
sg100
g0
(cTiles
BGravShape
p1541
g2
Ntp1542
Rp1543
(dp1544
g105
I2
sg106
(lp1545
g1539
ag0
(g1537
g2
Ntp1546
Rp1547
(dp1548
g66
I1
sg67
I3
sg100
g1543
sg14
(I1
I0
I1
I0
tp1549
sbasbsg14
(I0
I1
I0
I1
tp1550
sbaa(lp1551
g0
(g540
g2
Ntp1552
Rp1553
(dp1554
g66
I2
sg67
I2
sg544
I1
sg545
I0
sbaa(lp1555
a(lp1556
a(lp1557
a(lp1558
a(lp1559
a(lp1560
a(lp1561
a(lp1562
g0
(g62
g2
Ntp1563
Rp1564
(dp1565
g66
I10
sg67
I2
sg68
I10
sbaa(lp1566
aa(lp1567
(lp1568
a(lp1569
g1547
aa(lp1570
g0
(g540
g2
Ntp1571
Rp1572
(dp1573
g66
I2
sg67
I3
sg544
I1
sg545
I0
sbaa(lp1574
a(lp1575
a(lp1576
a(lp1577
a(lp1578
a(lp1579
a(lp1580
a(lp1581
g0
(g62
g2
Ntp1582
Rp1583
(dp1584
g66
I10
sg67
I3
sg68
I10
sbaa(lp1585
aa(lp1586
(lp1587
a(lp1588
a(lp1589
a(lp1590
a(lp1591
a(lp1592
a(lp1593
a(lp1594
a(lp1595
a(lp1596
a(lp1597
g0
(g86
g2
Ntp1598
Rp1599
(dp1600
g66
I10
sg67
I4
sg14
(I0
I1
I2
I4
tp1601
sbaa(lp1602
g0
(g86
g2
Ntp1603
Rp1604
(dp1605
g66
I11
sg67
I4
sg14
(I2
I4
I2
I4
tp1606
sbaaa(lp1607
(lp1608
a(lp1609
a(lp1610
a(lp1611
a(lp1612
a(lp1613
a(lp1614
a(lp1615
a(lp1616
a(lp1617
a(lp1618
g0
(g86
g2
Ntp1619
Rp1620
(dp1621
g66
I10
sg67
I5
sg14
(I1
I1
I4
I4
tp1622
sbaa(lp1623
g0
(g86
g2
Ntp1624
Rp1625
(dp1626
g66
I11
sg67
I5
sg14
(I4
I4
I4
I4
tp1627
sbaaa(lp1628
(lp1629
a(lp1630
a(lp1631
a(lp1632
a(lp1633
a(lp1634
a(lp1635
a(lp1636
a(lp1637
a(lp1638
a(lp1639
g0
(g86
g2
Ntp1640
Rp1641
(dp1642
g66
I10
sg67
I6
sg14
(I1
I1
I4
I4
tp1643
sbaa(lp1644
g0
(g86
g2
Ntp1645
Rp1646
(dp1647
g66
I11
sg67
I6
sg14
(I4
I4
I4
I4
tp1648
sbaaa(lp1649
(lp1650
a(lp1651
a(lp1652
a(lp1653
a(lp1654
a(lp1655
a(lp1656
a(lp1657
a(lp1658
a(lp1659
a(lp1660
g0
(g86
g2
Ntp1661
Rp1662
(dp1663
g66
I10
sg67
I7
sg14
(I1
I1
I4
I4
tp1664
sbaa(lp1665
g0
(g86
g2
Ntp1666
Rp1667
(dp1668
g66
I11
sg67
I7
sg14
(I4
I4
I4
I4
tp1669
sbaaa(lp1670
(lp1671
a(lp1672
a(lp1673
a(lp1674
a(lp1675
a(lp1676
a(lp1677
a(lp1678
a(lp1679
g0
(g96
g2
Ntp1680
Rp1681
(dp1682
g66
I8
sg67
I8
sg100
g0
(g101
g2
Ntp1683
Rp1684
(dp1685
g105
I3
sg106
(lp1686
g0
(g108
g2
Ntp1687
Rp1688
(dp1689
g68
I8
sg100
g1684
sg112
g1684
sg113
I3
sg66
I8
sg67
I11
sg114
Nsbag0
(g108
g2
Ntp1690
Rp1691
(dp1692
g68
I10
sg100
g1684
sg112
g1684
sg113
I3
sg66
I8
sg67
I10
sg114
I1
sbag0
(g108
g2
Ntp1693
Rp1694
(dp1695
g68
I10
sg100
g1684
sg112
g1684
sg113
I3
sg66
I8
sg67
I9
sg114
I1
sbag1681
asbsg112
g1684
sg121
I3
sbaa(lp1696
a(lp1697
g0
(g86
g2
Ntp1698
Rp1699
(dp1700
g66
I10
sg67
I8
sg14
(I1
I1
I4
I4
tp1701
sbaa(lp1702
g0
(g86
g2
Ntp1703
Rp1704
(dp1705
g66
I11
sg67
I8
sg14
(I4
I4
I4
I4
tp1706
sbaaa(lp1707
(lp1708
a(lp1709
a(lp1710
a(lp1711
g0
(g86
g2
Ntp1712
Rp1713
(dp1714
g66
I3
sg67
I9
sg14
(I0
I1
I2
I4
tp1715
sbaa(lp1716
g0
(g86
g2
Ntp1717
Rp1718
(dp1719
g66
I4
sg67
I9
sg14
(I2
I4
I2
I4
tp1720
sbaa(lp1721
g0
(g86
g2
Ntp1722
Rp1723
(dp1724
g66
I5
sg67
I9
sg14
(I2
I4
I0
I1
tp1725
sbaa(lp1726
a(lp1727
a(lp1728
g1694
aa(lp1729
g0
(g96
g2
Ntp1730
Rp1731
(dp1732
g66
I9
sg67
I9
sg100
g0
(g101
g2
Ntp1733
Rp1734
(dp1735
g105
I2
sg106
(lp1736
g0
(g108
g2
Ntp1737
Rp1738
(dp1739
g68
I1
sg100
g1734
sg112
g1734
sg113
I0
sg66
I10
sg67
I11
sg114
Nsbag0
(g108
g2
Ntp1740
Rp1741
(dp1742
g68
I12
sg100
g1734
sg112
g1734
sg113
I3
sg66
I9
sg67
I11
sg114
I2
sbag0
(g108
g2
Ntp1743
Rp1744
(dp1745
g68
I10
sg100
g1734
sg112
g1734
sg113
I3
sg66
I9
sg67
I10
sg114
I1
sbag1731
asbsg112
g1734
sg121
I3
sbaa(lp1746
g0
(g86
g2
Ntp1747
Rp1748
(dp1749
g66
I10
sg67
I9
sg14
(I1
I1
I4
I4
tp1750
sbaa(lp1751
g0
(g86
g2
Ntp1752
Rp1753
(dp1754
g66
I11
sg67
I9
sg14
(I4
I4
I4
I4
tp1755
sbaaa(lp1756
(lp1757
a(lp1758
a(lp1759
g0
(g1380
g2
Ntp1760
Rp1761
(dp1762
g66
I2
sg67
I10
sg1384
I2
sg544
I01
sg545
I0
sbaa(lp1763
g0
(g86
g2
Ntp1764
Rp1765
(dp1766
g66
I3
sg67
I10
sg14
(I1
I1
I4
I4
tp1767
sbaa(lp1768
g0
(g86
g2
Ntp1769
Rp1770
(dp1771
g66
I4
sg67
I10
sg14
(I4
I4
I4
I4
tp1772
sbaa(lp1773
g0
(g86
g2
Ntp1774
Rp1775
(dp1776
g66
I5
sg67
I10
sg14
(I4
I4
I1
I1
tp1777
sbaa(lp1778
a(lp1779
a(lp1780
g1691
aa(lp1781
g1744
aa(lp1782
g0
(g86
g2
Ntp1783
Rp1784
(dp1785
g66
I10
sg67
I10
sg14
(I1
I0
I4
I2
tp1786
sbaa(lp1787
g0
(g86
g2
Ntp1788
Rp1789
(dp1790
g66
I11
sg67
I10
sg14
(I4
I3
I4
I4
tp1791
sbaaa(lp1792
(lp1793
a(lp1794
a(lp1795
a(lp1796
g0
(g86
g2
Ntp1797
Rp1798
(dp1799
g66
I3
sg67
I11
sg14
(I1
I1
I4
I4
tp1800
sbaa(lp1801
g0
(g86
g2
Ntp1802
Rp1803
(dp1804
g66
I4
sg67
I11
sg14
(I4
I4
I4
I4
tp1805
sbaa(lp1806
g0
(g86
g2
Ntp1807
Rp1808
(dp1809
g66
I5
sg67
I11
sg14
(I4
I4
I1
I1
tp1810
sbaa(lp1811
a(lp1812
a(lp1813
g1688
aa(lp1814
g1741
aa(lp1815
g1738
aa(lp1816
g0
(g86
g2
Ntp1817
Rp1818
(dp1819
g66
I11
sg67
I11
sg14
(I1
I1
I4
I4
tp1820
sbaaasg416
I3
sbsg14
(I1
I0
I1
I0
tp1821
sbaNaNag0
(g10
g2
Ntp1822
Rp1823
(dp1824
g14
(I1
I1
I1
I1
tp1825
sg16
(lp1826
I0
aI00
aI0
aI00
asg18
I00
sbaNaNaa(lp1827
Nag0
(g10
g2
Ntp1828
Rp1829
(dp1830
g14
(I0
I1
I2
I3
tp1831
sg16
(lp1832
I0
aI00
aI00
aI0
asg18
I00
sbag0
(g33
g2
Ntp1833
Rp1834
(dp1835
g37
S'againagain'
p1836
sg14
(I3
I2
I3
I2
tp1837
sg39
g0
(g40
g2
Ntp1838
Rp1839
(dp1840
g46
I12
sg47
I12
sg48
I64
sg49
I4
sg50
(lp1841
(lp1842
(lp1843
a(lp1844
a(lp1845
a(lp1846
a(lp1847
a(lp1848
a(lp1849
g0
(g444
g2
Ntp1850
Rp1851
(dp1852
g66
I6
sg67
I0
sg14
(I1
I0
I1
I0
tp1853
sbaa(lp1854
a(lp1855
a(lp1856
a(lp1857
a(lp1858
aa(lp1859
(lp1860
a(lp1861
a(lp1862
a(lp1863
g0
(g1380
g2
Ntp1864
Rp1865
(dp1866
g66
I3
sg67
I1
sg1384
I2
sg544
I01
sg545
I0
sbaa(lp1867
g0
(g444
g2
Ntp1868
Rp1869
(dp1870
g66
I4
sg67
I1
sg14
(I0
I1
I0
I1
tp1871
sbaa(lp1872
a(lp1873
a(lp1874
a(lp1875
a(lp1876
a(lp1877
a(lp1878
aa(lp1879
(lp1880
a(lp1881
a(lp1882
a(lp1883
a(lp1884
g0
(g444
g2
Ntp1885
Rp1886
(dp1887
g66
I4
sg67
I2
sg14
(I1
I1
I1
I1
tp1888
sbaa(lp1889
a(lp1890
a(lp1891
a(lp1892
a(lp1893
a(lp1894
a(lp1895
aa(lp1896
(lp1897
g0
(g444
g2
Ntp1898
Rp1899
(dp1900
g66
I0
sg67
I3
sg14
(I2
I2
I2
I2
tp1901
sbaa(lp1902
g0
(g444
g2
Ntp1903
Rp1904
(dp1905
g66
I1
sg67
I3
sg14
(I2
I2
I2
I2
tp1906
sbaa(lp1907
g0
(g444
g2
Ntp1908
Rp1909
(dp1910
g66
I2
sg67
I3
sg14
(I2
I3
I0
I1
tp1911
sbaa(lp1912
a(lp1913
g0
(g444
g2
Ntp1914
Rp1915
(dp1916
g66
I4
sg67
I3
sg14
(I1
I0
I1
I0
tp1917
sbaa(lp1918
a(lp1919
a(lp1920
a(lp1921
a(lp1922
a(lp1923
a(lp1924
aa(lp1925
(lp1926
g0
(g277
g2
Ntp1927
Rp1928
(dp1929
g66
I0
sg67
I4
sg68
I01
sbaa(lp1930
g0
(g540
g2
Ntp1931
Rp1932
(dp1933
g66
I1
sg67
I4
sg544
I1
sg545
I0
sbaa(lp1934
g0
(g444
g2
Ntp1935
Rp1936
(dp1937
g66
I2
sg67
I4
sg14
(I1
I1
I1
I1
tp1938
sbaa(lp1939
a(lp1940
g0
(g540
g2
Ntp1941
Rp1942
(dp1943
g66
I4
sg67
I4
sg544
I0
sg545
I0
sbaa(lp1944
a(lp1945
a(lp1946
g0
(g1537
g2
Ntp1947
Rp1948
(dp1949
g66
I7
sg67
I4
sg100
g0
(g1541
g2
Ntp1950
Rp1951
(dp1952
g105
I3
sg106
(lp1953
g0
(g1537
g2
Ntp1954
Rp1955
(dp1956
g66
I8
sg67
I5
sg100
g1951
sg14
(I1
I0
I1
I0
tp1957
sbag0
(g1537
g2
Ntp1958
Rp1959
(dp1960
g66
I8
sg67
I4
sg100
g1951
sg14
(I2
I3
I0
I1
tp1961
sbag1948
asbsg14
(I0
I0
I2
I2
tp1962
sbaa(lp1963
g1959
aa(lp1964
g0
(g444
g2
Ntp1965
Rp1966
(dp1967
g66
I9
sg67
I4
sg14
(I0
I1
I2
I4
tp1968
sbaa(lp1969
g0
(g444
g2
Ntp1970
Rp1971
(dp1972
g66
I10
sg67
I4
sg14
(I2
I4
I0
I1
tp1973
sbaa(lp1974
aa(lp1975
(lp1976
g0
(g540
g2
Ntp1977
Rp1978
(dp1979
g66
I0
sg67
I5
sg544
I1
sg545
I0
sbaa(lp1980
g0
(g540
g2
Ntp1981
Rp1982
(dp1983
g66
I1
sg67
I5
sg544
I1
sg545
I0
sbaa(lp1984
g0
(g444
g2
Ntp1985
Rp1986
(dp1987
g66
I2
sg67
I5
sg14
(I1
I0
I3
I2
tp1988
sbaa(lp1989
g0
(g444
g2
Ntp1990
Rp1991
(dp1992
g66
I3
sg67
I5
sg14
(I2
I2
I2
I2
tp1993
sbaa(lp1994
g0
(g444
g2
Ntp1995
Rp1996
(dp1997
g66
I4
sg67
I5
sg14
(I2
I2
I2
I2
tp1998
sbaa(lp1999
g0
(g444
g2
Ntp2000
Rp2001
(dp2002
g66
I5
sg67
I5
sg14
(I2
I2
I0
I0
tp2003
sbaa(lp2004
a(lp2005
a(lp2006
g1955
aa(lp2007
g0
(g444
g2
Ntp2008
Rp2009
(dp2010
g66
I9
sg67
I5
sg14
(I1
I1
I4
I4
tp2011
sbaa(lp2012
g0
(g444
g2
Ntp2013
Rp2014
(dp2015
g66
I10
sg67
I5
sg14
(I4
I4
I3
I4
tp2016
sbaa(lp2017
g0
(g444
g2
Ntp2018
Rp2019
(dp2020
g66
I11
sg67
I5
sg14
(I2
I4
I2
I4
tp2021
sbaaa(lp2022
(lp2023
a(lp2024
a(lp2025
a(lp2026
a(lp2027
a(lp2028
a(lp2029
a(lp2030
a(lp2031
g0
(g96
g2
Ntp2032
Rp2033
(dp2034
g66
I8
sg67
I6
sg100
g0
(g101
g2
Ntp2035
Rp2036
(dp2037
g105
I1
sg106
(lp2038
g0
(g108
g2
Ntp2039
Rp2040
(dp2041
g100
g2036
sg112
g2036
sg113
I3
sg66
I8
sg67
I9
sg114
Nsbag0
(g108
g2
Ntp2042
Rp2043
(dp2044
g100
g2036
sg112
g2036
sg113
I3
sg66
I8
sg67
I8
sg114
I1
sbag0
(g108
g2
Ntp2045
Rp2046
(dp2047
g100
g2036
sg112
g2036
sg113
I3
sg66
I8
sg67
I7
sg114
I1
sbag2033
asbsg112
g2036
sg121
I3
sbaa(lp2048
g0
(g444
g2
Ntp2049
Rp2050
(dp2051
g66
I9
sg67
I6
sg14
(I1
I1
I4
I4
tp2052
sbaa(lp2053
g0
(g444
g2
Ntp2054
Rp2055
(dp2056
g66
I10
sg67
I6
sg14
(I4
I4
I4
I3
tp2057
sbaa(lp2058
g0
(g444
g2
Ntp2059
Rp2060
(dp2061
g66
I11
sg67
I6
sg14
(I4
I2
I4
I2
tp2062
sbaaa(lp2063
(lp2064
a(lp2065
a(lp2066
g0
(g444
g2
Ntp2067
Rp2068
(dp2069
g66
I2
sg67
I7
sg14
(I0
I0
I2
I2
tp2070
sbaa(lp2071
g0
(g444
g2
Ntp2072
Rp2073
(dp2074
g66
I3
sg67
I7
sg14
(I2
I2
I2
I2
tp2075
sbaa(lp2076
g0
(g444
g2
Ntp2077
Rp2078
(dp2079
g66
I4
sg67
I7
sg14
(I2
I2
I2
I2
tp2080
sbaa(lp2081
g0
(g444
g2
Ntp2082
Rp2083
(dp2084
g66
I5
sg67
I7
sg14
(I2
I2
I0
I0
tp2085
sbaa(lp2086
a(lp2087
a(lp2088
g2046
aa(lp2089
g0
(g444
g2
Ntp2090
Rp2091
(dp2092
g66
I9
sg67
I7
sg14
(I1
I1
I4
I4
tp2093
sbaa(lp2094
g0
(g444
g2
Ntp2095
Rp2096
(dp2097
g66
I10
sg67
I7
sg14
(I4
I4
I1
I1
tp2098
sbaa(lp2099
aa(lp2100
(lp2101
a(lp2102
a(lp2103
a(lp2104
a(lp2105
g0
(g540
g2
Ntp2106
Rp2107
(dp2108
g66
I4
sg67
I8
sg544
I1
sg545
I0
sbaa(lp2109
a(lp2110
a(lp2111
a(lp2112
g2043
aa(lp2113
g0
(g444
g2
Ntp2114
Rp2115
(dp2116
g66
I9
sg67
I8
sg14
(I1
I1
I4
I3
tp2117
sbaa(lp2118
g0
(g444
g2
Ntp2119
Rp2120
(dp2121
g66
I10
sg67
I8
sg14
(I4
I2
I1
I0
tp2122
sbaa(lp2123
aa(lp2124
(lp2125
a(lp2126
a(lp2127
a(lp2128
a(lp2129
g0
(g444
g2
Ntp2130
Rp2131
(dp2132
g66
I4
sg67
I9
sg14
(I0
I1
I0
I1
tp2133
sbaa(lp2134
a(lp2135
a(lp2136
a(lp2137
g2040
aa(lp2138
g0
(g444
g2
Ntp2139
Rp2140
(dp2141
g66
I9
sg67
I9
sg14
(I1
I1
I1
I1
tp2142
sbaa(lp2143
a(lp2144
aa(lp2145
(lp2146
g0
(g444
g2
Ntp2147
Rp2148
(dp2149
g66
I0
sg67
I10
sg14
(I2
I4
I0
I1
tp2150
sbaa(lp2151
a(lp2152
a(lp2153
g0
(g444
g2
Ntp2154
Rp2155
(dp2156
g66
I3
sg67
I10
sg14
(I0
I1
I2
I4
tp2157
sbaa(lp2158
g0
(g444
g2
Ntp2159
Rp2160
(dp2161
g66
I4
sg67
I10
sg14
(I3
I4
I1
I1
tp2162
sbaa(lp2163
a(lp2164
a(lp2165
a(lp2166
a(lp2167
g0
(g444
g2
Ntp2168
Rp2169
(dp2170
g66
I9
sg67
I10
sg14
(I1
I0
I1
I0
tp2171
sbaa(lp2172
a(lp2173
aa(lp2174
(lp2175
g0
(g444
g2
Ntp2176
Rp2177
(dp2178
g66
I0
sg67
I11
sg14
(I4
I4
I1
I1
tp2179
sbaa(lp2180
g0
(cTiles
Fruit
p2181
g2
Ntp2182
Rp2183
(dp2184
g66
I1
sg67
I11
sg105
I2
sbaa(lp2185
g0
(g1380
g2
Ntp2186
Rp2187
(dp2188
g66
I2
sg67
I11
sg1384
I2
sg544
I0
sg545
I0
sbaa(lp2189
g0
(g444
g2
Ntp2190
Rp2191
(dp2192
g66
I3
sg67
I11
sg14
(I1
I1
I4
I4
tp2193
sbaa(lp2194
g0
(g444
g2
Ntp2195
Rp2196
(dp2197
g66
I4
sg67
I11
sg14
(I4
I4
I1
I1
tp2198
sbaa(lp2199
a(lp2200
a(lp2201
a(lp2202
a(lp2203
a(lp2204
a(lp2205
aasg416
I3
sbsg16
(lp2206
I00
aI0
aI00
aI00
asg18
I00
sbag0
(g10
g2
Ntp2207
Rp2208
(dp2209
g14
(I2
I2
I2
I2
tp2210
sg16
(lp2211
I00
aI0
aI00
aI0
asg18
I00
sbag0
(g10
g2
Ntp2212
Rp2213
(dp2214
g14
(I2
I3
I0
I1
tp2215
sg16
(lp2216
I00
aI00
aI0
aI0
asg18
I00
sbaNag0
(g10
g2
Ntp2217
Rp2218
(dp2219
g14
(I1
I1
I1
I1
tp2220
sg16
(lp2221
I0
aI00
aI0
aI00
asg18
I00
sbaNaNaNaNag0
(g10
g2
Ntp2222
Rp2223
(dp2224
g14
(I1
I1
I1
I1
tp2225
sg16
(lp2226
I0
aI00
aI0
aI00
asg18
I00
sbaNaNaa(lp2227
Nag0
(g10
g2
Ntp2228
Rp2229
(dp2230
g14
(I1
I1
I1
I1
tp2231
sg16
(lp2232
I0
aI00
aI0
aI00
asg18
I00
sbaNaNag0
(g33
g2
Ntp2233
Rp2234
(dp2235
g37
S'greedy'
p2236
sg14
(I1
I1
I1
I1
tp2237
sg39
g0
(g40
g2
Ntp2238
Rp2239
(dp2240
g46
I12
sg47
I12
sg48
I64
sg49
I4
sg50
(lp2241
(lp2242
(lp2243
a(lp2244
a(lp2245
a(lp2246
a(lp2247
a(lp2248
a(lp2249
a(lp2250
a(lp2251
a(lp2252
a(lp2253
a(lp2254
aa(lp2255
(lp2256
a(lp2257
a(lp2258
a(lp2259
g0
(g108
g2
Ntp2260
Rp2261
(dp2262
g100
g0
(g101
g2
Ntp2263
Rp2264
(dp2265
g105
I2
sg106
(lp2266
g2261
ag0
(g108
g2
Ntp2267
Rp2268
(dp2269
g100
g2264
sg112
g2264
sg113
I1
sg66
I3
sg67
I2
sg114
I3
sbag0
(g96
g2
Ntp2270
Rp2271
(dp2272
g66
I3
sg67
I3
sg100
g2264
sg112
g2264
sg121
I1
sbasbsg112
g2264
sg113
I1
sg66
I3
sg67
I1
sg114
Nsbaa(lp2273
g0
(g444
g2
Ntp2274
Rp2275
(dp2276
g66
I4
sg67
I1
sg14
(I0
I1
I0
I1
tp2277
sbaa(lp2278
a(lp2279
a(lp2280
a(lp2281
a(lp2282
a(lp2283
a(lp2284
aa(lp2285
(lp2286
a(lp2287
a(lp2288
a(lp2289
g2268
aa(lp2290
g0
(g444
g2
Ntp2291
Rp2292
(dp2293
g66
I4
sg67
I2
sg14
(I1
I1
I1
I1
tp2294
sbaa(lp2295
a(lp2296
a(lp2297
a(lp2298
a(lp2299
a(lp2300
a(lp2301
aa(lp2302
(lp2303
a(lp2304
a(lp2305
a(lp2306
g2271
aa(lp2307
g0
(g444
g2
Ntp2308
Rp2309
(dp2310
g66
I4
sg67
I3
sg14
(I1
I0
I1
I0
tp2311
sbaa(lp2312
a(lp2313
a(lp2314
a(lp2315
a(lp2316
a(lp2317
a(lp2318
aa(lp2319
(lp2320
a(lp2321
a(lp2322
a(lp2323
a(lp2324
a(lp2325
a(lp2326
g0
(g2181
g2
Ntp2327
Rp2328
(dp2329
g66
I6
sg67
I4
sg105
I1
sbaa(lp2330
g0
(g2181
g2
Ntp2331
Rp2332
(dp2333
g66
I7
sg67
I4
sg105
I10
sbaa(lp2334
g0
(g2181
g2
Ntp2335
Rp2336
(dp2337
g66
I8
sg67
I4
sg105
I11
sbaa(lp2338
a(lp2339
a(lp2340
aa(lp2341
(lp2342
a(lp2343
a(lp2344
a(lp2345
a(lp2346
a(lp2347
a(lp2348
g0
(g2181
g2
Ntp2349
Rp2350
(dp2351
g66
I6
sg67
I5
sg105
I2
sbaa(lp2352
g0
(g2181
g2
Ntp2353
Rp2354
(dp2355
g66
I7
sg67
I5
sg105
I9
sbaa(lp2356
g0
(g2181
g2
Ntp2357
Rp2358
(dp2359
g66
I8
sg67
I5
sg105
I12
sbaa(lp2360
a(lp2361
a(lp2362
aa(lp2363
(lp2364
a(lp2365
a(lp2366
a(lp2367
a(lp2368
a(lp2369
a(lp2370
g0
(g2181
g2
Ntp2371
Rp2372
(dp2373
g66
I6
sg67
I6
sg105
I3
sbaa(lp2374
g0
(g2181
g2
Ntp2375
Rp2376
(dp2377
g66
I7
sg67
I6
sg105
I8
sbaa(lp2378
g0
(g2181
g2
Ntp2379
Rp2380
(dp2381
g66
I8
sg67
I6
sg105
I7
sbaa(lp2382
a(lp2383
a(lp2384
aa(lp2385
(lp2386
a(lp2387
a(lp2388
a(lp2389
a(lp2390
a(lp2391
a(lp2392
g0
(g2181
g2
Ntp2393
Rp2394
(dp2395
g66
I6
sg67
I7
sg105
I4
sbaa(lp2396
g0
(g2181
g2
Ntp2397
Rp2398
(dp2399
g66
I7
sg67
I7
sg105
I5
sbaa(lp2400
g0
(g2181
g2
Ntp2401
Rp2402
(dp2403
g66
I8
sg67
I7
sg105
I6
sbaa(lp2404
a(lp2405
a(lp2406
aa(lp2407
(lp2408
a(lp2409
a(lp2410
a(lp2411
a(lp2412
g0
(g444
g2
Ntp2413
Rp2414
(dp2415
g66
I4
sg67
I8
sg14
(I0
I1
I0
I1
tp2416
sbaa(lp2417
a(lp2418
a(lp2419
a(lp2420
a(lp2421
a(lp2422
a(lp2423
aa(lp2424
(lp2425
a(lp2426
a(lp2427
a(lp2428
g0
(g277
g2
Ntp2429
Rp2430
(dp2431
g66
I3
sg67
I9
sg68
I01
sbaa(lp2432
g0
(g444
g2
Ntp2433
Rp2434
(dp2435
g66
I4
sg67
I9
sg14
(I1
I1
I1
I1
tp2436
sbaa(lp2437
a(lp2438
a(lp2439
a(lp2440
a(lp2441
a(lp2442
a(lp2443
aa(lp2444
(lp2445
a(lp2446
a(lp2447
a(lp2448
a(lp2449
g0
(g444
g2
Ntp2450
Rp2451
(dp2452
g66
I4
sg67
I10
sg14
(I1
I0
I1
I0
tp2453
sbaa(lp2454
a(lp2455
a(lp2456
a(lp2457
a(lp2458
a(lp2459
a(lp2460
aa(lp2461
(lp2462
a(lp2463
a(lp2464
a(lp2465
a(lp2466
a(lp2467
a(lp2468
a(lp2469
a(lp2470
a(lp2471
a(lp2472
a(lp2473
aasg416
I3
sbsg16
(lp2474
I0
aI00
aI0
aI00
asg18
I00
sbaNag0
(g33
g2
Ntp2475
Rp2476
(dp2477
g37
S'start'
p2478
sg14
(I1
I1
I1
I1
tp2479
sg39
g0
(g40
g2
Ntp2480
Rp2481
(dp2482
g46
I9
sg47
I22
sg48
I64
sg49
I4
sg50
(lp2483
(lp2484
(lp2485
g0
(g444
g2
Ntp2486
Rp2487
(dp2488
g66
I0
sg67
I0
sg14
(I4
I4
I4
I4
tp2489
sbaa(lp2490
g0
(g444
g2
Ntp2491
Rp2492
(dp2493
g66
I1
sg67
I0
sg14
(I4
I4
I1
I1
tp2494
sbaa(lp2495
a(lp2496
a(lp2497
a(lp2498
a(lp2499
a(lp2500
g0
(g108
g2
Ntp2501
Rp2502
(dp2503
g100
g0
(g101
g2
Ntp2504
Rp2505
(dp2506
g105
I0
sg106
(lp2507
g2502
ag0
(g108
g2
Ntp2508
Rp2509
(dp2510
g100
g2505
sg112
g2505
sg113
I1
sg66
I7
sg67
I1
sg114
I3
sbag0
(g96
g2
Ntp2511
Rp2512
(dp2513
g66
I7
sg67
I2
sg100
g2505
sg112
g2505
sg121
I1
sbasbsg112
g2505
sg113
I1
sg66
I7
sg67
I0
sg114
Nsbaa(lp2514
g0
(g444
g2
Ntp2515
Rp2516
(dp2517
g66
I8
sg67
I0
sg14
(I1
I1
I4
I4
tp2518
sbaaa(lp2519
(lp2520
g0
(g444
g2
Ntp2521
Rp2522
(dp2523
g66
I0
sg67
I1
sg14
(I4
I4
I4
I3
tp2524
sbaa(lp2525
g0
(g444
g2
Ntp2526
Rp2527
(dp2528
g66
I1
sg67
I1
sg14
(I4
I2
I1
I0
tp2529
sbaa(lp2530
a(lp2531
a(lp2532
a(lp2533
a(lp2534
a(lp2535
g2509
aa(lp2536
g0
(g444
g2
Ntp2537
Rp2538
(dp2539
g66
I8
sg67
I1
sg14
(I1
I1
I4
I4
tp2540
sbaaa(lp2541
(lp2542
g0
(g444
g2
Ntp2543
Rp2544
(dp2545
g66
I0
sg67
I2
sg14
(I4
I2
I1
I0
tp2546
sbaa(lp2547
a(lp2548
a(lp2549
a(lp2550
a(lp2551
a(lp2552
a(lp2553
g2512
aa(lp2554
g0
(g444
g2
Ntp2555
Rp2556
(dp2557
g66
I8
sg67
I2
sg14
(I1
I1
I4
I4
tp2558
sbaaa(lp2559
(lp2560
a(lp2561
a(lp2562
a(lp2563
a(lp2564
a(lp2565
a(lp2566
a(lp2567
g0
(g444
g2
Ntp2568
Rp2569
(dp2570
g66
I7
sg67
I3
sg14
(I0
I1
I2
I4
tp2571
sbaa(lp2572
g0
(g444
g2
Ntp2573
Rp2574
(dp2575
g66
I8
sg67
I3
sg14
(I3
I4
I4
I4
tp2576
sbaaa(lp2577
(lp2578
a(lp2579
a(lp2580
a(lp2581
a(lp2582
a(lp2583
a(lp2584
g0
(g444
g2
Ntp2585
Rp2586
(dp2587
g66
I6
sg67
I4
sg14
(I0
I1
I2
I4
tp2588
sbaa(lp2589
g0
(g444
g2
Ntp2590
Rp2591
(dp2592
g66
I7
sg67
I4
sg14
(I3
I4
I4
I4
tp2593
sbaa(lp2594
g0
(g444
g2
Ntp2595
Rp2596
(dp2597
g66
I8
sg67
I4
sg14
(I4
I4
I4
I4
tp2598
sbaaa(lp2599
(lp2600
a(lp2601
a(lp2602
a(lp2603
a(lp2604
a(lp2605
g0
(g2181
g2
Ntp2606
Rp2607
(dp2608
g66
I5
sg67
I5
sg105
I1
sbaa(lp2609
g0
(g444
g2
Ntp2610
Rp2611
(dp2612
g66
I6
sg67
I5
sg14
(I1
I0
I4
I2
tp2613
sbaa(lp2614
g0
(g444
g2
Ntp2615
Rp2616
(dp2617
g66
I7
sg67
I5
sg14
(I4
I3
I4
I4
tp2618
sbaa(lp2619
g0
(g444
g2
Ntp2620
Rp2621
(dp2622
g66
I8
sg67
I5
sg14
(I4
I4
I4
I4
tp2623
sbaaa(lp2624
(lp2625
a(lp2626
a(lp2627
a(lp2628
a(lp2629
a(lp2630
a(lp2631
a(lp2632
g0
(g444
g2
Ntp2633
Rp2634
(dp2635
g66
I7
sg67
I6
sg14
(I1
I1
I4
I4
tp2636
sbaa(lp2637
g0
(g444
g2
Ntp2638
Rp2639
(dp2640
g66
I8
sg67
I6
sg14
(I4
I4
I4
I4
tp2641
sbaaa(lp2642
(lp2643
a(lp2644
a(lp2645
a(lp2646
a(lp2647
a(lp2648
a(lp2649
a(lp2650
g0
(g444
g2
Ntp2651
Rp2652
(dp2653
g66
I7
sg67
I7
sg14
(I1
I1
I4
I4
tp2654
sbaa(lp2655
g0
(g444
g2
Ntp2656
Rp2657
(dp2658
g66
I8
sg67
I7
sg14
(I4
I4
I4
I4
tp2659
sbaaa(lp2660
(lp2661
a(lp2662
a(lp2663
a(lp2664
a(lp2665
a(lp2666
a(lp2667
g0
(g62
g2
Ntp2668
Rp2669
(dp2670
g66
I6
sg67
I8
sg68
I4
sbaa(lp2671
g0
(g444
g2
Ntp2672
Rp2673
(dp2674
g66
I7
sg67
I8
sg14
(I1
I1
I4
I4
tp2675
sbaa(lp2676
g0
(g444
g2
Ntp2677
Rp2678
(dp2679
g66
I8
sg67
I8
sg14
(I4
I4
I4
I4
tp2680
sbaaa(lp2681
(lp2682
a(lp2683
a(lp2684
a(lp2685
a(lp2686
a(lp2687
a(lp2688
a(lp2689
g0
(g444
g2
Ntp2690
Rp2691
(dp2692
g66
I7
sg67
I9
sg14
(I1
I1
I4
I4
tp2693
sbaa(lp2694
g0
(g444
g2
Ntp2695
Rp2696
(dp2697
g66
I8
sg67
I9
sg14
(I4
I4
I4
I4
tp2698
sbaaa(lp2699
(lp2700
a(lp2701
a(lp2702
g0
(g2181
g2
Ntp2703
Rp2704
(dp2705
g66
I2
sg67
I10
sg105
I2
sbaa(lp2706
a(lp2707
a(lp2708
a(lp2709
a(lp2710
g0
(g444
g2
Ntp2711
Rp2712
(dp2713
g66
I7
sg67
I10
sg14
(I1
I1
I4
I4
tp2714
sbaa(lp2715
g0
(g444
g2
Ntp2716
Rp2717
(dp2718
g66
I8
sg67
I10
sg14
(I4
I4
I4
I4
tp2719
sbaaa(lp2720
(lp2721
a(lp2722
a(lp2723
a(lp2724
a(lp2725
a(lp2726
a(lp2727
a(lp2728
g0
(g444
g2
Ntp2729
Rp2730
(dp2731
g66
I7
sg67
I11
sg14
(I1
I1
I4
I4
tp2732
sbaa(lp2733
g0
(g444
g2
Ntp2734
Rp2735
(dp2736
g66
I8
sg67
I11
sg14
(I4
I4
I4
I4
tp2737
sbaaa(lp2738
(lp2739
a(lp2740
a(lp2741
a(lp2742
a(lp2743
a(lp2744
a(lp2745
a(lp2746
g0
(g444
g2
Ntp2747
Rp2748
(dp2749
g66
I7
sg67
I12
sg14
(I1
I1
I4
I4
tp2750
sbaa(lp2751
g0
(g444
g2
Ntp2752
Rp2753
(dp2754
g66
I8
sg67
I12
sg14
(I4
I4
I4
I4
tp2755
sbaaa(lp2756
(lp2757
a(lp2758
a(lp2759
a(lp2760
g0
(g444
g2
Ntp2761
Rp2762
(dp2763
g66
I3
sg67
I13
sg14
(I0
I0
I2
I2
tp2764
sbaa(lp2765
g0
(g444
g2
Ntp2766
Rp2767
(dp2768
g66
I4
sg67
I13
sg14
(I2
I2
I2
I2
tp2769
sbaa(lp2770
g0
(g444
g2
Ntp2771
Rp2772
(dp2773
g66
I5
sg67
I13
sg14
(I2
I2
I2
I2
tp2774
sbaa(lp2775
g0
(g444
g2
Ntp2776
Rp2777
(dp2778
g66
I6
sg67
I13
sg14
(I2
I2
I2
I2
tp2779
sbaa(lp2780
g0
(g444
g2
Ntp2781
Rp2782
(dp2783
g66
I7
sg67
I13
sg14
(I3
I3
I4
I4
tp2784
sbaa(lp2785
g0
(g444
g2
Ntp2786
Rp2787
(dp2788
g66
I8
sg67
I13
sg14
(I4
I4
I4
I4
tp2789
sbaaa(lp2790
(lp2791
a(lp2792
a(lp2793
a(lp2794
a(lp2795
a(lp2796
a(lp2797
a(lp2798
g0
(g444
g2
Ntp2799
Rp2800
(dp2801
g66
I7
sg67
I14
sg14
(I1
I1
I4
I4
tp2802
sbaa(lp2803
g0
(g444
g2
Ntp2804
Rp2805
(dp2806
g66
I8
sg67
I14
sg14
(I4
I4
I4
I4
tp2807
sbaaa(lp2808
(lp2809
a(lp2810
a(lp2811
a(lp2812
g0
(g62
g2
Ntp2813
Rp2814
(dp2815
g66
I3
sg67
I15
sg68
I6
sbaa(lp2816
g0
(g444
g2
Ntp2817
Rp2818
(dp2819
g66
I4
sg67
I15
sg14
(I0
I1
I2
I3
tp2820
sbaa(lp2821
g0
(g444
g2
Ntp2822
Rp2823
(dp2824
g66
I5
sg67
I15
sg14
(I2
I2
I0
I0
tp2825
sbaa(lp2826
a(lp2827
g0
(g444
g2
Ntp2828
Rp2829
(dp2830
g66
I7
sg67
I15
sg14
(I1
I1
I4
I4
tp2831
sbaa(lp2832
g0
(g444
g2
Ntp2833
Rp2834
(dp2835
g66
I8
sg67
I15
sg14
(I4
I4
I4
I4
tp2836
sbaaa(lp2837
(lp2838
a(lp2839
a(lp2840
a(lp2841
g0
(g62
g2
Ntp2842
Rp2843
(dp2844
g66
I3
sg67
I16
sg68
I14
sbaa(lp2845
g0
(g444
g2
Ntp2846
Rp2847
(dp2848
g66
I4
sg67
I16
sg14
(I1
I1
I1
I1
tp2849
sbaa(lp2850
a(lp2851
a(lp2852
g0
(g444
g2
Ntp2853
Rp2854
(dp2855
g66
I7
sg67
I16
sg14
(I1
I1
I4
I4
tp2856
sbaa(lp2857
g0
(g444
g2
Ntp2858
Rp2859
(dp2860
g66
I8
sg67
I16
sg14
(I4
I4
I4
I4
tp2861
sbaaa(lp2862
(lp2863
a(lp2864
a(lp2865
a(lp2866
g0
(g62
g2
Ntp2867
Rp2868
(dp2869
g66
I3
sg67
I17
sg68
I14
sbaa(lp2870
g0
(g444
g2
Ntp2871
Rp2872
(dp2873
g66
I4
sg67
I17
sg14
(I1
I1
I1
I1
tp2874
sbaa(lp2875
a(lp2876
a(lp2877
g0
(g444
g2
Ntp2878
Rp2879
(dp2880
g66
I7
sg67
I17
sg14
(I1
I1
I4
I4
tp2881
sbaa(lp2882
g0
(g444
g2
Ntp2883
Rp2884
(dp2885
g66
I8
sg67
I17
sg14
(I4
I4
I4
I4
tp2886
sbaaa(lp2887
(lp2888
a(lp2889
a(lp2890
a(lp2891
g0
(g62
g2
Ntp2892
Rp2893
(dp2894
g66
I3
sg67
I18
sg68
I14
sbaa(lp2895
g0
(g444
g2
Ntp2896
Rp2897
(dp2898
g66
I4
sg67
I18
sg14
(I1
I1
I1
I1
tp2899
sbaa(lp2900
a(lp2901
a(lp2902
g0
(g444
g2
Ntp2903
Rp2904
(dp2905
g66
I7
sg67
I18
sg14
(I1
I1
I4
I4
tp2906
sbaa(lp2907
g0
(g444
g2
Ntp2908
Rp2909
(dp2910
g66
I8
sg67
I18
sg14
(I4
I4
I4
I4
tp2911
sbaaa(lp2912
(lp2913
a(lp2914
a(lp2915
a(lp2916
g0
(g444
g2
Ntp2917
Rp2918
(dp2919
g66
I3
sg67
I19
sg14
(I0
I1
I2
I4
tp2920
sbaa(lp2921
g0
(g444
g2
Ntp2922
Rp2923
(dp2924
g66
I4
sg67
I19
sg14
(I3
I4
I1
I1
tp2925
sbaa(lp2926
g0
(g2181
g2
Ntp2927
Rp2928
(dp2929
g66
I5
sg67
I19
sg105
I3
sbaa(lp2930
a(lp2931
g0
(g444
g2
Ntp2932
Rp2933
(dp2934
g66
I7
sg67
I19
sg14
(I1
I1
I4
I4
tp2935
sbaa(lp2936
g0
(g444
g2
Ntp2937
Rp2938
(dp2939
g66
I8
sg67
I19
sg14
(I4
I4
I4
I4
tp2940
sbaaa(lp2941
(lp2942
a(lp2943
a(lp2944
a(lp2945
g0
(g444
g2
Ntp2946
Rp2947
(dp2948
g66
I3
sg67
I20
sg14
(I1
I1
I4
I4
tp2949
sbaa(lp2950
g0
(g444
g2
Ntp2951
Rp2952
(dp2953
g66
I4
sg67
I20
sg14
(I4
I4
I3
I4
tp2954
sbaa(lp2955
g0
(g444
g2
Ntp2956
Rp2957
(dp2958
g66
I5
sg67
I20
sg14
(I2
I4
I2
I4
tp2959
sbaa(lp2960
g0
(g444
g2
Ntp2961
Rp2962
(dp2963
g66
I6
sg67
I20
sg14
(I2
I4
I2
I4
tp2964
sbaa(lp2965
g0
(g444
g2
Ntp2966
Rp2967
(dp2968
g66
I7
sg67
I20
sg14
(I3
I4
I4
I4
tp2969
sbaa(lp2970
g0
(g444
g2
Ntp2971
Rp2972
(dp2973
g66
I8
sg67
I20
sg14
(I4
I4
I4
I4
tp2974
sbaaa(lp2975
(lp2976
a(lp2977
a(lp2978
g0
(g277
g2
Ntp2979
Rp2980
(dp2981
g66
I2
sg67
I21
sg68
I01
sbaa(lp2982
g0
(g444
g2
Ntp2983
Rp2984
(dp2985
g66
I3
sg67
I21
sg14
(I1
I1
I4
I4
tp2986
sbaa(lp2987
g0
(g444
g2
Ntp2988
Rp2989
(dp2990
g66
I4
sg67
I21
sg14
(I4
I4
I4
I4
tp2991
sbaa(lp2992
g0
(g444
g2
Ntp2993
Rp2994
(dp2995
g66
I5
sg67
I21
sg14
(I4
I4
I4
I4
tp2996
sbaa(lp2997
g0
(g444
g2
Ntp2998
Rp2999
(dp3000
g66
I6
sg67
I21
sg14
(I4
I4
I4
I4
tp3001
sbaa(lp3002
g0
(g444
g2
Ntp3003
Rp3004
(dp3005
g66
I7
sg67
I21
sg14
(I4
I4
I4
I4
tp3006
sbaa(lp3007
g0
(g444
g2
Ntp3008
Rp3009
(dp3010
g66
I8
sg67
I21
sg14
(I4
I4
I4
I4
tp3011
sbaaasg416
I3
sbsg16
(lp3012
I0
aI00
aI0
aI00
asg18
I00
sbaNaNag0
(g33
g2
Ntp3013
Rp3014
(dp3015
g37
S'dualstrike'
p3016
sg14
(I0
I0
I2
I2
tp3017
sg39
g0
(g40
g2
Ntp3018
Rp3019
(dp3020
g44
g1145
sg46
I12
sg47
I13
sg48
I64
sg49
I4
sg50
(lp3021
(lp3022
(lp3023
g0
(g1153
g2
Ntp3024
Rp3025
(dp3026
g66
I0
sg67
I0
sg14
(I4
I4
I4
I4
tp3027
sbaa(lp3028
g0
(g1153
g2
Ntp3029
Rp3030
(dp3031
g66
I1
sg67
I0
sg14
(I4
I4
I4
I4
tp3032
sbaa(lp3033
g0
(g1153
g2
Ntp3034
Rp3035
(dp3036
g66
I2
sg67
I0
sg14
(I4
I4
I4
I4
tp3037
sbaa(lp3038
g0
(g1153
g2
Ntp3039
Rp3040
(dp3041
g66
I3
sg67
I0
sg14
(I4
I4
I4
I3
tp3042
sbaa(lp3043
g0
(g1153
g2
Ntp3044
Rp3045
(dp3046
g66
I4
sg67
I0
sg14
(I4
I2
I4
I2
tp3047
sbaa(lp3048
g0
(g1153
g2
Ntp3049
Rp3050
(dp3051
g66
I5
sg67
I0
sg14
(I4
I2
I4
I2
tp3052
sbaa(lp3053
g0
(g1153
g2
Ntp3054
Rp3055
(dp3056
g66
I6
sg67
I0
sg14
(I4
I2
I1
I0
tp3057
sbaa(lp3058
a(lp3059
a(lp3060
a(lp3061
a(lp3062
g0
(g1153
g2
Ntp3063
Rp3064
(dp3065
g66
I11
sg67
I0
sg14
(I1
I1
I4
I4
tp3066
sbaaa(lp3067
(lp3068
g0
(g1153
g2
Ntp3069
Rp3070
(dp3071
g66
I0
sg67
I1
sg14
(I4
I2
I4
I2
tp3072
sbaa(lp3073
g0
(g1153
g2
Ntp3074
Rp3075
(dp3076
g66
I1
sg67
I1
sg14
(I4
I2
I4
I2
tp3077
sbaa(lp3078
g0
(g1153
g2
Ntp3079
Rp3080
(dp3081
g66
I2
sg67
I1
sg14
(I4
I3
I4
I4
tp3082
sbaa(lp3083
g0
(g1153
g2
Ntp3084
Rp3085
(dp3086
g66
I3
sg67
I1
sg14
(I4
I4
I1
I1
tp3087
sbaa(lp3088
a(lp3089
g0
(g1035
g2
Ntp3090
Rp3091
(dp3092
g66
I5
sg67
I1
sg68
I3
sbaa(lp3093
g0
(g540
g2
Ntp3094
Rp3095
(dp3096
g66
I6
sg67
I1
sg544
I1
sg545
I0
sbaa(lp3097
a(lp3098
g0
(g1153
g2
Ntp3099
Rp3100
(dp3101
g66
I8
sg67
I1
sg14
(I0
I0
I2
I2
tp3102
sbaa(lp3103
g0
(g1153
g2
Ntp3104
Rp3105
(dp3106
g66
I9
sg67
I1
sg14
(I2
I2
I0
I0
tp3107
sbaa(lp3108
a(lp3109
g0
(g1153
g2
Ntp3110
Rp3111
(dp3112
g66
I11
sg67
I1
sg14
(I1
I1
I4
I4
tp3113
sbaaa(lp3114
(lp3115
a(lp3116
g0
(g2181
g2
Ntp3117
Rp3118
(dp3119
g66
I1
sg67
I2
sg105
I3
sbaa(lp3120
g0
(g1153
g2
Ntp3121
Rp3122
(dp3123
g66
I2
sg67
I2
sg14
(I1
I0
I4
I2
tp3124
sbaa(lp3125
g0
(g1153
g2
Ntp3126
Rp3127
(dp3128
g66
I3
sg67
I2
sg14
(I4
I3
I1
I1
tp3129
sbaa(lp3130
a(lp3131
g0
(g1035
g2
Ntp3132
Rp3133
(dp3134
g66
I5
sg67
I2
sg68
I3
sbaa(lp3135
g0
(g540
g2
Ntp3136
Rp3137
(dp3138
g66
I6
sg67
I2
sg544
I1
sg545
I0
sbaa(lp3139
a(lp3140
a(lp3141
g0
(g1035
g2
Ntp3142
Rp3143
(dp3144
g66
I9
sg67
I2
sg68
I3
sbaa(lp3145
a(lp3146
g0
(g1153
g2
Ntp3147
Rp3148
(dp3149
g66
I11
sg67
I2
sg14
(I1
I1
I4
I4
tp3150
sbaaa(lp3151
(lp3152
a(lp3153
a(lp3154
g0
(g62
g2
Ntp3155
Rp3156
(dp3157
g66
I2
sg67
I3
sg68
I14
sbaa(lp3158
g0
(g1153
g2
Ntp3159
Rp3160
(dp3161
g66
I3
sg67
I3
sg14
(I1
I1
I1
I1
tp3162
sbaa(lp3163
g0
(cInteractives
Jelly
p3164
g2
Ntp3165
Rp3166
(dp3167
g66
I4
sg67
I3
sg100
g0
(g964
g2
Ntp3168
Rp3169
(dp3170
g106
(lp3171
g3166
asbsg545
I0
sg14
(I0
I0
I0
I0
tp3172
sbaa(lp3173
g0
(g1153
g2
Ntp3174
Rp3175
(dp3176
g66
I5
sg67
I3
sg14
(I0
I1
I2
I3
tp3177
sbaa(lp3178
g0
(g1153
g2
Ntp3179
Rp3180
(dp3181
g66
I6
sg67
I3
sg14
(I2
I2
I0
I0
tp3182
sbaa(lp3183
a(lp3184
g0
(g1153
g2
Ntp3185
Rp3186
(dp3187
g66
I8
sg67
I3
sg14
(I0
I1
I2
I4
tp3188
sbaa(lp3189
g0
(g1153
g2
Ntp3190
Rp3191
(dp3192
g66
I9
sg67
I3
sg14
(I2
I4
I0
I1
tp3193
sbaa(lp3194
a(lp3195
g0
(g1153
g2
Ntp3196
Rp3197
(dp3198
g66
I11
sg67
I3
sg14
(I1
I1
I4
I4
tp3199
sbaaa(lp3200
(lp3201
a(lp3202
a(lp3203
g0
(g62
g2
Ntp3204
Rp3205
(dp3206
g66
I2
sg67
I4
sg68
I12
sbaa(lp3207
g0
(g1153
g2
Ntp3208
Rp3209
(dp3210
g66
I3
sg67
I4
sg14
(I1
I0
I1
I0
tp3211
sbaa(lp3212
a(lp3213
g0
(g1153
g2
Ntp3214
Rp3215
(dp3216
g66
I5
sg67
I4
sg14
(I1
I1
I1
I1
tp3217
sbaa(lp3218
a(lp3219
a(lp3220
g0
(g1153
g2
Ntp3221
Rp3222
(dp3223
g66
I8
sg67
I4
sg14
(I1
I1
I4
I4
tp3224
sbaa(lp3225
g0
(g1153
g2
Ntp3226
Rp3227
(dp3228
g66
I9
sg67
I4
sg14
(I4
I4
I1
I1
tp3229
sbaa(lp3230
a(lp3231
g0
(g1153
g2
Ntp3232
Rp3233
(dp3234
g66
I11
sg67
I4
sg14
(I1
I1
I4
I4
tp3235
sbaaa(lp3236
(lp3237
a(lp3238
a(lp3239
a(lp3240
a(lp3241
a(lp3242
g0
(g1153
g2
Ntp3243
Rp3244
(dp3245
g66
I5
sg67
I5
sg14
(I1
I0
I1
I0
tp3246
sbaa(lp3247
a(lp3248
a(lp3249
g0
(g1153
g2
Ntp3250
Rp3251
(dp3252
g66
I8
sg67
I5
sg14
(I1
I1
I4
I4
tp3253
sbaa(lp3254
g0
(g1153
g2
Ntp3255
Rp3256
(dp3257
g66
I9
sg67
I5
sg14
(I4
I4
I1
I1
tp3258
sbaa(lp3259
a(lp3260
g0
(g1153
g2
Ntp3261
Rp3262
(dp3263
g66
I11
sg67
I5
sg14
(I1
I1
I4
I4
tp3264
sbaaa(lp3265
(lp3266
a(lp3267
a(lp3268
a(lp3269
a(lp3270
a(lp3271
g0
(g62
g2
Ntp3272
Rp3273
(dp3274
g66
I5
sg67
I6
sg68
I8
sbaa(lp3275
a(lp3276
g0
(g3164
g2
Ntp3277
Rp3278
(dp3279
g66
I7
sg67
I6
sg100
g0
(g964
g2
Ntp3280
Rp3281
(dp3282
g106
(lp3283
g3278
asbsg545
I0
sg14
(I0
I0
I0
I0
tp3284
sbaa(lp3285
g0
(g1153
g2
Ntp3286
Rp3287
(dp3288
g66
I8
sg67
I6
sg14
(I1
I1
I4
I4
tp3289
sbaa(lp3290
g0
(g1153
g2
Ntp3291
Rp3292
(dp3293
g66
I9
sg67
I6
sg14
(I4
I4
I1
I1
tp3294
sbaa(lp3295
a(lp3296
g0
(g1153
g2
Ntp3297
Rp3298
(dp3299
g66
I11
sg67
I6
sg14
(I1
I1
I4
I4
tp3300
sbaaa(lp3301
(lp3302
a(lp3303
a(lp3304
a(lp3305
a(lp3306
a(lp3307
a(lp3308
a(lp3309
g0
(g96
g2
Ntp3310
Rp3311
(dp3312
g66
I7
sg67
I7
sg100
g0
(g101
g2
Ntp3313
Rp3314
(dp3315
g105
I2
sg106
(lp3316
g0
(g108
g2
Ntp3317
Rp3318
(dp3319
g100
g3314
sg112
g3314
sg113
I1
sg66
I6
sg67
I8
sg114
Nsbag0
(g108
g2
Ntp3320
Rp3321
(dp3322
g100
g3314
sg112
g3314
sg113
I2
sg66
I6
sg67
I9
sg114
I3
sbag0
(g108
g2
Ntp3323
Rp3324
(dp3325
g100
g3314
sg112
g3314
sg113
I3
sg66
I7
sg67
I9
sg114
I0
sbag0
(g108
g2
Ntp3326
Rp3327
(dp3328
g100
g3314
sg112
g3314
sg113
I3
sg66
I7
sg67
I8
sg114
I1
sbag3311
asbsg112
g3314
sg121
I3
sbaa(lp3329
g0
(g1153
g2
Ntp3330
Rp3331
(dp3332
g66
I8
sg67
I7
sg14
(I1
I1
I4
I4
tp3333
sbaa(lp3334
g0
(g1153
g2
Ntp3335
Rp3336
(dp3337
g66
I9
sg67
I7
sg14
(I4
I4
I1
I1
tp3338
sbaa(lp3339
a(lp3340
g0
(g1153
g2
Ntp3341
Rp3342
(dp3343
g66
I11
sg67
I7
sg14
(I1
I0
I4
I2
tp3344
sbaaa(lp3345
(lp3346
a(lp3347
a(lp3348
a(lp3349
a(lp3350
a(lp3351
a(lp3352
g3318
aa(lp3353
g3327
aa(lp3354
g0
(g1153
g2
Ntp3355
Rp3356
(dp3357
g66
I8
sg67
I8
sg14
(I1
I1
I4
I3
tp3358
sbaa(lp3359
g0
(g1153
g2
Ntp3360
Rp3361
(dp3362
g66
I9
sg67
I8
sg14
(I4
I2
I1
I0
tp3363
sbaa(lp3364
a(lp3365
aa(lp3366
(lp3367
a(lp3368
a(lp3369
a(lp3370
a(lp3371
a(lp3372
a(lp3373
g3321
aa(lp3374
g3324
aa(lp3375
g0
(g1153
g2
Ntp3376
Rp3377
(dp3378
g66
I8
sg67
I9
sg14
(I1
I1
I1
I1
tp3379
sbaa(lp3380
g0
(g277
g2
Ntp3381
Rp3382
(dp3383
g66
I9
sg67
I9
sg68
I01
sbaa(lp3384
a(lp3385
aa(lp3386
(lp3387
a(lp3388
a(lp3389
a(lp3390
a(lp3391
a(lp3392
a(lp3393
a(lp3394
a(lp3395
g0
(g1153
g2
Ntp3396
Rp3397
(dp3398
g66
I8
sg67
I10
sg14
(I1
I1
I1
I1
tp3399
sbaa(lp3400
a(lp3401
a(lp3402
aa(lp3403
(lp3404
a(lp3405
a(lp3406
g0
(g1380
g2
Ntp3407
Rp3408
(dp3409
g66
I2
sg67
I11
sg1384
I2
sg544
I01
sg545
I0
sbaa(lp3410
g0
(g1153
g2
Ntp3411
Rp3412
(dp3413
g66
I3
sg67
I11
sg14
(I0
I0
I0
I0
tp3414
sbaa(lp3415
a(lp3416
a(lp3417
a(lp3418
a(lp3419
g0
(g1153
g2
Ntp3420
Rp3421
(dp3422
g66
I8
sg67
I11
sg14
(I1
I1
I1
I1
tp3423
sbaa(lp3424
a(lp3425
a(lp3426
aa(lp3427
(lp3428
a(lp3429
a(lp3430
a(lp3431
a(lp3432
a(lp3433
a(lp3434
a(lp3435
a(lp3436
g0
(g1153
g2
Ntp3437
Rp3438
(dp3439
g66
I8
sg67
I12
sg14
(I1
I1
I1
I1
tp3440
sbaa(lp3441
a(lp3442
a(lp3443
aasg416
I3
sbsg16
(lp3444
I0
aI0
aI00
aI0
asg18
I00
sbag0
(g10
g2
Ntp3445
Rp3446
(dp3447
g14
(I2
I2
I2
I2
tp3448
sg16
(lp3449
I00
aI0
aI00
aI0
asg18
I00
sbag0
(g33
g2
Ntp3450
Rp3451
(dp3452
g37
S'anew'
p3453
sg14
(I3
I3
I1
I1
tp3454
sg39
g0
(g40
g2
Ntp3455
Rp3456
(dp3457
g44
g1145
sg46
I12
sg47
I12
sg48
I64
sg49
I4
sg1146
S'Snow'
p3458
sg50
(lp3459
(lp3460
(lp3461
a(lp3462
a(lp3463
a(lp3464
a(lp3465
a(lp3466
a(lp3467
a(lp3468
a(lp3469
a(lp3470
a(lp3471
a(lp3472
aa(lp3473
(lp3474
a(lp3475
a(lp3476
g0
(g1153
g2
Ntp3477
Rp3478
(dp3479
g66
I2
sg67
I1
sg14
(I0
I1
I2
I4
tp3480
sbaa(lp3481
g0
(g1153
g2
Ntp3482
Rp3483
(dp3484
g66
I3
sg67
I1
sg14
(I2
I4
I0
I1
tp3485
sbaa(lp3486
a(lp3487
a(lp3488
a(lp3489
a(lp3490
a(lp3491
a(lp3492
a(lp3493
aa(lp3494
(lp3495
a(lp3496
a(lp3497
g0
(g1153
g2
Ntp3498
Rp3499
(dp3500
g66
I2
sg67
I2
sg14
(I1
I1
I4
I3
tp3501
sbaa(lp3502
g0
(g1153
g2
Ntp3503
Rp3504
(dp3505
g66
I3
sg67
I2
sg14
(I4
I2
I1
I0
tp3506
sbaa(lp3507
a(lp3508
a(lp3509
a(lp3510
a(lp3511
g0
(g3164
g2
Ntp3512
Rp3513
(dp3514
g66
I8
sg67
I2
sg100
g0
(g964
g2
Ntp3515
Rp3516
(dp3517
g106
(lp3518
g3513
asbsg545
I3
sg14
(I0
I0
I0
I0
tp3519
sbaa(lp3520
g0
(g1153
g2
Ntp3521
Rp3522
(dp3523
g66
I9
sg67
I2
sg14
(I0
I1
I0
I1
tp3524
sbaa(lp3525
a(lp3526
aa(lp3527
(lp3528
a(lp3529
a(lp3530
g0
(g1153
g2
Ntp3531
Rp3532
(dp3533
g66
I2
sg67
I3
sg14
(I1
I0
I1
I0
tp3534
sbaa(lp3535
a(lp3536
a(lp3537
a(lp3538
a(lp3539
a(lp3540
a(lp3541
g0
(g1153
g2
Ntp3542
Rp3543
(dp3544
g66
I9
sg67
I3
sg14
(I1
I1
I1
I1
tp3545
sbaa(lp3546
a(lp3547
aa(lp3548
(lp3549
a(lp3550
a(lp3551
a(lp3552
a(lp3553
a(lp3554
g0
(g3164
g2
Ntp3555
Rp3556
(dp3557
g66
I5
sg67
I4
sg100
g0
(g964
g2
Ntp3558
Rp3559
(dp3560
g106
(lp3561
g3556
asbsg545
I1
sg14
(I0
I0
I0
I0
tp3562
sbaa(lp3563
g0
(g1153
g2
Ntp3564
Rp3565
(dp3566
g66
I6
sg67
I4
sg14
(I0
I1
I0
I1
tp3567
sbaa(lp3568
a(lp3569
a(lp3570
g0
(g1153
g2
Ntp3571
Rp3572
(dp3573
g66
I9
sg67
I4
sg14
(I1
I1
I1
I1
tp3574
sbaa(lp3575
a(lp3576
aa(lp3577
(lp3578
a(lp3579
a(lp3580
a(lp3581
a(lp3582
a(lp3583
a(lp3584
g0
(g1153
g2
Ntp3585
Rp3586
(dp3587
g66
I6
sg67
I5
sg14
(I1
I0
I1
I0
tp3588
sbaa(lp3589
a(lp3590
g0
(g3164
g2
Ntp3591
Rp3592
(dp3593
g66
I8
sg67
I5
sg100
g0
(g964
g2
Ntp3594
Rp3595
(dp3596
g106
(lp3597
g3592
asbsg545
I1
sg14
(I0
I0
I0
I0
tp3598
sbaa(lp3599
g0
(g1153
g2
Ntp3600
Rp3601
(dp3602
g66
I9
sg67
I5
sg14
(I1
I0
I3
I2
tp3603
sbaa(lp3604
g0
(g1153
g2
Ntp3605
Rp3606
(dp3607
g66
I10
sg67
I5
sg14
(I2
I3
I0
I1
tp3608
sbaa(lp3609
aa(lp3610
(lp3611
a(lp3612
a(lp3613
a(lp3614
a(lp3615
a(lp3616
a(lp3617
a(lp3618
a(lp3619
a(lp3620
a(lp3621
g0
(g1153
g2
Ntp3622
Rp3623
(dp3624
g66
I10
sg67
I6
sg14
(I1
I1
I1
I1
tp3625
sbaa(lp3626
aa(lp3627
(lp3628
a(lp3629
a(lp3630
a(lp3631
a(lp3632
a(lp3633
a(lp3634
a(lp3635
a(lp3636
a(lp3637
g0
(g1153
g2
Ntp3638
Rp3639
(dp3640
g66
I9
sg67
I7
sg14
(I0
I1
I2
I3
tp3641
sbaa(lp3642
g0
(g1153
g2
Ntp3643
Rp3644
(dp3645
g66
I10
sg67
I7
sg14
(I3
I2
I1
I0
tp3646
sbaa(lp3647
aa(lp3648
(lp3649
a(lp3650
a(lp3651
a(lp3652
a(lp3653
a(lp3654
a(lp3655
g0
(g1153
g2
Ntp3656
Rp3657
(dp3658
g66
I6
sg67
I8
sg14
(I0
I1
I0
I1
tp3659
sbaa(lp3660
a(lp3661
a(lp3662
g0
(g1153
g2
Ntp3663
Rp3664
(dp3665
g66
I9
sg67
I8
sg14
(I1
I1
I1
I1
tp3666
sbaa(lp3667
a(lp3668
aa(lp3669
(lp3670
a(lp3671
a(lp3672
a(lp3673
a(lp3674
a(lp3675
g0
(g3164
g2
Ntp3676
Rp3677
(dp3678
g66
I5
sg67
I9
sg100
g0
(g964
g2
Ntp3679
Rp3680
(dp3681
g106
(lp3682
g3677
asbsg545
I3
sg14
(I0
I0
I0
I0
tp3683
sbaa(lp3684
g0
(g1153
g2
Ntp3685
Rp3686
(dp3687
g66
I6
sg67
I9
sg14
(I1
I0
I1
I0
tp3688
sbaa(lp3689
a(lp3690
a(lp3691
g0
(g1153
g2
Ntp3692
Rp3693
(dp3694
g66
I9
sg67
I9
sg14
(I1
I1
I1
I1
tp3695
sbaa(lp3696
a(lp3697
aa(lp3698
(lp3699
a(lp3700
a(lp3701
a(lp3702
a(lp3703
a(lp3704
a(lp3705
a(lp3706
a(lp3707
a(lp3708
g0
(g1153
g2
Ntp3709
Rp3710
(dp3711
g66
I9
sg67
I10
sg14
(I1
I0
I1
I0
tp3712
sbaa(lp3713
a(lp3714
aa(lp3715
(lp3716
a(lp3717
a(lp3718
a(lp3719
a(lp3720
a(lp3721
a(lp3722
a(lp3723
a(lp3724
a(lp3725
a(lp3726
a(lp3727
aasg416
I3
sbsg16
(lp3728
I00
aI00
aI0
aI00
asg18
I00
sbaNaNaa(lp3729
Nag0
(g10
g2
Ntp3730
Rp3731
(dp3732
g14
(I1
I0
I3
I2
tp3733
sg16
(lp3734
I0
aI0
aI00
aI00
asg18
I00
sbag0
(g10
g2
Ntp3735
Rp3736
(dp3737
g14
(I2
I2
I2
I2
tp3738
sg16
(lp3739
I00
aI0
aI00
aI0
asg18
I00
sbag0
(g33
g2
Ntp3740
Rp3741
(dp3742
g37
S'unisolid'
p3743
sg14
(I2
I3
I2
I3
tp3744
sg39
g0
(g40
g2
Ntp3745
Rp3746
(dp3747
g46
I12
sg47
I12
sg48
I64
sg49
I4
sg50
(lp3748
(lp3749
(lp3750
a(lp3751
g0
(g277
g2
Ntp3752
Rp3753
(dp3754
g66
I1
sg67
I0
sg68
I01
sbaa(lp3755
a(lp3756
g0
(g444
g2
Ntp3757
Rp3758
(dp3759
g66
I3
sg67
I0
sg14
(I1
I0
I4
I2
tp3760
sbaa(lp3761
g0
(g444
g2
Ntp3762
Rp3763
(dp3764
g66
I4
sg67
I0
sg14
(I4
I2
I1
I0
tp3765
sbaa(lp3766
a(lp3767
a(lp3768
a(lp3769
a(lp3770
a(lp3771
a(lp3772
aa(lp3773
(lp3774
a(lp3775
a(lp3776
a(lp3777
a(lp3778
g0
(g1035
g2
Ntp3779
Rp3780
(dp3781
g66
I4
sg67
I1
sg68
I3
sbaa(lp3782
a(lp3783
a(lp3784
a(lp3785
a(lp3786
a(lp3787
a(lp3788
aa(lp3789
(lp3790
g0
(g444
g2
Ntp3791
Rp3792
(dp3793
g66
I0
sg67
I2
sg14
(I2
I4
I2
I3
tp3794
sbaa(lp3795
g0
(g444
g2
Ntp3796
Rp3797
(dp3798
g66
I1
sg67
I2
sg14
(I2
I2
I2
I2
tp3799
sbaa(lp3800
g0
(g444
g2
Ntp3801
Rp3802
(dp3803
g66
I2
sg67
I2
sg14
(I2
I2
I0
I0
tp3804
sbaa(lp3805
a(lp3806
g0
(g1035
g2
Ntp3807
Rp3808
(dp3809
g66
I4
sg67
I2
sg68
I3
sbaa(lp3810
a(lp3811
a(lp3812
g0
(g444
g2
Ntp3813
Rp3814
(dp3815
g66
I7
sg67
I2
sg14
(I0
I1
I2
I4
tp3816
sbaa(lp3817
g0
(g444
g2
Ntp3818
Rp3819
(dp3820
g66
I8
sg67
I2
sg14
(I2
I4
I0
I1
tp3821
sbaa(lp3822
a(lp3823
a(lp3824
aa(lp3825
(lp3826
g0
(g444
g2
Ntp3827
Rp3828
(dp3829
g66
I0
sg67
I3
sg14
(I4
I4
I1
I1
tp3830
sbaa(lp3831
g0
(g2181
g2
Ntp3832
Rp3833
(dp3834
g66
I1
sg67
I3
sg105
I3
sbaa(lp3835
g0
(g1035
g2
Ntp3836
Rp3837
(dp3838
g66
I2
sg67
I3
sg68
I3
sbaa(lp3839
a(lp3840
g0
(g1035
g2
Ntp3841
Rp3842
(dp3843
g66
I4
sg67
I3
sg68
I1
sbaa(lp3844
a(lp3845
a(lp3846
g0
(g444
g2
Ntp3847
Rp3848
(dp3849
g66
I7
sg67
I3
sg14
(I1
I1
I4
I4
tp3850
sbaa(lp3851
g0
(g444
g2
Ntp3852
Rp3853
(dp3854
g66
I8
sg67
I3
sg14
(I4
I4
I3
I4
tp3855
sbaa(lp3856
g0
(g444
g2
Ntp3857
Rp3858
(dp3859
g66
I9
sg67
I3
sg14
(I2
I4
I0
I1
tp3860
sbaa(lp3861
a(lp3862
aa(lp3863
(lp3864
g0
(g444
g2
Ntp3865
Rp3866
(dp3867
g66
I0
sg67
I4
sg14
(I4
I4
I1
I1
tp3868
sbaa(lp3869
a(lp3870
g0
(g1035
g2
Ntp3871
Rp3872
(dp3873
g66
I2
sg67
I4
sg68
I3
sbaa(lp3874
a(lp3875
a(lp3876
a(lp3877
a(lp3878
g0
(g444
g2
Ntp3879
Rp3880
(dp3881
g66
I7
sg67
I4
sg14
(I1
I1
I4
I4
tp3882
sbaa(lp3883
g0
(g444
g2
Ntp3884
Rp3885
(dp3886
g66
I8
sg67
I4
sg14
(I4
I4
I4
I4
tp3887
sbaa(lp3888
g0
(g444
g2
Ntp3889
Rp3890
(dp3891
g66
I9
sg67
I4
sg14
(I4
I4
I1
I1
tp3892
sbaa(lp3893
a(lp3894
aa(lp3895
(lp3896
g0
(g444
g2
Ntp3897
Rp3898
(dp3899
g66
I0
sg67
I5
sg14
(I4
I4
I1
I1
tp3900
sbaa(lp3901
a(lp3902
g0
(g1035
g2
Ntp3903
Rp3904
(dp3905
g66
I2
sg67
I5
sg68
I3
sbaa(lp3906
a(lp3907
a(lp3908
a(lp3909
a(lp3910
g0
(g444
g2
Ntp3911
Rp3912
(dp3913
g66
I7
sg67
I5
sg14
(I1
I1
I4
I4
tp3914
sbaa(lp3915
g0
(g444
g2
Ntp3916
Rp3917
(dp3918
g66
I8
sg67
I5
sg14
(I4
I4
I4
I4
tp3919
sbaa(lp3920
g0
(g444
g2
Ntp3921
Rp3922
(dp3923
g66
I9
sg67
I5
sg14
(I4
I4
I1
I1
tp3924
sbaa(lp3925
a(lp3926
aa(lp3927
(lp3928
g0
(g444
g2
Ntp3929
Rp3930
(dp3931
g66
I0
sg67
I6
sg14
(I4
I4
I1
I1
tp3932
sbaa(lp3933
a(lp3934
g0
(g1035
g2
Ntp3935
Rp3936
(dp3937
g66
I2
sg67
I6
sg68
I3
sbaa(lp3938
a(lp3939
a(lp3940
a(lp3941
a(lp3942
g0
(g444
g2
Ntp3943
Rp3944
(dp3945
g66
I7
sg67
I6
sg14
(I1
I1
I4
I4
tp3946
sbaa(lp3947
g0
(g444
g2
Ntp3948
Rp3949
(dp3950
g66
I8
sg67
I6
sg14
(I4
I4
I4
I4
tp3951
sbaa(lp3952
g0
(g444
g2
Ntp3953
Rp3954
(dp3955
g66
I9
sg67
I6
sg14
(I4
I4
I1
I1
tp3956
sbaa(lp3957
a(lp3958
aa(lp3959
(lp3960
g0
(g444
g2
Ntp3961
Rp3962
(dp3963
g66
I0
sg67
I7
sg14
(I4
I4
I1
I1
tp3964
sbaa(lp3965
g0
(g2181
g2
Ntp3966
Rp3967
(dp3968
g66
I1
sg67
I7
sg105
I4
sbaa(lp3969
g0
(g1035
g2
Ntp3970
Rp3971
(dp3972
g66
I2
sg67
I7
sg68
I3
sbaa(lp3973
a(lp3974
a(lp3975
a(lp3976
a(lp3977
g0
(g444
g2
Ntp3978
Rp3979
(dp3980
g66
I7
sg67
I7
sg14
(I1
I1
I4
I4
tp3981
sbaa(lp3982
g0
(g444
g2
Ntp3983
Rp3984
(dp3985
g66
I8
sg67
I7
sg14
(I4
I4
I4
I4
tp3986
sbaa(lp3987
g0
(g444
g2
Ntp3988
Rp3989
(dp3990
g66
I9
sg67
I7
sg14
(I4
I4
I1
I1
tp3991
sbaa(lp3992
a(lp3993
aa(lp3994
(lp3995
g0
(g444
g2
Ntp3996
Rp3997
(dp3998
g66
I0
sg67
I8
sg14
(I4
I2
I3
I2
tp3999
sbaa(lp4000
g0
(g444
g2
Ntp4001
Rp4002
(dp4003
g66
I1
sg67
I8
sg14
(I2
I2
I2
I2
tp4004
sbaa(lp4005
g0
(g444
g2
Ntp4006
Rp4007
(dp4008
g66
I2
sg67
I8
sg14
(I2
I2
I0
I0
tp4009
sbaa(lp4010
a(lp4011
a(lp4012
g0
(g96
g2
Ntp4013
Rp4014
(dp4015
g66
I5
sg67
I8
sg100
g0
(g101
g2
Ntp4016
Rp4017
(dp4018
g105
I1
sg106
(lp4019
g0
(g108
g2
Ntp4020
Rp4021
(dp4022
g100
g4017
sg112
g4017
sg113
I3
sg66
I5
sg67
I10
sg114
Nsbag0
(g108
g2
Ntp4023
Rp4024
(dp4025
g100
g4017
sg112
g4017
sg113
I3
sg66
I5
sg67
I9
sg114
I1
sbag4014
asbsg112
g4017
sg121
I3
sbaa(lp4026
g0
(g96
g2
Ntp4027
Rp4028
(dp4029
g66
I6
sg67
I8
sg100
g0
(g101
g2
Ntp4030
Rp4031
(dp4032
g105
I0
sg106
(lp4033
g0
(g108
g2
Ntp4034
Rp4035
(dp4036
g100
g4031
sg112
g4031
sg113
I3
sg66
I6
sg67
I10
sg114
Nsbag0
(g108
g2
Ntp4037
Rp4038
(dp4039
g100
g4031
sg112
g4031
sg113
I3
sg66
I6
sg67
I9
sg114
I1
sbag4028
asbsg112
g4031
sg121
I3
sbaa(lp4040
g0
(g444
g2
Ntp4041
Rp4042
(dp4043
g66
I7
sg67
I8
sg14
(I1
I1
I4
I4
tp4044
sbaa(lp4045
g0
(g444
g2
Ntp4046
Rp4047
(dp4048
g66
I8
sg67
I8
sg14
(I4
I4
I4
I3
tp4049
sbaa(lp4050
g0
(g444
g2
Ntp4051
Rp4052
(dp4053
g66
I9
sg67
I8
sg14
(I4
I2
I1
I0
tp4054
sbaa(lp4055
a(lp4056
aa(lp4057
(lp4058
a(lp4059
a(lp4060
a(lp4061
a(lp4062
a(lp4063
g4024
aa(lp4064
g4038
aa(lp4065
g0
(g444
g2
Ntp4066
Rp4067
(dp4068
g66
I7
sg67
I9
sg14
(I1
I1
I4
I3
tp4069
sbaa(lp4070
g0
(g444
g2
Ntp4071
Rp4072
(dp4073
g66
I8
sg67
I9
sg14
(I4
I2
I1
I0
tp4074
sbaa(lp4075
a(lp4076
a(lp4077
aa(lp4078
(lp4079
a(lp4080
a(lp4081
a(lp4082
a(lp4083
a(lp4084
g4021
aa(lp4085
g4035
aa(lp4086
g0
(g444
g2
Ntp4087
Rp4088
(dp4089
g66
I7
sg67
I10
sg14
(I1
I0
I1
I0
tp4090
sbaa(lp4091
a(lp4092
a(lp4093
a(lp4094
aa(lp4095
(lp4096
a(lp4097
a(lp4098
a(lp4099
a(lp4100
a(lp4101
a(lp4102
a(lp4103
a(lp4104
a(lp4105
a(lp4106
a(lp4107
aasg416
I3
sbsg16
(lp4108
I00
aI01
aI00
aI0
asg18
I00
sbag0
(g10
g2
Ntp4109
Rp4110
(dp4111
g14
(I3
I2
I3
I2
tp4112
sg16
(lp4113
I00
aI0
aI00
aI00
asg18
I00
sbag0
(g33
g2
Ntp4114
Rp4115
(dp4116
g37
S'order'
p4117
sg14
(I2
I3
I2
I3
tp4118
sg39
g0
(g40
g2
Ntp4119
Rp4120
(dp4121
g46
I12
sg47
I12
sg48
I64
sg49
I4
sg50
(lp4122
(lp4123
(lp4124
a(lp4125
a(lp4126
a(lp4127
a(lp4128
a(lp4129
a(lp4130
a(lp4131
g0
(g277
g2
Ntp4132
Rp4133
(dp4134
g66
I7
sg67
I0
sg68
I01
sbaa(lp4135
a(lp4136
g0
(g108
g2
Ntp4137
Rp4138
(dp4139
g100
g0
(g101
g2
Ntp4140
Rp4141
(dp4142
g105
I2
sg106
(lp4143
g4138
ag0
(g96
g2
Ntp4144
Rp4145
(dp4146
g66
I9
sg67
I1
sg100
g4141
sg112
g4141
sg121
I1
sbasbsg112
g4141
sg113
I1
sg66
I9
sg67
I0
sg114
Nsbaa(lp4147
g0
(g444
g2
Ntp4148
Rp4149
(dp4150
g66
I10
sg67
I0
sg14
(I1
I1
I4
I4
tp4151
sbaa(lp4152
g0
(g444
g2
Ntp4153
Rp4154
(dp4155
g66
I11
sg67
I0
sg14
(I4
I4
I4
I4
tp4156
sbaaa(lp4157
(lp4158
a(lp4159
a(lp4160
g0
(g444
g2
Ntp4161
Rp4162
(dp4163
g66
I2
sg67
I1
sg14
(I0
I1
I0
I1
tp4164
sbaa(lp4165
a(lp4166
a(lp4167
a(lp4168
a(lp4169
a(lp4170
a(lp4171
g4145
aa(lp4172
g0
(g444
g2
Ntp4173
Rp4174
(dp4175
g66
I10
sg67
I1
sg14
(I1
I1
I4
I4
tp4176
sbaa(lp4177
g0
(g444
g2
Ntp4178
Rp4179
(dp4180
g66
I11
sg67
I1
sg14
(I4
I4
I4
I4
tp4181
sbaaa(lp4182
(lp4183
a(lp4184
g0
(g62
g2
Ntp4185
Rp4186
(dp4187
g66
I1
sg67
I2
sg68
I4
sbaa(lp4188
g0
(g444
g2
Ntp4189
Rp4190
(dp4191
g66
I2
sg67
I2
sg14
(I1
I0
I1
I0
tp4192
sbaa(lp4193
a(lp4194
a(lp4195
a(lp4196
a(lp4197
a(lp4198
a(lp4199
g0
(g2181
g2
Ntp4200
Rp4201
(dp4202
g66
I9
sg67
I2
sg105
I3
sbaa(lp4203
g0
(g444
g2
Ntp4204
Rp4205
(dp4206
g66
I10
sg67
I2
sg14
(I1
I1
I4
I4
tp4207
sbaa(lp4208
g0
(g444
g2
Ntp4209
Rp4210
(dp4211
g66
I11
sg67
I2
sg14
(I4
I4
I4
I4
tp4212
sbaaa(lp4213
(lp4214
a(lp4215
a(lp4216
a(lp4217
a(lp4218
a(lp4219
a(lp4220
a(lp4221
a(lp4222
a(lp4223
g0
(g444
g2
Ntp4224
Rp4225
(dp4226
g66
I9
sg67
I3
sg14
(I0
I1
I2
I4
tp4227
sbaa(lp4228
g0
(g444
g2
Ntp4229
Rp4230
(dp4231
g66
I10
sg67
I3
sg14
(I3
I4
I4
I4
tp4232
sbaa(lp4233
g0
(g444
g2
Ntp4234
Rp4235
(dp4236
g66
I11
sg67
I3
sg14
(I4
I4
I4
I4
tp4237
sbaaa(lp4238
(lp4239
a(lp4240
a(lp4241
a(lp4242
a(lp4243
a(lp4244
a(lp4245
a(lp4246
a(lp4247
g0
(g444
g2
Ntp4248
Rp4249
(dp4250
g66
I8
sg67
I4
sg14
(I0
I1
I2
I4
tp4251
sbaa(lp4252
g0
(g444
g2
Ntp4253
Rp4254
(dp4255
g66
I9
sg67
I4
sg14
(I3
I4
I4
I4
tp4256
sbaa(lp4257
g0
(g444
g2
Ntp4258
Rp4259
(dp4260
g66
I10
sg67
I4
sg14
(I4
I4
I4
I4
tp4261
sbaa(lp4262
g0
(g444
g2
Ntp4263
Rp4264
(dp4265
g66
I11
sg67
I4
sg14
(I4
I4
I4
I4
tp4266
sbaaa(lp4267
(lp4268
a(lp4269
a(lp4270
a(lp4271
a(lp4272
a(lp4273
a(lp4274
a(lp4275
g0
(g444
g2
Ntp4276
Rp4277
(dp4278
g66
I7
sg67
I5
sg14
(I0
I1
I2
I4
tp4279
sbaa(lp4280
g0
(g444
g2
Ntp4281
Rp4282
(dp4283
g66
I8
sg67
I5
sg14
(I3
I4
I4
I4
tp4284
sbaa(lp4285
g0
(g444
g2
Ntp4286
Rp4287
(dp4288
g66
I9
sg67
I5
sg14
(I4
I4
I4
I4
tp4289
sbaa(lp4290
g0
(g444
g2
Ntp4291
Rp4292
(dp4293
g66
I10
sg67
I5
sg14
(I4
I4
I4
I4
tp4294
sbaa(lp4295
g0
(g444
g2
Ntp4296
Rp4297
(dp4298
g66
I11
sg67
I5
sg14
(I4
I4
I4
I4
tp4299
sbaaa(lp4300
(lp4301
a(lp4302
a(lp4303
a(lp4304
a(lp4305
a(lp4306
a(lp4307
g0
(g444
g2
Ntp4308
Rp4309
(dp4310
g66
I6
sg67
I6
sg14
(I0
I1
I2
I4
tp4311
sbaa(lp4312
g0
(g444
g2
Ntp4313
Rp4314
(dp4315
g66
I7
sg67
I6
sg14
(I3
I4
I4
I4
tp4316
sbaa(lp4317
g0
(g444
g2
Ntp4318
Rp4319
(dp4320
g66
I8
sg67
I6
sg14
(I4
I4
I4
I4
tp4321
sbaa(lp4322
g0
(g444
g2
Ntp4323
Rp4324
(dp4325
g66
I9
sg67
I6
sg14
(I4
I4
I4
I4
tp4326
sbaa(lp4327
g0
(g444
g2
Ntp4328
Rp4329
(dp4330
g66
I10
sg67
I6
sg14
(I4
I4
I4
I4
tp4331
sbaa(lp4332
g0
(g444
g2
Ntp4333
Rp4334
(dp4335
g66
I11
sg67
I6
sg14
(I4
I4
I4
I4
tp4336
sbaaa(lp4337
(lp4338
a(lp4339
a(lp4340
a(lp4341
a(lp4342
a(lp4343
g0
(g444
g2
Ntp4344
Rp4345
(dp4346
g66
I5
sg67
I7
sg14
(I0
I0
I2
I2
tp4347
sbaa(lp4348
g0
(g444
g2
Ntp4349
Rp4350
(dp4351
g66
I6
sg67
I7
sg14
(I3
I2
I4
I2
tp4352
sbaa(lp4353
g0
(g444
g2
Ntp4354
Rp4355
(dp4356
g66
I7
sg67
I7
sg14
(I4
I2
I4
I2
tp4357
sbaa(lp4358
g0
(g444
g2
Ntp4359
Rp4360
(dp4361
g66
I8
sg67
I7
sg14
(I4
I2
I4
I2
tp4362
sbaa(lp4363
g0
(g444
g2
Ntp4364
Rp4365
(dp4366
g66
I9
sg67
I7
sg14
(I4
I2
I4
I2
tp4367
sbaa(lp4368
g0
(g444
g2
Ntp4369
Rp4370
(dp4371
g66
I10
sg67
I7
sg14
(I4
I2
I4
I2
tp4372
sbaa(lp4373
g0
(g444
g2
Ntp4374
Rp4375
(dp4376
g66
I11
sg67
I7
sg14
(I4
I3
I4
I4
tp4377
sbaaa(lp4378
(lp4379
a(lp4380
a(lp4381
a(lp4382
a(lp4383
a(lp4384
a(lp4385
a(lp4386
a(lp4387
a(lp4388
a(lp4389
a(lp4390
g0
(g444
g2
Ntp4391
Rp4392
(dp4393
g66
I11
sg67
I8
sg14
(I1
I1
I4
I4
tp4394
sbaaa(lp4395
(lp4396
a(lp4397
a(lp4398
g0
(g444
g2
Ntp4399
Rp4400
(dp4401
g66
I2
sg67
I9
sg14
(I0
I0
I2
I2
tp4402
sbaa(lp4403
g0
(g444
g2
Ntp4404
Rp4405
(dp4406
g66
I3
sg67
I9
sg14
(I2
I3
I0
I1
tp4407
sbaa(lp4408
a(lp4409
g0
(g444
g2
Ntp4410
Rp4411
(dp4412
g66
I5
sg67
I9
sg14
(I0
I0
I2
I2
tp4413
sbaa(lp4414
g0
(g444
g2
Ntp4415
Rp4416
(dp4417
g66
I6
sg67
I9
sg14
(I2
I2
I0
I0
tp4418
sbaa(lp4419
g0
(g2181
g2
Ntp4420
Rp4421
(dp4422
g66
I7
sg67
I9
sg105
I1
sbaa(lp4423
g0
(g444
g2
Ntp4424
Rp4425
(dp4426
g66
I8
sg67
I9
sg14
(I0
I1
I2
I4
tp4427
sbaa(lp4428
g0
(g444
g2
Ntp4429
Rp4430
(dp4431
g66
I9
sg67
I9
sg14
(I2
I4
I2
I4
tp4432
sbaa(lp4433
g0
(g444
g2
Ntp4434
Rp4435
(dp4436
g66
I10
sg67
I9
sg14
(I2
I4
I2
I4
tp4437
sbaa(lp4438
g0
(g444
g2
Ntp4439
Rp4440
(dp4441
g66
I11
sg67
I9
sg14
(I3
I4
I4
I4
tp4442
sbaaa(lp4443
(lp4444
a(lp4445
a(lp4446
g0
(g62
g2
Ntp4447
Rp4448
(dp4449
g66
I2
sg67
I10
sg68
I12
sbaa(lp4450
g0
(g444
g2
Ntp4451
Rp4452
(dp4453
g66
I3
sg67
I10
sg14
(I1
I1
I1
I1
tp4454
sbaa(lp4455
a(lp4456
a(lp4457
g0
(g1035
g2
Ntp4458
Rp4459
(dp4460
g66
I6
sg67
I10
sg68
I3
sbaa(lp4461
a(lp4462
g0
(g444
g2
Ntp4463
Rp4464
(dp4465
g66
I8
sg67
I10
sg14
(I1
I1
I4
I4
tp4466
sbaa(lp4467
g0
(g444
g2
Ntp4468
Rp4469
(dp4470
g66
I9
sg67
I10
sg14
(I4
I4
I4
I4
tp4471
sbaa(lp4472
g0
(g444
g2
Ntp4473
Rp4474
(dp4475
g66
I10
sg67
I10
sg14
(I4
I4
I4
I4
tp4476
sbaa(lp4477
g0
(g444
g2
Ntp4478
Rp4479
(dp4480
g66
I11
sg67
I10
sg14
(I4
I4
I4
I4
tp4481
sbaaa(lp4482
(lp4483
a(lp4484
a(lp4485
a(lp4486
g0
(g444
g2
Ntp4487
Rp4488
(dp4489
g66
I3
sg67
I11
sg14
(I1
I1
I1
I1
tp4490
sbaa(lp4491
g0
(g2181
g2
Ntp4492
Rp4493
(dp4494
g66
I4
sg67
I11
sg105
I4
sbaa(lp4495
a(lp4496
g0
(g444
g2
Ntp4497
Rp4498
(dp4499
g66
I6
sg67
I11
sg14
(I0
I1
I2
I4
tp4500
sbaa(lp4501
g0
(g444
g2
Ntp4502
Rp4503
(dp4504
g66
I7
sg67
I11
sg14
(I2
I4
I2
I4
tp4505
sbaa(lp4506
g0
(g444
g2
Ntp4507
Rp4508
(dp4509
g66
I8
sg67
I11
sg14
(I3
I4
I4
I4
tp4510
sbaa(lp4511
g0
(g444
g2
Ntp4512
Rp4513
(dp4514
g66
I9
sg67
I11
sg14
(I4
I4
I4
I4
tp4515
sbaa(lp4516
g0
(g444
g2
Ntp4517
Rp4518
(dp4519
g66
I10
sg67
I11
sg14
(I4
I4
I4
I4
tp4520
sbaa(lp4521
g0
(g444
g2
Ntp4522
Rp4523
(dp4524
g66
I11
sg67
I11
sg14
(I4
I4
I4
I4
tp4525
sbaaasg416
I3
sbsg16
(lp4526
I00
aI01
aI00
aI0
asg18
I00
sbag0
(g10
g2
Ntp4527
Rp4528
(dp4529
g14
(I3
I2
I1
I0
tp4530
sg16
(lp4531
I00
aI0
aI0
aI00
asg18
I00
sbaNaNaNaNag0
(g10
g2
Ntp4532
Rp4533
(dp4534
g14
(I1
I1
I1
I1
tp4535
sg16
(lp4536
I0
aI00
aI0
aI00
asg18
I00
sbaNaNaa(lp4537
NaNaNag0
(g10
g2
Ntp4538
Rp4539
(dp4540
g18
I01
sg14
(I1
I1
I1
I1
tp4541
sbaNag0
(g10
g2
Ntp4542
Rp4543
(dp4544
g14
(I1
I1
I1
I1
tp4545
sg16
(lp4546
I0
aI00
aI0
aI00
asg18
I01
sbaNaNaNaNaNag0
(g33
g2
Ntp4547
Rp4548
(dp4549
g37
S'additive'
p4550
sg18
I00
sg39
g0
(g40
g2
Ntp4551
Rp4552
(dp4553
g44
g1145
sg46
I12
sg47
I12
sg48
I64
sg49
I4
sg50
(lp4554
(lp4555
(lp4556
a(lp4557
g0
(g3164
g2
Ntp4558
Rp4559
(dp4560
g66
I1
sg67
I0
sg100
g0
(g964
g2
Ntp4561
Rp4562
(dp4563
g106
(lp4564
g4559
asbsg545
I0
sg14
(I0
I0
I0
I0
tp4565
sbaa(lp4566
g0
(g1153
g2
Ntp4567
Rp4568
(dp4569
g66
I2
sg67
I0
sg14
(I1
I1
I1
I1
tp4570
sbaa(lp4571
a(lp4572
a(lp4573
g0
(g1177
g2
Ntp4574
Rp4575
(dp4576
g66
I5
sg67
I0
sg100
g0
(g964
g2
Ntp4577
Rp4578
(dp4579
g106
(lp4580
g4575
asbsbaa(lp4581
g0
(g540
g2
Ntp4582
Rp4583
(dp4584
g66
I6
sg67
I0
sg544
I1
sg545
I0
sbaa(lp4585
g0
(g277
g2
Ntp4586
Rp4587
(dp4588
g66
I7
sg67
I0
sg68
I01
sbaa(lp4589
g0
(g1153
g2
Ntp4590
Rp4591
(dp4592
g66
I8
sg67
I0
sg14
(I1
I1
I1
I1
tp4593
sbaa(lp4594
a(lp4595
a(lp4596
aa(lp4597
(lp4598
g0
(g3164
g2
Ntp4599
Rp4600
(dp4601
g66
I0
sg67
I1
sg100
g0
(g964
g2
Ntp4602
Rp4603
(dp4604
g106
(lp4605
g4600
asbsg545
I0
sg14
(I0
I0
I0
I0
tp4606
sbaa(lp4607
g0
(g1035
g2
Ntp4608
Rp4609
(dp4610
g66
I1
sg67
I1
sg68
I0
sbaa(lp4611
g0
(g1153
g2
Ntp4612
Rp4613
(dp4614
g66
I2
sg67
I1
sg14
(I1
I1
I1
I1
tp4615
sbaa(lp4616
a(lp4617
a(lp4618
a(lp4619
g0
(g1153
g2
Ntp4620
Rp4621
(dp4622
g66
I6
sg67
I1
sg14
(I0
I1
I2
I3
tp4623
sbaa(lp4624
g0
(g1153
g2
Ntp4625
Rp4626
(dp4627
g66
I7
sg67
I1
sg14
(I2
I2
I2
I2
tp4628
sbaa(lp4629
g0
(g1153
g2
Ntp4630
Rp4631
(dp4632
g66
I8
sg67
I1
sg14
(I3
I2
I1
I0
tp4633
sbaa(lp4634
g0
(g62
g2
Ntp4635
Rp4636
(dp4637
g66
I9
sg67
I1
sg68
I3
sbaa(lp4638
a(lp4639
aa(lp4640
(lp4641
a(lp4642
g0
(g3164
g2
Ntp4643
Rp4644
(dp4645
g66
I1
sg67
I2
sg100
g0
(g964
g2
Ntp4646
Rp4647
(dp4648
g106
(lp4649
g4644
asbsg545
I0
sg14
(I0
I0
I0
I0
tp4650
sbaa(lp4651
g0
(g1153
g2
Ntp4652
Rp4653
(dp4654
g66
I2
sg67
I2
sg14
(I1
I1
I3
I4
tp4655
sbaa(lp4656
g0
(g1153
g2
Ntp4657
Rp4658
(dp4659
g66
I3
sg67
I2
sg14
(I2
I4
I2
I4
tp4660
sbaa(lp4661
g0
(g1153
g2
Ntp4662
Rp4663
(dp4664
g66
I4
sg67
I2
sg14
(I2
I4
I0
I1
tp4665
sbaa(lp4666
a(lp4667
g0
(g1153
g2
Ntp4668
Rp4669
(dp4670
g66
I6
sg67
I2
sg14
(I1
I1
I1
I1
tp4671
sbaa(lp4672
a(lp4673
a(lp4674
g0
(g62
g2
Ntp4675
Rp4676
(dp4677
g66
I9
sg67
I2
sg68
I10
sbaa(lp4678
a(lp4679
aa(lp4680
(lp4681
g0
(g3164
g2
Ntp4682
Rp4683
(dp4684
g66
I0
sg67
I3
sg100
g0
(g964
g2
Ntp4685
Rp4686
(dp4687
g106
(lp4688
g4683
asbsg545
I0
sg14
(I0
I0
I0
I0
tp4689
sbaa(lp4690
g0
(g1035
g2
Ntp4691
Rp4692
(dp4693
g66
I1
sg67
I3
sg68
I0
sbaa(lp4694
g0
(g1153
g2
Ntp4695
Rp4696
(dp4697
g66
I2
sg67
I3
sg14
(I1
I0
I4
I2
tp4698
sbaa(lp4699
g0
(g1153
g2
Ntp4700
Rp4701
(dp4702
g66
I3
sg67
I3
sg14
(I4
I3
I4
I4
tp4703
sbaa(lp4704
g0
(g1153
g2
Ntp4705
Rp4706
(dp4707
g66
I4
sg67
I3
sg14
(I4
I4
I1
I1
tp4708
sbaa(lp4709
a(lp4710
g0
(g1153
g2
Ntp4711
Rp4712
(dp4713
g66
I6
sg67
I3
sg14
(I1
I1
I1
I1
tp4714
sbaa(lp4715
a(lp4716
a(lp4717
g0
(g62
g2
Ntp4718
Rp4719
(dp4720
g66
I9
sg67
I3
sg68
I10
sbaa(lp4721
a(lp4722
aa(lp4723
(lp4724
a(lp4725
a(lp4726
a(lp4727
g0
(g1153
g2
Ntp4728
Rp4729
(dp4730
g66
I3
sg67
I4
sg14
(I1
I0
I4
I2
tp4731
sbaa(lp4732
g0
(g1153
g2
Ntp4733
Rp4734
(dp4735
g66
I4
sg67
I4
sg14
(I4
I3
I1
I1
tp4736
sbaa(lp4737
a(lp4738
g0
(g1153
g2
Ntp4739
Rp4740
(dp4741
g66
I6
sg67
I4
sg14
(I1
I0
I1
I0
tp4742
sbaa(lp4743
a(lp4744
a(lp4745
g0
(g62
g2
Ntp4746
Rp4747
(dp4748
g66
I9
sg67
I4
sg68
I10
sbaa(lp4749
a(lp4750
aa(lp4751
(lp4752
g0
(g3164
g2
Ntp4753
Rp4754
(dp4755
g66
I0
sg67
I5
sg100
g0
(g964
g2
Ntp4756
Rp4757
(dp4758
g106
(lp4759
g4754
asbsg545
I0
sg14
(I0
I0
I0
I0
tp4760
sbaa(lp4761
g0
(g1153
g2
Ntp4762
Rp4763
(dp4764
g66
I1
sg67
I5
sg14
(I0
I1
I0
I1
tp4765
sbaa(lp4766
a(lp4767
a(lp4768
g0
(g1153
g2
Ntp4769
Rp4770
(dp4771
g66
I4
sg67
I5
sg14
(I1
I1
I1
I1
tp4772
sbaa(lp4773
a(lp4774
a(lp4775
a(lp4776
a(lp4777
g0
(g62
g2
Ntp4778
Rp4779
(dp4780
g66
I9
sg67
I5
sg68
I10
sbaa(lp4781
a(lp4782
aa(lp4783
(lp4784
g0
(g1153
g2
Ntp4785
Rp4786
(dp4787
g66
I0
sg67
I6
sg14
(I2
I2
I2
I2
tp4788
sbaa(lp4789
g0
(g1153
g2
Ntp4790
Rp4791
(dp4792
g66
I1
sg67
I6
sg14
(I3
I2
I1
I0
tp4793
sbaa(lp4794
a(lp4795
a(lp4796
g0
(g1153
g2
Ntp4797
Rp4798
(dp4799
g66
I4
sg67
I6
sg14
(I1
I0
I1
I0
tp4800
sbaa(lp4801
a(lp4802
a(lp4803
a(lp4804
a(lp4805
g0
(g62
g2
Ntp4806
Rp4807
(dp4808
g66
I9
sg67
I6
sg68
I10
sbaa(lp4809
a(lp4810
aa(lp4811
(lp4812
g0
(g277
g2
Ntp4813
Rp4814
(dp4815
g66
I0
sg67
I7
sg68
I01
sbaa(lp4816
a(lp4817
a(lp4818
a(lp4819
g0
(g62
g2
Ntp4820
Rp4821
(dp4822
g66
I4
sg67
I7
sg68
I10
sbaa(lp4823
a(lp4824
a(lp4825
a(lp4826
a(lp4827
g0
(g62
g2
Ntp4828
Rp4829
(dp4830
g66
I9
sg67
I7
sg68
I10
sbaa(lp4831
a(lp4832
aa(lp4833
(lp4834
a(lp4835
a(lp4836
a(lp4837
g0
(cSnake
IronSnakeHead
p4838
g2
Ntp4839
Rp4840
(dp4841
g66
I3
sg67
I8
sg100
g0
(cSnake
IronSnake
p4842
g2
Ntp4843
Rp4844
(dp4845
g105
I1
sg106
(lp4846
g0
(cSnake
IronSnakeSeg
p4847
g2
Ntp4848
Rp4849
(dp4850
g100
g4844
sg112
g4844
sg113
I3
sg66
I3
sg67
I10
sg114
Nsbag0
(g4847
g2
Ntp4851
Rp4852
(dp4853
g100
g4844
sg112
g4844
sg113
I3
sg66
I3
sg67
I9
sg114
I1
sbag4840
asbsg112
g4844
sg121
I3
sbaa(lp4854
g0
(g62
g2
Ntp4855
Rp4856
(dp4857
g66
I4
sg67
I8
sg68
I14
sbaa(lp4858
g0
(g1380
g2
Ntp4859
Rp4860
(dp4861
g66
I5
sg67
I8
sg1384
I1
sg544
I01
sg545
I0
sbaa(lp4862
a(lp4863
a(lp4864
a(lp4865
g0
(g62
g2
Ntp4866
Rp4867
(dp4868
g66
I9
sg67
I8
sg68
I10
sbaa(lp4869
a(lp4870
aa(lp4871
(lp4872
a(lp4873
a(lp4874
a(lp4875
g4852
aa(lp4876
g0
(g1153
g2
Ntp4877
Rp4878
(dp4879
g66
I4
sg67
I9
sg14
(I0
I1
I2
I3
tp4880
sbaa(lp4881
g0
(g1153
g2
Ntp4882
Rp4883
(dp4884
g66
I5
sg67
I9
sg14
(I2
I2
I0
I0
tp4885
sbaa(lp4886
a(lp4887
g0
(g1153
g2
Ntp4888
Rp4889
(dp4890
g66
I7
sg67
I9
sg14
(I0
I1
I2
I4
tp4891
sbaa(lp4892
g0
(g1153
g2
Ntp4893
Rp4894
(dp4895
g66
I8
sg67
I9
sg14
(I2
I4
I2
I4
tp4896
sbaa(lp4897
g0
(g1153
g2
Ntp4898
Rp4899
(dp4900
g66
I9
sg67
I9
sg14
(I2
I4
I0
I1
tp4901
sbaa(lp4902
a(lp4903
aa(lp4904
(lp4905
a(lp4906
a(lp4907
a(lp4908
g4849
aa(lp4909
g0
(g1153
g2
Ntp4910
Rp4911
(dp4912
g66
I4
sg67
I10
sg14
(I1
I0
I1
I0
tp4913
sbaa(lp4914
a(lp4915
a(lp4916
g0
(g1153
g2
Ntp4917
Rp4918
(dp4919
g66
I7
sg67
I10
sg14
(I1
I1
I4
I4
tp4920
sbaa(lp4921
g0
(g1153
g2
Ntp4922
Rp4923
(dp4924
g66
I8
sg67
I10
sg14
(I4
I4
I4
I4
tp4925
sbaa(lp4926
g0
(g1153
g2
Ntp4927
Rp4928
(dp4929
g66
I9
sg67
I10
sg14
(I4
I4
I3
I4
tp4930
sbaa(lp4931
g0
(g1153
g2
Ntp4932
Rp4933
(dp4934
g66
I10
sg67
I10
sg14
(I2
I4
I2
I4
tp4935
sbaa(lp4936
g0
(g1153
g2
Ntp4937
Rp4938
(dp4939
g66
I11
sg67
I10
sg14
(I2
I4
I2
I4
tp4940
sbaaa(lp4941
(lp4942
a(lp4943
a(lp4944
a(lp4945
a(lp4946
a(lp4947
a(lp4948
a(lp4949
g0
(g1153
g2
Ntp4950
Rp4951
(dp4952
g66
I7
sg67
I11
sg14
(I1
I1
I4
I4
tp4953
sbaa(lp4954
g0
(g1153
g2
Ntp4955
Rp4956
(dp4957
g66
I8
sg67
I11
sg14
(I4
I4
I4
I4
tp4958
sbaa(lp4959
g0
(g1153
g2
Ntp4960
Rp4961
(dp4962
g66
I9
sg67
I11
sg14
(I4
I4
I4
I4
tp4963
sbaa(lp4964
g0
(g1153
g2
Ntp4965
Rp4966
(dp4967
g66
I10
sg67
I11
sg14
(I4
I4
I4
I4
tp4968
sbaa(lp4969
g0
(g1153
g2
Ntp4970
Rp4971
(dp4972
g66
I11
sg67
I11
sg14
(I4
I4
I4
I4
tp4973
sbaaasg416
I3
sbsg16
(lp4974
I0
aI00
aI0
aI00
asg14
(I1
I1
I1
I1
tp4975
sbaNaNaa(lp4976
NaNaNag0
(g10
g2
Ntp4977
Rp4978
(dp4979
g18
I00
sg16
(lp4980
I0
aI00
aI0
aI01
asg14
(I1
I1
I1
I1
tp4981
sbaNag0
(g33
g2
Ntp4982
Rp4983
(dp4984
g37
S'restraint'
p4985
sg14
(I1
I1
I1
I1
tp4986
sg39
g0
(g40
g2
Ntp4987
Rp4988
(dp4989
g46
I12
sg47
I15
sg48
I64
sg49
I4
sg50
(lp4990
(lp4991
(lp4992
a(lp4993
a(lp4994
a(lp4995
a(lp4996
a(lp4997
a(lp4998
a(lp4999
g0
(g108
g2
Ntp5000
Rp5001
(dp5002
g100
g0
(g101
g2
Ntp5003
Rp5004
(dp5005
g105
I2
sg106
(lp5006
g0
(g108
g2
Ntp5007
Rp5008
(dp5009
g100
g5004
sg112
g5004
sg113
I0
sg66
I8
sg67
I0
sg114
Nsbag5001
ag0
(g108
g2
Ntp5010
Rp5011
(dp5012
g100
g5004
sg112
g5004
sg113
I2
sg66
I7
sg67
I1
sg114
I3
sbag0
(g108
g2
Ntp5013
Rp5014
(dp5015
g100
g5004
sg112
g5004
sg113
I1
sg66
I8
sg67
I1
sg114
I0
sbag0
(g96
g2
Ntp5016
Rp5017
(dp5018
g66
I8
sg67
I2
sg100
g5004
sg112
g5004
sg121
I1
sbasbsg112
g5004
sg113
I1
sg66
I7
sg67
I0
sg114
I2
sbaa(lp5019
g5008
aa(lp5020
g0
(g444
g2
Ntp5021
Rp5022
(dp5023
g66
I9
sg67
I0
sg14
(I1
I1
I4
I4
tp5024
sbaa(lp5025
g0
(g444
g2
Ntp5026
Rp5027
(dp5028
g66
I10
sg67
I0
sg14
(I4
I4
I4
I4
tp5029
sbaa(lp5030
g0
(g444
g2
Ntp5031
Rp5032
(dp5033
g66
I11
sg67
I0
sg14
(I4
I4
I4
I4
tp5034
sbaaa(lp5035
(lp5036
a(lp5037
a(lp5038
a(lp5039
a(lp5040
a(lp5041
a(lp5042
a(lp5043
g5011
aa(lp5044
g5014
aa(lp5045
g0
(g444
g2
Ntp5046
Rp5047
(dp5048
g66
I9
sg67
I1
sg14
(I1
I1
I4
I4
tp5049
sbaa(lp5050
g0
(g444
g2
Ntp5051
Rp5052
(dp5053
g66
I10
sg67
I1
sg14
(I4
I4
I4
I4
tp5054
sbaa(lp5055
g0
(g444
g2
Ntp5056
Rp5057
(dp5058
g66
I11
sg67
I1
sg14
(I4
I4
I4
I4
tp5059
sbaaa(lp5060
(lp5061
a(lp5062
a(lp5063
a(lp5064
a(lp5065
a(lp5066
a(lp5067
a(lp5068
a(lp5069
g5017
aa(lp5070
g0
(g444
g2
Ntp5071
Rp5072
(dp5073
g66
I9
sg67
I2
sg14
(I1
I1
I4
I4
tp5074
sbaa(lp5075
g0
(g444
g2
Ntp5076
Rp5077
(dp5078
g66
I10
sg67
I2
sg14
(I4
I4
I4
I4
tp5079
sbaa(lp5080
g0
(g444
g2
Ntp5081
Rp5082
(dp5083
g66
I11
sg67
I2
sg14
(I4
I4
I4
I4
tp5084
sbaaa(lp5085
(lp5086
a(lp5087
a(lp5088
a(lp5089
a(lp5090
a(lp5091
a(lp5092
a(lp5093
a(lp5094
a(lp5095
g0
(g444
g2
Ntp5096
Rp5097
(dp5098
g66
I9
sg67
I3
sg14
(I1
I1
I4
I4
tp5099
sbaa(lp5100
g0
(g444
g2
Ntp5101
Rp5102
(dp5103
g66
I10
sg67
I3
sg14
(I4
I4
I4
I4
tp5104
sbaa(lp5105
g0
(g444
g2
Ntp5106
Rp5107
(dp5108
g66
I11
sg67
I3
sg14
(I4
I4
I4
I4
tp5109
sbaaa(lp5110
(lp5111
a(lp5112
a(lp5113
a(lp5114
a(lp5115
a(lp5116
a(lp5117
a(lp5118
g0
(g1537
g2
Ntp5119
Rp5120
(dp5121
g66
I7
sg67
I4
sg100
g0
(g1541
g2
Ntp5122
Rp5123
(dp5124
g105
I0
sg106
(lp5125
g0
(g1537
g2
Ntp5126
Rp5127
(dp5128
g66
I8
sg67
I4
sg100
g5123
sg14
(I2
I4
I0
I1
tp5129
sbag5120
ag0
(g1537
g2
Ntp5130
Rp5131
(dp5132
g66
I7
sg67
I5
sg100
g5123
sg14
(I1
I0
I4
I2
tp5133
sbag0
(g1537
g2
Ntp5134
Rp5135
(dp5136
g66
I8
sg67
I5
sg100
g5123
sg14
(I4
I2
I1
I0
tp5137
sbasbsg14
(I0
I1
I2
I4
tp5138
sbaa(lp5139
g5127
aa(lp5140
g0
(g444
g2
Ntp5141
Rp5142
(dp5143
g66
I9
sg67
I4
sg14
(I1
I1
I4
I4
tp5144
sbaa(lp5145
g0
(g444
g2
Ntp5146
Rp5147
(dp5148
g66
I10
sg67
I4
sg14
(I4
I4
I4
I4
tp5149
sbaa(lp5150
g0
(g444
g2
Ntp5151
Rp5152
(dp5153
g66
I11
sg67
I4
sg14
(I4
I4
I4
I4
tp5154
sbaaa(lp5155
(lp5156
a(lp5157
a(lp5158
a(lp5159
a(lp5160
a(lp5161
a(lp5162
a(lp5163
g5131
aa(lp5164
g5135
aa(lp5165
g0
(g444
g2
Ntp5166
Rp5167
(dp5168
g66
I9
sg67
I5
sg14
(I1
I1
I4
I4
tp5169
sbaa(lp5170
g0
(g444
g2
Ntp5171
Rp5172
(dp5173
g66
I10
sg67
I5
sg14
(I4
I4
I4
I4
tp5174
sbaa(lp5175
g0
(g444
g2
Ntp5176
Rp5177
(dp5178
g66
I11
sg67
I5
sg14
(I4
I4
I4
I4
tp5179
sbaaa(lp5180
(lp5181
a(lp5182
a(lp5183
a(lp5184
a(lp5185
a(lp5186
a(lp5187
a(lp5188
a(lp5189
a(lp5190
g0
(g444
g2
Ntp5191
Rp5192
(dp5193
g66
I9
sg67
I6
sg14
(I1
I0
I4
I2
tp5194
sbaa(lp5195
g0
(g444
g2
Ntp5196
Rp5197
(dp5198
g66
I10
sg67
I6
sg14
(I4
I3
I4
I4
tp5199
sbaa(lp5200
g0
(g444
g2
Ntp5201
Rp5202
(dp5203
g66
I11
sg67
I6
sg14
(I4
I4
I4
I4
tp5204
sbaaa(lp5205
(lp5206
a(lp5207
a(lp5208
a(lp5209
a(lp5210
a(lp5211
a(lp5212
a(lp5213
a(lp5214
a(lp5215
a(lp5216
g0
(g444
g2
Ntp5217
Rp5218
(dp5219
g66
I10
sg67
I7
sg14
(I1
I1
I4
I4
tp5220
sbaa(lp5221
g0
(g444
g2
Ntp5222
Rp5223
(dp5224
g66
I11
sg67
I7
sg14
(I4
I4
I4
I4
tp5225
sbaaa(lp5226
(lp5227
a(lp5228
a(lp5229
a(lp5230
a(lp5231
a(lp5232
a(lp5233
a(lp5234
a(lp5235
a(lp5236
a(lp5237
g0
(g444
g2
Ntp5238
Rp5239
(dp5240
g66
I10
sg67
I8
sg14
(I1
I1
I4
I4
tp5241
sbaa(lp5242
g0
(g444
g2
Ntp5243
Rp5244
(dp5245
g66
I11
sg67
I8
sg14
(I4
I4
I4
I4
tp5246
sbaaa(lp5247
(lp5248
a(lp5249
a(lp5250
a(lp5251
a(lp5252
a(lp5253
a(lp5254
a(lp5255
a(lp5256
g0
(g444
g2
Ntp5257
Rp5258
(dp5259
g66
I8
sg67
I9
sg14
(I0
I1
I2
I4
tp5260
sbaa(lp5261
g0
(g444
g2
Ntp5262
Rp5263
(dp5264
g66
I9
sg67
I9
sg14
(I2
I4
I2
I4
tp5265
sbaa(lp5266
g0
(g444
g2
Ntp5267
Rp5268
(dp5269
g66
I10
sg67
I9
sg14
(I3
I4
I4
I4
tp5270
sbaa(lp5271
g0
(g444
g2
Ntp5272
Rp5273
(dp5274
g66
I11
sg67
I9
sg14
(I4
I4
I4
I4
tp5275
sbaaa(lp5276
(lp5277
a(lp5278
a(lp5279
a(lp5280
a(lp5281
a(lp5282
a(lp5283
a(lp5284
a(lp5285
g0
(g444
g2
Ntp5286
Rp5287
(dp5288
g66
I8
sg67
I10
sg14
(I1
I1
I4
I4
tp5289
sbaa(lp5290
g0
(g444
g2
Ntp5291
Rp5292
(dp5293
g66
I9
sg67
I10
sg14
(I4
I4
I4
I4
tp5294
sbaa(lp5295
g0
(g444
g2
Ntp5296
Rp5297
(dp5298
g66
I10
sg67
I10
sg14
(I4
I4
I4
I4
tp5299
sbaa(lp5300
g0
(g444
g2
Ntp5301
Rp5302
(dp5303
g66
I11
sg67
I10
sg14
(I4
I4
I4
I4
tp5304
sbaaa(lp5305
(lp5306
a(lp5307
a(lp5308
a(lp5309
a(lp5310
a(lp5311
a(lp5312
a(lp5313
g0
(g277
g2
Ntp5314
Rp5315
(dp5316
g66
I7
sg67
I11
sg68
I01
sbaa(lp5317
g0
(g444
g2
Ntp5318
Rp5319
(dp5320
g66
I8
sg67
I11
sg14
(I1
I1
I4
I4
tp5321
sbaa(lp5322
g0
(g444
g2
Ntp5323
Rp5324
(dp5325
g66
I9
sg67
I11
sg14
(I4
I4
I4
I4
tp5326
sbaa(lp5327
g0
(g444
g2
Ntp5328
Rp5329
(dp5330
g66
I10
sg67
I11
sg14
(I4
I4
I4
I4
tp5331
sbaa(lp5332
g0
(g444
g2
Ntp5333
Rp5334
(dp5335
g66
I11
sg67
I11
sg14
(I4
I4
I4
I4
tp5336
sbaaa(lp5337
(lp5338
a(lp5339
a(lp5340
a(lp5341
g0
(g444
g2
Ntp5342
Rp5343
(dp5344
g66
I3
sg67
I12
sg14
(I0
I1
I2
I4
tp5345
sbaa(lp5346
g0
(g444
g2
Ntp5347
Rp5348
(dp5349
g66
I4
sg67
I12
sg14
(I2
I4
I2
I4
tp5350
sbaa(lp5351
g0
(g444
g2
Ntp5352
Rp5353
(dp5354
g66
I5
sg67
I12
sg14
(I2
I4
I2
I4
tp5355
sbaa(lp5356
g0
(g444
g2
Ntp5357
Rp5358
(dp5359
g66
I6
sg67
I12
sg14
(I2
I4
I2
I4
tp5360
sbaa(lp5361
g0
(g444
g2
Ntp5362
Rp5363
(dp5364
g66
I7
sg67
I12
sg14
(I2
I4
I2
I4
tp5365
sbaa(lp5366
g0
(g444
g2
Ntp5367
Rp5368
(dp5369
g66
I8
sg67
I12
sg14
(I3
I4
I4
I4
tp5370
sbaa(lp5371
g0
(g444
g2
Ntp5372
Rp5373
(dp5374
g66
I9
sg67
I12
sg14
(I4
I4
I4
I4
tp5375
sbaa(lp5376
g0
(g444
g2
Ntp5377
Rp5378
(dp5379
g66
I10
sg67
I12
sg14
(I4
I4
I4
I4
tp5380
sbaa(lp5381
g0
(g444
g2
Ntp5382
Rp5383
(dp5384
g66
I11
sg67
I12
sg14
(I4
I4
I4
I4
tp5385
sbaaa(lp5386
(lp5387
a(lp5388
g0
(g2181
g2
Ntp5389
Rp5390
(dp5391
g66
I1
sg67
I13
sg105
I2
sbaa(lp5392
a(lp5393
g0
(g444
g2
Ntp5394
Rp5395
(dp5396
g66
I3
sg67
I13
sg14
(I1
I1
I4
I4
tp5397
sbaa(lp5398
g0
(g444
g2
Ntp5399
Rp5400
(dp5401
g66
I4
sg67
I13
sg14
(I4
I4
I4
I4
tp5402
sbaa(lp5403
g0
(g444
g2
Ntp5404
Rp5405
(dp5406
g66
I5
sg67
I13
sg14
(I4
I4
I4
I4
tp5407
sbaa(lp5408
g0
(g444
g2
Ntp5409
Rp5410
(dp5411
g66
I6
sg67
I13
sg14
(I4
I4
I4
I4
tp5412
sbaa(lp5413
g0
(g444
g2
Ntp5414
Rp5415
(dp5416
g66
I7
sg67
I13
sg14
(I4
I4
I4
I4
tp5417
sbaa(lp5418
g0
(g444
g2
Ntp5419
Rp5420
(dp5421
g66
I8
sg67
I13
sg14
(I4
I4
I4
I4
tp5422
sbaa(lp5423
g0
(g444
g2
Ntp5424
Rp5425
(dp5426
g66
I9
sg67
I13
sg14
(I4
I4
I4
I4
tp5427
sbaa(lp5428
g0
(g444
g2
Ntp5429
Rp5430
(dp5431
g66
I10
sg67
I13
sg14
(I4
I4
I4
I4
tp5432
sbaa(lp5433
g0
(g444
g2
Ntp5434
Rp5435
(dp5436
g66
I11
sg67
I13
sg14
(I4
I4
I4
I4
tp5437
sbaaa(lp5438
(lp5439
a(lp5440
a(lp5441
a(lp5442
g0
(g444
g2
Ntp5443
Rp5444
(dp5445
g66
I3
sg67
I14
sg14
(I1
I1
I4
I4
tp5446
sbaa(lp5447
g0
(g444
g2
Ntp5448
Rp5449
(dp5450
g66
I4
sg67
I14
sg14
(I4
I4
I4
I4
tp5451
sbaa(lp5452
g0
(g444
g2
Ntp5453
Rp5454
(dp5455
g66
I5
sg67
I14
sg14
(I4
I4
I4
I4
tp5456
sbaa(lp5457
g0
(g444
g2
Ntp5458
Rp5459
(dp5460
g66
I6
sg67
I14
sg14
(I4
I4
I4
I4
tp5461
sbaa(lp5462
g0
(g444
g2
Ntp5463
Rp5464
(dp5465
g66
I7
sg67
I14
sg14
(I4
I4
I4
I4
tp5466
sbaa(lp5467
g0
(g444
g2
Ntp5468
Rp5469
(dp5470
g66
I8
sg67
I14
sg14
(I4
I4
I4
I4
tp5471
sbaa(lp5472
g0
(g444
g2
Ntp5473
Rp5474
(dp5475
g66
I9
sg67
I14
sg14
(I4
I4
I4
I4
tp5476
sbaa(lp5477
g0
(g444
g2
Ntp5478
Rp5479
(dp5480
g66
I10
sg67
I14
sg14
(I4
I4
I4
I4
tp5481
sbaa(lp5482
g0
(g444
g2
Ntp5483
Rp5484
(dp5485
g66
I11
sg67
I14
sg14
(I4
I4
I4
I4
tp5486
sbaaasg416
I3
sbsg16
(lp5487
I0
aI00
aI0
aI01
asg18
I00
sbaNaNaNaNaNag0
(g10
g2
Ntp5488
Rp5489
(dp5490
g18
I00
sg16
(lp5491
I0
aI01
aI0
aI00
asg14
(I1
I1
I1
I1
tp5492
sbaNaNaa(lp5493
Nag0
(g10
g2
Ntp5494
Rp5495
(dp5496
g14
(I0
I1
I2
I3
tp5497
sg16
(lp5498
I0
aI00
aI00
aI0
asg18
I00
sbag0
(g10
g2
Ntp5499
Rp5500
(dp5501
g14
(I2
I2
I2
I2
tp5502
sg16
(lp5503
I00
aI0
aI00
aI0
asg18
I00
sbag0
(g33
g2
Ntp5504
Rp5505
(dp5506
g37
S'confusing'
p5507
sg14
(I3
I3
I1
I1
tp5508
sg39
g0
(g40
g2
Ntp5509
Rp5510
(dp5511
g46
I12
sg47
I12
sg48
I64
sg49
I4
sg50
(lp5512
(lp5513
(lp5514
a(lp5515
a(lp5516
a(lp5517
g0
(cTiles
CloudBlock
p5518
g2
Ntp5519
Rp5520
(dp5521
g66
I3
sg67
I0
sg100
g0
(g964
g2
Ntp5522
Rp5523
(dp5524
g106
(lp5525
g0
(g5518
g2
Ntp5526
Rp5527
(dp5528
g66
I1
sg67
I3
sg100
g5523
sg14
(I1
I0
I4
I2
tp5529
sbag0
(g5518
g2
Ntp5530
Rp5531
(dp5532
g66
I1
sg67
I2
sg100
g5523
sg14
(I0
I1
I2
I4
tp5533
sbag0
(g5518
g2
Ntp5534
Rp5535
(dp5536
g66
I2
sg67
I2
sg100
g5523
sg14
(I3
I4
I4
I4
tp5537
sbag0
(g5518
g2
Ntp5538
Rp5539
(dp5540
g66
I2
sg67
I1
sg100
g5523
sg14
(I0
I1
I2
I4
tp5541
sbag0
(g5518
g2
Ntp5542
Rp5543
(dp5544
g66
I3
sg67
I1
sg100
g5523
sg14
(I3
I4
I4
I4
tp5545
sbag5520
ag0
(g5518
g2
Ntp5546
Rp5547
(dp5548
g66
I4
sg67
I0
sg100
g5523
sg14
(I2
I4
I0
I1
tp5549
sbag0
(g5518
g2
Ntp5550
Rp5551
(dp5552
g66
I4
sg67
I1
sg100
g5523
sg14
(I4
I4
I1
I1
tp5553
sbag0
(g5518
g2
Ntp5554
Rp5555
(dp5556
g66
I4
sg67
I2
sg100
g5523
sg14
(I4
I2
I1
I0
tp5557
sbag0
(g5518
g2
Ntp5558
Rp5559
(dp5560
g66
I3
sg67
I3
sg100
g5523
sg14
(I4
I2
I1
I0
tp5561
sbag0
(g5518
g2
Ntp5562
Rp5563
(dp5564
g66
I2
sg67
I3
sg100
g5523
sg14
(I4
I2
I4
I2
tp5565
sbag0
(g5518
g2
Ntp5566
Rp5567
(dp5568
g66
I3
sg67
I2
sg100
g5523
sg14
(I4
I4
I4
I3
tp5569
sbasbsg14
(I0
I1
I2
I4
tp5570
sbaa(lp5571
g5547
aa(lp5572
a(lp5573
a(lp5574
a(lp5575
a(lp5576
g0
(g108
g2
Ntp5577
Rp5578
(dp5579
g100
g0
(g101
g2
Ntp5580
Rp5581
(dp5582
g105
I0
sg106
(lp5583
g5578
ag0
(g108
g2
Ntp5584
Rp5585
(dp5586
g100
g5581
sg112
g5581
sg113
I1
sg66
I9
sg67
I1
sg114
I3
sbag0
(g108
g2
Ntp5587
Rp5588
(dp5589
g100
g5581
sg112
g5581
sg113
I1
sg66
I9
sg67
I2
sg114
I3
sbag0
(g108
g2
Ntp5590
Rp5591
(dp5592
g100
g5581
sg112
g5581
sg113
I1
sg66
I9
sg67
I3
sg114
I3
sbag0
(g96
g2
Ntp5593
Rp5594
(dp5595
g66
I9
sg67
I4
sg100
g5581
sg112
g5581
sg121
I1
sbasbsg112
g5581
sg113
I1
sg66
I9
sg67
I0
sg114
Nsbaa(lp5596
g0
(g444
g2
Ntp5597
Rp5598
(dp5599
g66
I10
sg67
I0
sg14
(I1
I1
I4
I4
tp5600
sbaa(lp5601
g0
(g444
g2
Ntp5602
Rp5603
(dp5604
g66
I11
sg67
I0
sg14
(I4
I4
I4
I4
tp5605
sbaaa(lp5606
(lp5607
a(lp5608
a(lp5609
g5539
aa(lp5610
g5543
aa(lp5611
g5551
aa(lp5612
a(lp5613
a(lp5614
a(lp5615
a(lp5616
g5585
aa(lp5617
g0
(g444
g2
Ntp5618
Rp5619
(dp5620
g66
I10
sg67
I1
sg14
(I1
I1
I4
I4
tp5621
sbaa(lp5622
g0
(g444
g2
Ntp5623
Rp5624
(dp5625
g66
I11
sg67
I1
sg14
(I4
I4
I4
I4
tp5626
sbaaa(lp5627
(lp5628
a(lp5629
g5531
aa(lp5630
g5535
aa(lp5631
g5567
aa(lp5632
g5555
aa(lp5633
a(lp5634
a(lp5635
a(lp5636
a(lp5637
g5588
aa(lp5638
g0
(g444
g2
Ntp5639
Rp5640
(dp5641
g66
I10
sg67
I2
sg14
(I1
I1
I4
I4
tp5642
sbaa(lp5643
g0
(g444
g2
Ntp5644
Rp5645
(dp5646
g66
I11
sg67
I2
sg14
(I4
I4
I4
I4
tp5647
sbaaa(lp5648
(lp5649
a(lp5650
g5527
aa(lp5651
g5563
aa(lp5652
g5559
aa(lp5653
a(lp5654
a(lp5655
g0
(g5518
g2
Ntp5656
Rp5657
(dp5658
g66
I6
sg67
I3
sg100
g0
(g964
g2
Ntp5659
Rp5660
(dp5661
g106
(lp5662
g0
(g5518
g2
Ntp5663
Rp5664
(dp5665
g66
I5
sg67
I5
sg100
g5660
sg14
(I0
I0
I2
I2
tp5666
sbag0
(g5518
g2
Ntp5667
Rp5668
(dp5669
g66
I6
sg67
I5
sg100
g5660
sg14
(I3
I3
I4
I3
tp5670
sbag0
(g5518
g2
Ntp5671
Rp5672
(dp5673
g66
I6
sg67
I4
sg100
g5660
sg14
(I1
I1
I4
I4
tp5674
sbag5657
ag0
(g5518
g2
Ntp5675
Rp5676
(dp5677
g66
I7
sg67
I3
sg100
g5660
sg14
(I2
I4
I0
I1
tp5678
sbag0
(g5518
g2
Ntp5679
Rp5680
(dp5681
g66
I7
sg67
I4
sg100
g5660
sg14
(I4
I4
I1
I1
tp5682
sbag0
(g5518
g2
Ntp5683
Rp5684
(dp5685
g66
I7
sg67
I5
sg100
g5660
sg14
(I4
I2
I1
I0
tp5686
sbag0
(g5518
g2
Ntp5687
Rp5688
(dp5689
g66
I6
sg67
I6
sg100
g5660
sg14
(I1
I0
I1
I0
tp5690
sbasbsg14
(I0
I1
I2
I4
tp5691
sbaa(lp5692
g5676
aa(lp5693
a(lp5694
g5591
aa(lp5695
g0
(g444
g2
Ntp5696
Rp5697
(dp5698
g66
I10
sg67
I3
sg14
(I1
I1
I4
I4
tp5699
sbaa(lp5700
g0
(g444
g2
Ntp5701
Rp5702
(dp5703
g66
I11
sg67
I3
sg14
(I4
I4
I4
I4
tp5704
sbaaa(lp5705
(lp5706
a(lp5707
a(lp5708
a(lp5709
a(lp5710
a(lp5711
a(lp5712
g5672
aa(lp5713
g5680
aa(lp5714
a(lp5715
g5594
aa(lp5716
g0
(g444
g2
Ntp5717
Rp5718
(dp5719
g66
I10
sg67
I4
sg14
(I1
I1
I4
I4
tp5720
sbaa(lp5721
g0
(g444
g2
Ntp5722
Rp5723
(dp5724
g66
I11
sg67
I4
sg14
(I4
I4
I4
I4
tp5725
sbaaa(lp5726
(lp5727
a(lp5728
a(lp5729
a(lp5730
a(lp5731
a(lp5732
g5664
aa(lp5733
g5668
aa(lp5734
g5684
aa(lp5735
a(lp5736
a(lp5737
g0
(g444
g2
Ntp5738
Rp5739
(dp5740
g66
I10
sg67
I5
sg14
(I1
I1
I4
I4
tp5741
sbaa(lp5742
g0
(g444
g2
Ntp5743
Rp5744
(dp5745
g66
I11
sg67
I5
sg14
(I4
I4
I4
I4
tp5746
sbaaa(lp5747
(lp5748
a(lp5749
a(lp5750
g0
(g5518
g2
Ntp5751
Rp5752
(dp5753
g66
I2
sg67
I6
sg100
g0
(g964
g2
Ntp5754
Rp5755
(dp5756
g106
(lp5757
g0
(g5518
g2
Ntp5758
Rp5759
(dp5760
g66
I2
sg67
I7
sg100
g5755
sg14
(I1
I1
I4
I4
tp5761
sbag5752
ag0
(g5518
g2
Ntp5762
Rp5763
(dp5764
g66
I3
sg67
I6
sg100
g5755
sg14
(I2
I4
I0
I1
tp5765
sbag0
(g5518
g2
Ntp5766
Rp5767
(dp5768
g66
I3
sg67
I7
sg100
g5755
sg14
(I4
I4
I1
I1
tp5769
sbag0
(g5518
g2
Ntp5770
Rp5771
(dp5772
g66
I3
sg67
I8
sg100
g5755
sg14
(I4
I4
I1
I1
tp5773
sbag0
(g5518
g2
Ntp5774
Rp5775
(dp5776
g66
I3
sg67
I9
sg100
g5755
sg14
(I4
I2
I1
I0
tp5777
sbag0
(g5518
g2
Ntp5778
Rp5779
(dp5780
g66
I2
sg67
I9
sg100
g5755
sg14
(I1
I0
I4
I2
tp5781
sbag0
(g5518
g2
Ntp5782
Rp5783
(dp5784
g66
I2
sg67
I8
sg100
g5755
sg14
(I1
I1
I4
I4
tp5785
sbasbsg14
(I0
I1
I2
I4
tp5786
sbaa(lp5787
g5763
aa(lp5788
g0
(g96
g2
Ntp5789
Rp5790
(dp5791
g66
I4
sg67
I6
sg100
g0
(g101
g2
Ntp5792
Rp5793
(dp5794
g105
I2
sg106
(lp5795
g0
(g108
g2
Ntp5796
Rp5797
(dp5798
g100
g5793
sg112
g5793
sg113
I3
sg66
I4
sg67
I9
sg114
Nsbag0
(g108
g2
Ntp5799
Rp5800
(dp5801
g100
g5793
sg112
g5793
sg113
I3
sg66
I4
sg67
I8
sg114
I1
sbag0
(g108
g2
Ntp5802
Rp5803
(dp5804
g100
g5793
sg112
g5793
sg113
I3
sg66
I4
sg67
I7
sg114
I1
sbag5790
asS'grav'
p5805
I-1
sbsg112
g5793
sg121
I3
sbaa(lp5806
a(lp5807
g5688
aa(lp5808
a(lp5809
a(lp5810
a(lp5811
g0
(g444
g2
Ntp5812
Rp5813
(dp5814
g66
I10
sg67
I6
sg14
(I1
I1
I4
I4
tp5815
sbaa(lp5816
g0
(g444
g2
Ntp5817
Rp5818
(dp5819
g66
I11
sg67
I6
sg14
(I4
I4
I4
I4
tp5820
sbaaa(lp5821
(lp5822
a(lp5823
a(lp5824
g5759
aa(lp5825
g5767
aa(lp5826
g5803
aa(lp5827
a(lp5828
a(lp5829
a(lp5830
a(lp5831
a(lp5832
g0
(g444
g2
Ntp5833
Rp5834
(dp5835
g66
I10
sg67
I7
sg14
(I1
I1
I4
I4
tp5836
sbaa(lp5837
g0
(g444
g2
Ntp5838
Rp5839
(dp5840
g66
I11
sg67
I7
sg14
(I4
I4
I4
I4
tp5841
sbaaa(lp5842
(lp5843
a(lp5844
g0
(g277
g2
Ntp5845
Rp5846
(dp5847
g66
I1
sg67
I8
sg68
I01
sbaa(lp5848
g5783
aa(lp5849
g5771
aa(lp5850
g5800
aa(lp5851
a(lp5852
a(lp5853
a(lp5854
a(lp5855
a(lp5856
g0
(g444
g2
Ntp5857
Rp5858
(dp5859
g66
I10
sg67
I8
sg14
(I1
I1
I4
I4
tp5860
sbaa(lp5861
g0
(g444
g2
Ntp5862
Rp5863
(dp5864
g66
I11
sg67
I8
sg14
(I4
I4
I4
I4
tp5865
sbaaa(lp5866
(lp5867
a(lp5868
a(lp5869
g5779
aa(lp5870
g5775
aa(lp5871
g5797
aa(lp5872
a(lp5873
g0
(g444
g2
Ntp5874
Rp5875
(dp5876
g66
I6
sg67
I9
sg14
(I0
I1
I2
I3
tp5877
sbaa(lp5878
g0
(g444
g2
Ntp5879
Rp5880
(dp5881
g66
I7
sg67
I9
sg14
(I2
I2
I2
I2
tp5882
sbaa(lp5883
g0
(g444
g2
Ntp5884
Rp5885
(dp5886
g66
I8
sg67
I9
sg14
(I2
I2
I0
I0
tp5887
sbaa(lp5888
a(lp5889
g0
(g444
g2
Ntp5890
Rp5891
(dp5892
g66
I10
sg67
I9
sg14
(I1
I1
I4
I4
tp5893
sbaa(lp5894
g0
(g444
g2
Ntp5895
Rp5896
(dp5897
g66
I11
sg67
I9
sg14
(I4
I4
I4
I4
tp5898
sbaaa(lp5899
(lp5900
a(lp5901
a(lp5902
a(lp5903
a(lp5904
a(lp5905
a(lp5906
g0
(g444
g2
Ntp5907
Rp5908
(dp5909
g66
I6
sg67
I10
sg14
(I1
I1
I1
I1
tp5910
sbaa(lp5911
g0
(g2181
g2
Ntp5912
Rp5913
(dp5914
g66
I7
sg67
I10
sg105
I1
sbaa(lp5915
a(lp5916
a(lp5917
g0
(g444
g2
Ntp5918
Rp5919
(dp5920
g66
I10
sg67
I10
sg14
(I1
I1
I4
I4
tp5921
sbaa(lp5922
g0
(g444
g2
Ntp5923
Rp5924
(dp5925
g66
I11
sg67
I10
sg14
(I4
I4
I4
I4
tp5926
sbaaa(lp5927
(lp5928
a(lp5929
a(lp5930
a(lp5931
a(lp5932
a(lp5933
a(lp5934
g0
(g444
g2
Ntp5935
Rp5936
(dp5937
g66
I6
sg67
I11
sg14
(I1
I1
I1
I1
tp5938
sbaa(lp5939
a(lp5940
a(lp5941
a(lp5942
g0
(g444
g2
Ntp5943
Rp5944
(dp5945
g66
I10
sg67
I11
sg14
(I1
I1
I4
I4
tp5946
sbaa(lp5947
g0
(g444
g2
Ntp5948
Rp5949
(dp5950
g66
I11
sg67
I11
sg14
(I4
I4
I4
I4
tp5951
sbaaasg416
I3
sbsg16
(lp5952
I00
aI00
aI0
aI00
asg18
I00
sbaNag0
(g10
g2
Ntp5953
Rp5954
(dp5955
g14
(I1
I1
I1
I1
tp5956
sg16
(lp5957
I0
aI00
aI0
aI00
asg18
I00
sbaNag0
(g33
g2
Ntp5958
Rp5959
(dp5960
g37
S'superstacker2'
p5961
sg14
(I0
I1
I2
I3
tp5962
sg39
g0
(g40
g2
Ntp5963
Rp5964
(dp5965
g46
I12
sg47
I12
sg48
I64
sg49
I4
sg50
(lp5966
(lp5967
(lp5968
a(lp5969
a(lp5970
a(lp5971
a(lp5972
a(lp5973
a(lp5974
a(lp5975
a(lp5976
g0
(g108
g2
Ntp5977
Rp5978
(dp5979
g100
g0
(g101
g2
Ntp5980
Rp5981
(dp5982
g105
I1
sg106
(lp5983
g5978
ag0
(g108
g2
Ntp5984
Rp5985
(dp5986
g100
g5981
sg112
g5981
sg113
I1
sg66
I8
sg67
I1
sg114
I3
sbag0
(g96
g2
Ntp5987
Rp5988
(dp5989
g66
I8
sg67
I2
sg100
g5981
sg112
g5981
sg121
I1
sbasbsg112
g5981
sg113
I1
sg66
I8
sg67
I0
sg114
Nsbaa(lp5990
g0
(g108
g2
Ntp5991
Rp5992
(dp5993
g100
g0
(g101
g2
Ntp5994
Rp5995
(dp5996
g105
I0
sg106
(lp5997
g5992
ag0
(g108
g2
Ntp5998
Rp5999
(dp6000
g100
g5995
sg112
g5995
sg113
I1
sg66
I9
sg67
I1
sg114
I3
sbag0
(g108
g2
Ntp6001
Rp6002
(dp6003
g100
g5995
sg112
g5995
sg113
I1
sg66
I9
sg67
I2
sg114
I3
sbag0
(g96
g2
Ntp6004
Rp6005
(dp6006
g66
I9
sg67
I3
sg100
g5995
sg112
g5995
sg121
I1
sbasbsg112
g5995
sg113
I1
sg66
I9
sg67
I0
sg114
Nsbaa(lp6007
g0
(g444
g2
Ntp6008
Rp6009
(dp6010
g66
I10
sg67
I0
sg14
(I1
I1
I4
I4
tp6011
sbaa(lp6012
g0
(g444
g2
Ntp6013
Rp6014
(dp6015
g66
I11
sg67
I0
sg14
(I4
I4
I4
I4
tp6016
sbaaa(lp6017
(lp6018
a(lp6019
a(lp6020
a(lp6021
a(lp6022
g0
(g1537
g2
Ntp6023
Rp6024
(dp6025
g66
I4
sg67
I1
sg100
g0
(g1541
g2
Ntp6026
Rp6027
(dp6028
g105
I2
sg106
(lp6029
g0
(g1537
g2
Ntp6030
Rp6031
(dp6032
g66
I6
sg67
I2
sg100
g6027
sg14
(I2
I2
I0
I0
tp6033
sbag0
(g1537
g2
Ntp6034
Rp6035
(dp6036
g66
I5
sg67
I2
sg100
g6027
sg14
(I2
I2
I2
I2
tp6037
sbag0
(g1537
g2
Ntp6038
Rp6039
(dp6040
g66
I4
sg67
I2
sg100
g6027
sg14
(I1
I0
I3
I2
tp6041
sbag6024
asbsg14
(I0
I1
I0
I1
tp6042
sbaa(lp6043
g0
(g1537
g2
Ntp6044
Rp6045
(dp6046
g66
I5
sg67
I1
sg100
g0
(g1541
g2
Ntp6047
Rp6048
(dp6049
g105
I0
sg106
(lp6050
g0
(g1537
g2
Ntp6051
Rp6052
(dp6053
g66
I7
sg67
I1
sg100
g6048
sg14
(I2
I2
I0
I0
tp6054
sbag0
(g1537
g2
Ntp6055
Rp6056
(dp6057
g66
I6
sg67
I1
sg100
g6048
sg14
(I2
I2
I2
I2
tp6058
sbag6045
asbsg14
(I0
I0
I2
I2
tp6059
sbaa(lp6060
g6056
aa(lp6061
g6052
aa(lp6062
g5985
aa(lp6063
g5999
aa(lp6064
g0
(g444
g2
Ntp6065
Rp6066
(dp6067
g66
I10
sg67
I1
sg14
(I1
I1
I4
I4
tp6068
sbaa(lp6069
g0
(g444
g2
Ntp6070
Rp6071
(dp6072
g66
I11
sg67
I1
sg14
(I4
I4
I4
I4
tp6073
sbaaa(lp6074
(lp6075
a(lp6076
a(lp6077
a(lp6078
a(lp6079
g6039
aa(lp6080
g6035
aa(lp6081
g6031
aa(lp6082
g0
(g1537
g2
Ntp6083
Rp6084
(dp6085
g66
I7
sg67
I2
sg100
g0
(g1541
g2
Ntp6086
Rp6087
(dp6088
g105
I1
sg106
(lp6089
g6084
ag0
(g1537
g2
Ntp6090
Rp6091
(dp6092
g66
I7
sg67
I3
sg100
g6087
sg14
(I3
I2
I1
I0
tp6093
sbag0
(g1537
g2
Ntp6094
Rp6095
(dp6096
g66
I6
sg67
I3
sg100
g6087
sg14
(I0
I0
I2
I2
tp6097
sbasbsg14
(I0
I1
I0
I1
tp6098
sbaa(lp6099
g5988
aa(lp6100
g6002
aa(lp6101
g0
(g444
g2
Ntp6102
Rp6103
(dp6104
g66
I10
sg67
I2
sg14
(I1
I1
I4
I4
tp6105
sbaa(lp6106
g0
(g444
g2
Ntp6107
Rp6108
(dp6109
g66
I11
sg67
I2
sg14
(I4
I4
I4
I4
tp6110
sbaaa(lp6111
(lp6112
a(lp6113
a(lp6114
a(lp6115
a(lp6116
a(lp6117
a(lp6118
g6095
aa(lp6119
g6091
aa(lp6120
a(lp6121
g6005
aa(lp6122
g0
(g444
g2
Ntp6123
Rp6124
(dp6125
g66
I10
sg67
I3
sg14
(I1
I1
I4
I4
tp6126
sbaa(lp6127
g0
(g444
g2
Ntp6128
Rp6129
(dp6130
g66
I11
sg67
I3
sg14
(I4
I4
I4
I4
tp6131
sbaaa(lp6132
(lp6133
a(lp6134
a(lp6135
a(lp6136
a(lp6137
a(lp6138
a(lp6139
a(lp6140
a(lp6141
a(lp6142
a(lp6143
g0
(g444
g2
Ntp6144
Rp6145
(dp6146
g66
I10
sg67
I4
sg14
(I1
I1
I4
I4
tp6147
sbaa(lp6148
g0
(g444
g2
Ntp6149
Rp6150
(dp6151
g66
I11
sg67
I4
sg14
(I4
I4
I4
I4
tp6152
sbaaa(lp6153
(lp6154
a(lp6155
a(lp6156
a(lp6157
a(lp6158
a(lp6159
a(lp6160
a(lp6161
a(lp6162
a(lp6163
a(lp6164
g0
(g444
g2
Ntp6165
Rp6166
(dp6167
g66
I10
sg67
I5
sg14
(I1
I1
I4
I4
tp6168
sbaa(lp6169
g0
(g444
g2
Ntp6170
Rp6171
(dp6172
g66
I11
sg67
I5
sg14
(I4
I4
I4
I4
tp6173
sbaaa(lp6174
(lp6175
a(lp6176
a(lp6177
a(lp6178
a(lp6179
a(lp6180
a(lp6181
a(lp6182
a(lp6183
a(lp6184
a(lp6185
g0
(g444
g2
Ntp6186
Rp6187
(dp6188
g66
I10
sg67
I6
sg14
(I1
I1
I4
I4
tp6189
sbaa(lp6190
g0
(g444
g2
Ntp6191
Rp6192
(dp6193
g66
I11
sg67
I6
sg14
(I4
I4
I4
I4
tp6194
sbaaa(lp6195
(lp6196
a(lp6197
a(lp6198
a(lp6199
a(lp6200
a(lp6201
a(lp6202
a(lp6203
a(lp6204
a(lp6205
a(lp6206
g0
(g444
g2
Ntp6207
Rp6208
(dp6209
g66
I10
sg67
I7
sg14
(I1
I1
I4
I4
tp6210
sbaa(lp6211
g0
(g444
g2
Ntp6212
Rp6213
(dp6214
g66
I11
sg67
I7
sg14
(I4
I4
I4
I4
tp6215
sbaaa(lp6216
(lp6217
a(lp6218
a(lp6219
a(lp6220
a(lp6221
a(lp6222
a(lp6223
a(lp6224
a(lp6225
a(lp6226
a(lp6227
g0
(g444
g2
Ntp6228
Rp6229
(dp6230
g66
I10
sg67
I8
sg14
(I1
I1
I4
I4
tp6231
sbaa(lp6232
g0
(g444
g2
Ntp6233
Rp6234
(dp6235
g66
I11
sg67
I8
sg14
(I4
I4
I4
I4
tp6236
sbaaa(lp6237
(lp6238
a(lp6239
a(lp6240
a(lp6241
a(lp6242
a(lp6243
a(lp6244
a(lp6245
a(lp6246
a(lp6247
a(lp6248
g0
(g444
g2
Ntp6249
Rp6250
(dp6251
g66
I10
sg67
I9
sg14
(I1
I1
I4
I4
tp6252
sbaa(lp6253
g0
(g444
g2
Ntp6254
Rp6255
(dp6256
g66
I11
sg67
I9
sg14
(I4
I4
I4
I4
tp6257
sbaaa(lp6258
(lp6259
a(lp6260
a(lp6261
g0
(g444
g2
Ntp6262
Rp6263
(dp6264
g66
I2
sg67
I10
sg14
(I0
I1
I2
I4
tp6265
sbaa(lp6266
g0
(g444
g2
Ntp6267
Rp6268
(dp6269
g66
I3
sg67
I10
sg14
(I2
I4
I2
I4
tp6270
sbaa(lp6271
g0
(g444
g2
Ntp6272
Rp6273
(dp6274
g66
I4
sg67
I10
sg14
(I2
I4
I2
I4
tp6275
sbaa(lp6276
g0
(g444
g2
Ntp6277
Rp6278
(dp6279
g66
I5
sg67
I10
sg14
(I2
I4
I2
I4
tp6280
sbaa(lp6281
g0
(g444
g2
Ntp6282
Rp6283
(dp6284
g66
I6
sg67
I10
sg14
(I2
I4
I2
I4
tp6285
sbaa(lp6286
g0
(g444
g2
Ntp6287
Rp6288
(dp6289
g66
I7
sg67
I10
sg14
(I2
I4
I2
I4
tp6290
sbaa(lp6291
g0
(g444
g2
Ntp6292
Rp6293
(dp6294
g66
I8
sg67
I10
sg14
(I2
I4
I2
I4
tp6295
sbaa(lp6296
g0
(g444
g2
Ntp6297
Rp6298
(dp6299
g66
I9
sg67
I10
sg14
(I2
I4
I2
I4
tp6300
sbaa(lp6301
g0
(g444
g2
Ntp6302
Rp6303
(dp6304
g66
I10
sg67
I10
sg14
(I3
I4
I4
I4
tp6305
sbaa(lp6306
g0
(g444
g2
Ntp6307
Rp6308
(dp6309
g66
I11
sg67
I10
sg14
(I4
I4
I4
I4
tp6310
sbaaa(lp6311
(lp6312
g0
(g277
g2
Ntp6313
Rp6314
(dp6315
g66
I0
sg67
I11
sg68
I01
sbaa(lp6316
g0
(g444
g2
Ntp6317
Rp6318
(dp6319
g66
I1
sg67
I11
sg14
(I0
I1
I2
I4
tp6320
sbaa(lp6321
g0
(g444
g2
Ntp6322
Rp6323
(dp6324
g66
I2
sg67
I11
sg14
(I3
I4
I4
I4
tp6325
sbaa(lp6326
g0
(g444
g2
Ntp6327
Rp6328
(dp6329
g66
I3
sg67
I11
sg14
(I4
I4
I4
I4
tp6330
sbaa(lp6331
g0
(g444
g2
Ntp6332
Rp6333
(dp6334
g66
I4
sg67
I11
sg14
(I4
I4
I4
I4
tp6335
sbaa(lp6336
g0
(g444
g2
Ntp6337
Rp6338
(dp6339
g66
I5
sg67
I11
sg14
(I4
I4
I4
I4
tp6340
sbaa(lp6341
g0
(g444
g2
Ntp6342
Rp6343
(dp6344
g66
I6
sg67
I11
sg14
(I4
I4
I4
I4
tp6345
sbaa(lp6346
g0
(g444
g2
Ntp6347
Rp6348
(dp6349
g66
I7
sg67
I11
sg14
(I4
I4
I4
I4
tp6350
sbaa(lp6351
g0
(g444
g2
Ntp6352
Rp6353
(dp6354
g66
I8
sg67
I11
sg14
(I4
I4
I4
I4
tp6355
sbaa(lp6356
g0
(g444
g2
Ntp6357
Rp6358
(dp6359
g66
I9
sg67
I11
sg14
(I4
I4
I4
I4
tp6360
sbaa(lp6361
g0
(g444
g2
Ntp6362
Rp6363
(dp6364
g66
I10
sg67
I11
sg14
(I4
I4
I4
I4
tp6365
sbaa(lp6366
g0
(g444
g2
Ntp6367
Rp6368
(dp6369
g66
I11
sg67
I11
sg14
(I4
I4
I4
I4
tp6370
sbaaasg416
I3
sbsg16
(lp6371
I0
aI00
aI00
aI0
asg18
I00
sbag0
(g10
g2
Ntp6372
Rp6373
(dp6374
g18
I00
sg16
(lp6375
I00
aI0
aI01
aI0
asg14
(I2
I2
I2
I2
tp6376
sbag0
(g10
g2
Ntp6377
Rp6378
(dp6379
g18
I01
sg14
(I2
I3
I0
I1
tp6380
sbaNag0
(g10
g2
Ntp6381
Rp6382
(dp6383
g18
I01
sg14
(I1
I1
I1
I1
tp6384
sbaNaNaa(lp6385
Nag0
(g33
g2
Ntp6386
Rp6387
(dp6388
g37
S'twoplay'
p6389
sg14
(I1
I1
I1
I1
tp6390
sg39
g0
(g40
g2
Ntp6391
Rp6392
(dp6393
g46
I12
sg47
I12
sg48
I64
sg49
I4
sg50
(lp6394
(lp6395
(lp6396
a(lp6397
a(lp6398
a(lp6399
a(lp6400
a(lp6401
a(lp6402
a(lp6403
a(lp6404
a(lp6405
a(lp6406
a(lp6407
aa(lp6408
(lp6409
a(lp6410
a(lp6411
a(lp6412
a(lp6413
a(lp6414
a(lp6415
a(lp6416
a(lp6417
a(lp6418
a(lp6419
a(lp6420
aa(lp6421
(lp6422
a(lp6423
a(lp6424
a(lp6425
a(lp6426
a(lp6427
a(lp6428
a(lp6429
a(lp6430
a(lp6431
a(lp6432
a(lp6433
aa(lp6434
(lp6435
a(lp6436
a(lp6437
g0
(g2181
g2
Ntp6438
Rp6439
(dp6440
g66
I2
sg67
I3
sg105
I1
sbaa(lp6441
a(lp6442
a(lp6443
a(lp6444
a(lp6445
a(lp6446
a(lp6447
a(lp6448
a(lp6449
aa(lp6450
(lp6451
a(lp6452
a(lp6453
a(lp6454
a(lp6455
a(lp6456
a(lp6457
g0
(g108
g2
Ntp6458
Rp6459
(dp6460
g100
g0
(g101
g2
Ntp6461
Rp6462
(dp6463
g105
I3
sg106
(lp6464
g6459
ag0
(g96
g2
Ntp6465
Rp6466
(dp6467
g66
I6
sg67
I5
sg100
g6462
sg112
g6462
sg121
I1
sbasbsg112
g6462
sg113
I1
sg66
I6
sg67
I4
sg114
Nsbaa(lp6468
g0
(g96
g2
Ntp6469
Rp6470
(dp6471
g66
I7
sg67
I4
sg100
g0
(g101
g2
Ntp6472
Rp6473
(dp6474
g105
I0
sg106
(lp6475
g0
(g108
g2
Ntp6476
Rp6477
(dp6478
g100
g6473
sg112
g6473
sg113
I3
sg66
I7
sg67
I5
sg114
Nsbag6470
asg5805
I-1
sbsg112
g6473
sg121
I3
sbaa(lp6479
a(lp6480
a(lp6481
a(lp6482
aa(lp6483
(lp6484
a(lp6485
a(lp6486
a(lp6487
a(lp6488
a(lp6489
a(lp6490
g6466
aa(lp6491
g6477
aa(lp6492
a(lp6493
a(lp6494
a(lp6495
aa(lp6496
(lp6497
a(lp6498
a(lp6499
a(lp6500
a(lp6501
a(lp6502
a(lp6503
a(lp6504
a(lp6505
a(lp6506
a(lp6507
a(lp6508
aa(lp6509
(lp6510
a(lp6511
a(lp6512
a(lp6513
a(lp6514
a(lp6515
a(lp6516
a(lp6517
a(lp6518
a(lp6519
a(lp6520
a(lp6521
aa(lp6522
(lp6523
a(lp6524
a(lp6525
a(lp6526
a(lp6527
a(lp6528
a(lp6529
a(lp6530
a(lp6531
a(lp6532
a(lp6533
g0
(g2181
g2
Ntp6534
Rp6535
(dp6536
g66
I10
sg67
I8
sg105
I2
sbaa(lp6537
aa(lp6538
(lp6539
a(lp6540
a(lp6541
g0
(g277
g2
Ntp6542
Rp6543
(dp6544
g66
I2
sg67
I9
sg68
I01
sbaa(lp6545
a(lp6546
a(lp6547
a(lp6548
a(lp6549
a(lp6550
a(lp6551
a(lp6552
a(lp6553
aa(lp6554
(lp6555
a(lp6556
a(lp6557
a(lp6558
a(lp6559
a(lp6560
a(lp6561
a(lp6562
a(lp6563
a(lp6564
a(lp6565
a(lp6566
aa(lp6567
(lp6568
a(lp6569
a(lp6570
a(lp6571
a(lp6572
a(lp6573
a(lp6574
a(lp6575
a(lp6576
a(lp6577
a(lp6578
a(lp6579
aasg416
I3
sbsg16
(lp6580
I0
aI00
aI0
aI00
asg18
I00
sbaNag0
(g10
g2
Ntp6581
Rp6582
(dp6583
g14
(I1
I0
I3
I2
tp6584
sg16
(lp6585
I0
aI0
aI00
aI00
asg18
I00
sbag0
(g10
g2
Ntp6586
Rp6587
(dp6588
g14
(I2
I2
I2
I2
tp6589
sg16
(lp6590
I00
aI0
aI00
aI0
asg18
I00
sbag0
(g33
g2
Ntp6591
Rp6592
(dp6593
g37
S'superstacker'
p6594
sg14
(I3
I3
I3
I3
tp6595
sg39
g0
(g40
g2
Ntp6596
Rp6597
(dp6598
g46
I12
sg47
I12
sg48
I64
sg49
I4
sg50
(lp6599
(lp6600
(lp6601
a(lp6602
a(lp6603
a(lp6604
a(lp6605
a(lp6606
a(lp6607
a(lp6608
a(lp6609
a(lp6610
a(lp6611
g0
(g444
g2
Ntp6612
Rp6613
(dp6614
g66
I10
sg67
I0
sg14
(I0
I1
I2
I4
tp6615
sbaa(lp6616
g0
(g444
g2
Ntp6617
Rp6618
(dp6619
g66
I11
sg67
I0
sg14
(I2
I4
I0
I1
tp6620
sbaaa(lp6621
(lp6622
a(lp6623
a(lp6624
a(lp6625
a(lp6626
a(lp6627
g0
(g1537
g2
Ntp6628
Rp6629
(dp6630
g66
I5
sg67
I1
sg100
g0
(g1541
g2
Ntp6631
Rp6632
(dp6633
g105
I8
sg106
(lp6634
g0
(g1537
g2
Ntp6635
Rp6636
(dp6637
g66
I7
sg67
I2
sg100
g6632
sg14
(I1
I0
I1
I0
tp6638
sbag0
(g1537
g2
Ntp6639
Rp6640
(dp6641
g66
I7
sg67
I1
sg100
g6632
sg14
(I2
I3
I0
I1
tp6642
sbag0
(g1537
g2
Ntp6643
Rp6644
(dp6645
g66
I6
sg67
I1
sg100
g6632
sg14
(I2
I2
I2
I2
tp6646
sbag6629
asbsg14
(I0
I0
I2
I2
tp6647
sbaa(lp6648
g6644
aa(lp6649
g6640
aa(lp6650
g0
(g1537
g2
Ntp6651
Rp6652
(dp6653
g66
I8
sg67
I1
sg100
g0
(g1541
g2
Ntp6654
Rp6655
(dp6656
g105
I3
sg106
(lp6657
g0
(g1537
g2
Ntp6658
Rp6659
(dp6660
g66
I9
sg67
I1
sg100
g6655
sg14
(I2
I4
I0
I1
tp6661
sbag6652
ag0
(g1537
g2
Ntp6662
Rp6663
(dp6664
g66
I8
sg67
I2
sg100
g6655
sg14
(I1
I0
I4
I2
tp6665
sbag0
(g1537
g2
Ntp6666
Rp6667
(dp6668
g66
I9
sg67
I2
sg100
g6655
sg14
(I4
I2
I1
I0
tp6669
sbasbsg14
(I0
I1
I2
I4
tp6670
sbaa(lp6671
g6659
aa(lp6672
g0
(g444
g2
Ntp6673
Rp6674
(dp6675
g66
I10
sg67
I1
sg14
(I1
I1
I4
I4
tp6676
sbaa(lp6677
g0
(g444
g2
Ntp6678
Rp6679
(dp6680
g66
I11
sg67
I1
sg14
(I4
I4
I1
I1
tp6681
sbaaa(lp6682
(lp6683
a(lp6684
a(lp6685
a(lp6686
a(lp6687
a(lp6688
a(lp6689
a(lp6690
g6636
aa(lp6691
g6663
aa(lp6692
g6667
aa(lp6693
g0
(g444
g2
Ntp6694
Rp6695
(dp6696
g66
I10
sg67
I2
sg14
(I1
I1
I4
I4
tp6697
sbaa(lp6698
g0
(g444
g2
Ntp6699
Rp6700
(dp6701
g66
I11
sg67
I2
sg14
(I4
I4
I1
I1
tp6702
sbaaa(lp6703
(lp6704
a(lp6705
a(lp6706
a(lp6707
a(lp6708
a(lp6709
a(lp6710
a(lp6711
a(lp6712
a(lp6713
a(lp6714
g0
(g444
g2
Ntp6715
Rp6716
(dp6717
g66
I10
sg67
I3
sg14
(I1
I1
I4
I4
tp6718
sbaa(lp6719
g0
(g444
g2
Ntp6720
Rp6721
(dp6722
g66
I11
sg67
I3
sg14
(I4
I4
I1
I1
tp6723
sbaaa(lp6724
(lp6725
a(lp6726
a(lp6727
a(lp6728
a(lp6729
a(lp6730
a(lp6731
g0
(g96
g2
Ntp6732
Rp6733
(dp6734
g66
I6
sg67
I4
sg100
g0
(g101
g2
Ntp6735
Rp6736
(dp6737
g105
I0
sg106
(lp6738
g0
(g108
g2
Ntp6739
Rp6740
(dp6741
g100
g6736
sg112
g6736
sg113
I0
sg66
I9
sg67
I4
sg114
Nsbag0
(g108
g2
Ntp6742
Rp6743
(dp6744
g100
g6736
sg112
g6736
sg113
I0
sg66
I8
sg67
I4
sg114
I2
sbag0
(g108
g2
Ntp6745
Rp6746
(dp6747
g100
g6736
sg112
g6736
sg113
I0
sg66
I7
sg67
I4
sg114
I2
sbag6733
asbsg112
g6736
sg121
I0
sbaa(lp6748
g6746
aa(lp6749
g6743
aa(lp6750
g6740
aa(lp6751
g0
(g444
g2
Ntp6752
Rp6753
(dp6754
g66
I10
sg67
I4
sg14
(I1
I1
I4
I4
tp6755
sbaa(lp6756
g0
(g444
g2
Ntp6757
Rp6758
(dp6759
g66
I11
sg67
I4
sg14
(I4
I4
I1
I1
tp6760
sbaaa(lp6761
(lp6762
a(lp6763
a(lp6764
a(lp6765
a(lp6766
a(lp6767
a(lp6768
a(lp6769
a(lp6770
a(lp6771
a(lp6772
g0
(g444
g2
Ntp6773
Rp6774
(dp6775
g66
I10
sg67
I5
sg14
(I1
I1
I4
I4
tp6776
sbaa(lp6777
g0
(g444
g2
Ntp6778
Rp6779
(dp6780
g66
I11
sg67
I5
sg14
(I4
I4
I1
I1
tp6781
sbaaa(lp6782
(lp6783
a(lp6784
a(lp6785
a(lp6786
a(lp6787
a(lp6788
a(lp6789
a(lp6790
a(lp6791
a(lp6792
a(lp6793
g0
(g444
g2
Ntp6794
Rp6795
(dp6796
g66
I10
sg67
I6
sg14
(I1
I1
I4
I4
tp6797
sbaa(lp6798
g0
(g444
g2
Ntp6799
Rp6800
(dp6801
g66
I11
sg67
I6
sg14
(I4
I4
I1
I1
tp6802
sbaaa(lp6803
(lp6804
a(lp6805
a(lp6806
a(lp6807
a(lp6808
a(lp6809
a(lp6810
a(lp6811
a(lp6812
a(lp6813
a(lp6814
g0
(g444
g2
Ntp6815
Rp6816
(dp6817
g66
I10
sg67
I7
sg14
(I1
I1
I4
I4
tp6818
sbaa(lp6819
g0
(g444
g2
Ntp6820
Rp6821
(dp6822
g66
I11
sg67
I7
sg14
(I4
I4
I1
I1
tp6823
sbaaa(lp6824
(lp6825
a(lp6826
a(lp6827
a(lp6828
g0
(g444
g2
Ntp6829
Rp6830
(dp6831
g66
I3
sg67
I8
sg14
(I0
I1
I2
I4
tp6832
sbaa(lp6833
g0
(g444
g2
Ntp6834
Rp6835
(dp6836
g66
I4
sg67
I8
sg14
(I2
I4
I2
I4
tp6837
sbaa(lp6838
g0
(g444
g2
Ntp6839
Rp6840
(dp6841
g66
I5
sg67
I8
sg14
(I2
I4
I2
I4
tp6842
sbaa(lp6843
g0
(g444
g2
Ntp6844
Rp6845
(dp6846
g66
I6
sg67
I8
sg14
(I2
I4
I2
I4
tp6847
sbaa(lp6848
g0
(g444
g2
Ntp6849
Rp6850
(dp6851
g66
I7
sg67
I8
sg14
(I2
I4
I2
I4
tp6852
sbaa(lp6853
g0
(g444
g2
Ntp6854
Rp6855
(dp6856
g66
I8
sg67
I8
sg14
(I2
I4
I2
I4
tp6857
sbaa(lp6858
g0
(g444
g2
Ntp6859
Rp6860
(dp6861
g66
I9
sg67
I8
sg14
(I2
I4
I2
I4
tp6862
sbaa(lp6863
g0
(g444
g2
Ntp6864
Rp6865
(dp6866
g66
I10
sg67
I8
sg14
(I3
I4
I4
I4
tp6867
sbaa(lp6868
g0
(g444
g2
Ntp6869
Rp6870
(dp6871
g66
I11
sg67
I8
sg14
(I4
I4
I1
I1
tp6872
sbaaa(lp6873
(lp6874
a(lp6875
a(lp6876
g0
(g444
g2
Ntp6877
Rp6878
(dp6879
g66
I2
sg67
I9
sg14
(I0
I1
I2
I4
tp6880
sbaa(lp6881
g0
(g444
g2
Ntp6882
Rp6883
(dp6884
g66
I3
sg67
I9
sg14
(I3
I4
I4
I4
tp6885
sbaa(lp6886
g0
(g444
g2
Ntp6887
Rp6888
(dp6889
g66
I4
sg67
I9
sg14
(I4
I4
I4
I4
tp6890
sbaa(lp6891
g0
(g444
g2
Ntp6892
Rp6893
(dp6894
g66
I5
sg67
I9
sg14
(I4
I4
I4
I4
tp6895
sbaa(lp6896
g0
(g444
g2
Ntp6897
Rp6898
(dp6899
g66
I6
sg67
I9
sg14
(I4
I4
I4
I4
tp6900
sbaa(lp6901
g0
(g444
g2
Ntp6902
Rp6903
(dp6904
g66
I7
sg67
I9
sg14
(I4
I4
I4
I4
tp6905
sbaa(lp6906
g0
(g444
g2
Ntp6907
Rp6908
(dp6909
g66
I8
sg67
I9
sg14
(I4
I4
I4
I4
tp6910
sbaa(lp6911
g0
(g444
g2
Ntp6912
Rp6913
(dp6914
g66
I9
sg67
I9
sg14
(I4
I4
I4
I4
tp6915
sbaa(lp6916
g0
(g444
g2
Ntp6917
Rp6918
(dp6919
g66
I10
sg67
I9
sg14
(I4
I4
I4
I4
tp6920
sbaa(lp6921
g0
(g444
g2
Ntp6922
Rp6923
(dp6924
g66
I11
sg67
I9
sg14
(I4
I4
I1
I1
tp6925
sbaaa(lp6926
(lp6927
a(lp6928
g0
(g277
g2
Ntp6929
Rp6930
(dp6931
g66
I1
sg67
I10
sg68
I01
sbaa(lp6932
g0
(g444
g2
Ntp6933
Rp6934
(dp6935
g66
I2
sg67
I10
sg14
(I1
I1
I4
I4
tp6936
sbaa(lp6937
g0
(g444
g2
Ntp6938
Rp6939
(dp6940
g66
I3
sg67
I10
sg14
(I4
I4
I4
I4
tp6941
sbaa(lp6942
g0
(g444
g2
Ntp6943
Rp6944
(dp6945
g66
I4
sg67
I10
sg14
(I4
I4
I4
I4
tp6946
sbaa(lp6947
g0
(g444
g2
Ntp6948
Rp6949
(dp6950
g66
I5
sg67
I10
sg14
(I4
I4
I4
I4
tp6951
sbaa(lp6952
g0
(g444
g2
Ntp6953
Rp6954
(dp6955
g66
I6
sg67
I10
sg14
(I4
I4
I4
I4
tp6956
sbaa(lp6957
g0
(g444
g2
Ntp6958
Rp6959
(dp6960
g66
I7
sg67
I10
sg14
(I4
I4
I4
I4
tp6961
sbaa(lp6962
g0
(g444
g2
Ntp6963
Rp6964
(dp6965
g66
I8
sg67
I10
sg14
(I4
I4
I4
I4
tp6966
sbaa(lp6967
g0
(g444
g2
Ntp6968
Rp6969
(dp6970
g66
I9
sg67
I10
sg14
(I4
I4
I4
I4
tp6971
sbaa(lp6972
g0
(g444
g2
Ntp6973
Rp6974
(dp6975
g66
I10
sg67
I10
sg14
(I4
I4
I4
I4
tp6976
sbaa(lp6977
g0
(g444
g2
Ntp6978
Rp6979
(dp6980
g66
I11
sg67
I10
sg14
(I4
I4
I1
I1
tp6981
sbaaa(lp6982
(lp6983
a(lp6984
a(lp6985
g0
(g444
g2
Ntp6986
Rp6987
(dp6988
g66
I2
sg67
I11
sg14
(I1
I0
I4
I2
tp6989
sbaa(lp6990
g0
(g444
g2
Ntp6991
Rp6992
(dp6993
g66
I3
sg67
I11
sg14
(I4
I2
I4
I2
tp6994
sbaa(lp6995
g0
(g444
g2
Ntp6996
Rp6997
(dp6998
g66
I4
sg67
I11
sg14
(I4
I2
I4
I2
tp6999
sbaa(lp7000
g0
(g444
g2
Ntp7001
Rp7002
(dp7003
g66
I5
sg67
I11
sg14
(I4
I2
I4
I2
tp7004
sbaa(lp7005
g0
(g444
g2
Ntp7006
Rp7007
(dp7008
g66
I6
sg67
I11
sg14
(I4
I2
I4
I2
tp7009
sbaa(lp7010
g0
(g444
g2
Ntp7011
Rp7012
(dp7013
g66
I7
sg67
I11
sg14
(I4
I2
I4
I2
tp7014
sbaa(lp7015
g0
(g444
g2
Ntp7016
Rp7017
(dp7018
g66
I8
sg67
I11
sg14
(I4
I2
I4
I2
tp7019
sbaa(lp7020
g0
(g444
g2
Ntp7021
Rp7022
(dp7023
g66
I9
sg67
I11
sg14
(I4
I2
I4
I2
tp7024
sbaa(lp7025
g0
(g444
g2
Ntp7026
Rp7027
(dp7028
g66
I10
sg67
I11
sg14
(I4
I2
I4
I2
tp7029
sbaa(lp7030
g0
(g444
g2
Ntp7031
Rp7032
(dp7033
g66
I11
sg67
I11
sg14
(I4
I2
I1
I0
tp7034
sbaaasg416
I3
sbsg16
(lp7035
I00
aI00
aI00
aI00
asg18
I00
sbag0
(g10
g2
Ntp7036
Rp7037
(dp7038
g14
(I2
I2
I2
I2
tp7039
sg16
(lp7040
I00
aI0
aI00
aI0
asg18
I00
sbag0
(g10
g2
Ntp7041
Rp7042
(dp7043
g18
I00
sg16
(lp7044
I00
aI0
aI0
aI00
asg14
(I3
I2
I1
I0
tp7045
sbaNag0
(g10
g2
Ntp7046
Rp7047
(dp7048
g18
I00
sg16
(lp7049
I0
aI00
aI0
aI01
asg14
(I1
I1
I1
I1
tp7050
sbaNag0
(g10
g2
Ntp7051
Rp7052
(dp7053
g18
I00
sg16
(lp7054
I0
aI00
aI0
aI01
asg14
(I1
I1
I1
I1
tp7055
sbaNaNaa(lp7056
Nag0
(g10
g2
Ntp7057
Rp7058
(dp7059
g18
I00
sg16
(lp7060
I0
aI00
aI0
aI00
asg14
(I1
I1
I1
I1
tp7061
sbaNaNaNag0
(g10
g2
Ntp7062
Rp7063
(dp7064
g18
I00
sg16
(lp7065
I0
aI00
aI0
aI00
asg14
(I1
I1
I1
I1
tp7066
sbaNaNag0
(g33
g2
Ntp7067
Rp7068
(dp7069
g37
S'help'
p7070
sg18
I00
sg39
g0
(g40
g2
Ntp7071
Rp7072
(dp7073
g46
I10
sg47
I15
sg48
I64
sg49
I4
sg50
(lp7074
(lp7075
(lp7076
a(lp7077
a(lp7078
a(lp7079
a(lp7080
g0
(g277
g2
Ntp7081
Rp7082
(dp7083
g66
I4
sg67
I0
sg68
I01
sbaa(lp7084
a(lp7085
a(lp7086
g0
(g540
g2
Ntp7087
Rp7088
(dp7089
g66
I7
sg67
I0
sg544
I0
sg545
I0
sbaa(lp7090
g0
(g108
g2
Ntp7091
Rp7092
(dp7093
g100
g0
(g101
g2
Ntp7094
Rp7095
(dp7096
g105
I0
sg106
(lp7097
g7092
ag0
(g108
g2
Ntp7098
Rp7099
(dp7100
g100
g7095
sg112
g7095
sg113
I1
sg66
I8
sg67
I1
sg114
I3
sbag0
(g96
g2
Ntp7101
Rp7102
(dp7103
g66
I8
sg67
I2
sg100
g7095
sg112
g7095
sg121
I1
sbasbsg112
g7095
sg113
I1
sg66
I8
sg67
I0
sg114
Nsbaa(lp7104
g0
(g444
g2
Ntp7105
Rp7106
(dp7107
g66
I9
sg67
I0
sg14
(I1
I1
I4
I4
tp7108
sbaaa(lp7109
(lp7110
a(lp7111
a(lp7112
a(lp7113
a(lp7114
a(lp7115
a(lp7116
a(lp7117
g0
(g3164
g2
Ntp7118
Rp7119
(dp7120
g66
I7
sg67
I1
sg100
g0
(g964
g2
Ntp7121
Rp7122
(dp7123
g106
(lp7124
g7119
asbsg545
I0
sg14
(I0
I0
I0
I0
tp7125
sbaa(lp7126
g7099
aa(lp7127
g0
(g444
g2
Ntp7128
Rp7129
(dp7130
g66
I9
sg67
I1
sg14
(I1
I1
I4
I4
tp7131
sbaaa(lp7132
(lp7133
a(lp7134
a(lp7135
a(lp7136
a(lp7137
a(lp7138
a(lp7139
a(lp7140
a(lp7141
g7102
aa(lp7142
g0
(g444
g2
Ntp7143
Rp7144
(dp7145
g66
I9
sg67
I2
sg14
(I1
I1
I4
I4
tp7146
sbaaa(lp7147
(lp7148
a(lp7149
a(lp7150
a(lp7151
a(lp7152
a(lp7153
a(lp7154
a(lp7155
a(lp7156
g0
(g444
g2
Ntp7157
Rp7158
(dp7159
g66
I8
sg67
I3
sg14
(I0
I1
I2
I4
tp7160
sbaa(lp7161
g0
(g444
g2
Ntp7162
Rp7163
(dp7164
g66
I9
sg67
I3
sg14
(I3
I4
I4
I4
tp7165
sbaaa(lp7166
(lp7167
a(lp7168
a(lp7169
a(lp7170
a(lp7171
a(lp7172
a(lp7173
a(lp7174
a(lp7175
g0
(g444
g2
Ntp7176
Rp7177
(dp7178
g66
I8
sg67
I4
sg14
(I1
I0
I4
I2
tp7179
sbaa(lp7180
g0
(g444
g2
Ntp7181
Rp7182
(dp7183
g66
I9
sg67
I4
sg14
(I4
I3
I4
I4
tp7184
sbaaa(lp7185
(lp7186
a(lp7187
a(lp7188
a(lp7189
a(lp7190
a(lp7191
a(lp7192
a(lp7193
a(lp7194
a(lp7195
g0
(g444
g2
Ntp7196
Rp7197
(dp7198
g66
I9
sg67
I5
sg14
(I1
I1
I4
I4
tp7199
sbaaa(lp7200
(lp7201
a(lp7202
a(lp7203
a(lp7204
a(lp7205
a(lp7206
a(lp7207
a(lp7208
a(lp7209
a(lp7210
g0
(g444
g2
Ntp7211
Rp7212
(dp7213
g66
I9
sg67
I6
sg14
(I1
I1
I4
I4
tp7214
sbaaa(lp7215
(lp7216
a(lp7217
a(lp7218
a(lp7219
a(lp7220
a(lp7221
a(lp7222
a(lp7223
g0
(g444
g2
Ntp7224
Rp7225
(dp7226
g66
I7
sg67
I7
sg14
(I0
I1
I2
I4
tp7227
sbaa(lp7228
g0
(g444
g2
Ntp7229
Rp7230
(dp7231
g66
I8
sg67
I7
sg14
(I2
I4
I2
I4
tp7232
sbaa(lp7233
g0
(g444
g2
Ntp7234
Rp7235
(dp7236
g66
I9
sg67
I7
sg14
(I3
I4
I4
I4
tp7237
sbaaa(lp7238
(lp7239
a(lp7240
a(lp7241
a(lp7242
a(lp7243
a(lp7244
a(lp7245
a(lp7246
g0
(g444
g2
Ntp7247
Rp7248
(dp7249
g66
I7
sg67
I8
sg14
(I1
I1
I4
I4
tp7250
sbaa(lp7251
g0
(g444
g2
Ntp7252
Rp7253
(dp7254
g66
I8
sg67
I8
sg14
(I4
I4
I4
I4
tp7255
sbaa(lp7256
g0
(g444
g2
Ntp7257
Rp7258
(dp7259
g66
I9
sg67
I8
sg14
(I4
I4
I4
I4
tp7260
sbaaa(lp7261
(lp7262
a(lp7263
a(lp7264
a(lp7265
a(lp7266
a(lp7267
a(lp7268
a(lp7269
g0
(g444
g2
Ntp7270
Rp7271
(dp7272
g66
I7
sg67
I9
sg14
(I1
I0
I4
I2
tp7273
sbaa(lp7274
g0
(g444
g2
Ntp7275
Rp7276
(dp7277
g66
I8
sg67
I9
sg14
(I4
I2
I4
I2
tp7278
sbaa(lp7279
g0
(g444
g2
Ntp7280
Rp7281
(dp7282
g66
I9
sg67
I9
sg14
(I4
I3
I4
I4
tp7283
sbaaa(lp7284
(lp7285
a(lp7286
a(lp7287
a(lp7288
a(lp7289
a(lp7290
a(lp7291
a(lp7292
a(lp7293
a(lp7294
g0
(g444
g2
Ntp7295
Rp7296
(dp7297
g66
I9
sg67
I10
sg14
(I1
I1
I4
I4
tp7298
sbaaa(lp7299
(lp7300
a(lp7301
a(lp7302
a(lp7303
a(lp7304
a(lp7305
a(lp7306
a(lp7307
a(lp7308
a(lp7309
g0
(g444
g2
Ntp7310
Rp7311
(dp7312
g66
I9
sg67
I11
sg14
(I1
I1
I4
I4
tp7313
sbaaa(lp7314
(lp7315
a(lp7316
a(lp7317
a(lp7318
a(lp7319
g0
(g3164
g2
Ntp7320
Rp7321
(dp7322
g66
I4
sg67
I12
sg100
g0
(g964
g2
Ntp7323
Rp7324
(dp7325
g106
(lp7326
g7321
asbsg545
I0
sg14
(I0
I0
I0
I0
tp7327
sbaa(lp7328
g0
(g444
g2
Ntp7329
Rp7330
(dp7331
g66
I5
sg67
I12
sg14
(I0
I0
I2
I2
tp7332
sbaa(lp7333
g0
(g444
g2
Ntp7334
Rp7335
(dp7336
g66
I6
sg67
I12
sg14
(I2
I2
I2
I2
tp7337
sbaa(lp7338
g0
(g444
g2
Ntp7339
Rp7340
(dp7341
g66
I7
sg67
I12
sg14
(I2
I2
I2
I2
tp7342
sbaa(lp7343
g0
(g444
g2
Ntp7344
Rp7345
(dp7346
g66
I8
sg67
I12
sg14
(I2
I2
I2
I2
tp7347
sbaa(lp7348
g0
(g444
g2
Ntp7349
Rp7350
(dp7351
g66
I9
sg67
I12
sg14
(I3
I2
I4
I2
tp7352
sbaaa(lp7353
(lp7354
a(lp7355
a(lp7356
a(lp7357
a(lp7358
a(lp7359
a(lp7360
a(lp7361
a(lp7362
a(lp7363
g0
(g62
g2
Ntp7364
Rp7365
(dp7366
g66
I9
sg67
I13
sg68
I10
sbaaa(lp7367
(lp7368
a(lp7369
a(lp7370
a(lp7371
a(lp7372
g0
(g1380
g2
Ntp7373
Rp7374
(dp7375
g66
I4
sg67
I14
sg1384
I2
sg544
I01
sg545
I0
sbaa(lp7376
g0
(g444
g2
Ntp7377
Rp7378
(dp7379
g66
I5
sg67
I14
sg14
(I0
I1
I2
I4
tp7380
sbaa(lp7381
g0
(g444
g2
Ntp7382
Rp7383
(dp7384
g66
I6
sg67
I14
sg14
(I2
I4
I2
I4
tp7385
sbaa(lp7386
g0
(g444
g2
Ntp7387
Rp7388
(dp7389
g66
I7
sg67
I14
sg14
(I2
I4
I2
I4
tp7390
sbaa(lp7391
g0
(g444
g2
Ntp7392
Rp7393
(dp7394
g66
I8
sg67
I14
sg14
(I2
I4
I2
I4
tp7395
sbaa(lp7396
g0
(g444
g2
Ntp7397
Rp7398
(dp7399
g66
I9
sg67
I14
sg14
(I2
I4
I2
I4
tp7400
sbaaasg416
I3
sbsg16
(lp7401
I0
aI0
aI00
aI0
asg14
(I0
I0
I2
I2
tp7402
sbag0
(g10
g2
Ntp7403
Rp7404
(dp7405
g18
I00
sg16
(lp7406
I00
aI0
aI00
aI00
asg14
(I3
I2
I3
I2
tp7407
sbag0
(g10
g2
Ntp7408
Rp7409
(dp7410
g18
I00
sg16
(lp7411
I00
aI0
aI00
aI0
asg14
(I2
I2
I2
I2
tp7412
sbag0
(g33
g2
Ntp7413
Rp7414
(dp7415
g37
S'crevasse'
p7416
sg18
I00
sg39
g0
(g40
g2
Ntp7417
Rp7418
(dp7419
g44
g1145
sg46
I12
sg47
I12
sg48
I64
sg49
I4
sg50
(lp7420
(lp7421
(lp7422
a(lp7423
a(lp7424
a(lp7425
a(lp7426
a(lp7427
a(lp7428
g0
(g1153
g2
Ntp7429
Rp7430
(dp7431
g66
I6
sg67
I0
sg14
(I1
I0
I4
I2
tp7432
sbaa(lp7433
g0
(g1153
g2
Ntp7434
Rp7435
(dp7436
g66
I7
sg67
I0
sg14
(I4
I3
I4
I4
tp7437
sbaa(lp7438
g0
(g1153
g2
Ntp7439
Rp7440
(dp7441
g66
I8
sg67
I0
sg14
(I4
I4
I4
I4
tp7442
sbaa(lp7443
g0
(g1153
g2
Ntp7444
Rp7445
(dp7446
g66
I9
sg67
I0
sg14
(I4
I4
I4
I4
tp7447
sbaa(lp7448
g0
(g1153
g2
Ntp7449
Rp7450
(dp7451
g66
I10
sg67
I0
sg14
(I4
I4
I4
I4
tp7452
sbaa(lp7453
g0
(g1153
g2
Ntp7454
Rp7455
(dp7456
g66
I11
sg67
I0
sg14
(I4
I4
I4
I4
tp7457
sbaaa(lp7458
(lp7459
a(lp7460
a(lp7461
a(lp7462
a(lp7463
a(lp7464
g0
(g4838
g2
Ntp7465
Rp7466
(dp7467
g66
I5
sg67
I1
sg100
g0
(g4842
g2
Ntp7468
Rp7469
(dp7470
g105
I0
sg106
(lp7471
g0
(g4847
g2
Ntp7472
Rp7473
(dp7474
g68
I8
sg100
g7469
sg112
g7469
sg113
I3
sg66
I6
sg67
I2
sg114
Nsbag0
(g4847
g2
Ntp7475
Rp7476
(dp7477
g68
I3
sg100
g7469
sg112
g7469
sg113
I0
sg66
I6
sg67
I1
sg114
I1
sbag7466
asbsg112
g7469
sg121
I0
sbaa(lp7478
g7476
aa(lp7479
g0
(g1153
g2
Ntp7480
Rp7481
(dp7482
g66
I7
sg67
I1
sg14
(I1
I1
I4
I4
tp7483
sbaa(lp7484
g0
(g1153
g2
Ntp7485
Rp7486
(dp7487
g66
I8
sg67
I1
sg14
(I4
I4
I4
I4
tp7488
sbaa(lp7489
g0
(g1153
g2
Ntp7490
Rp7491
(dp7492
g66
I9
sg67
I1
sg14
(I4
I4
I4
I4
tp7493
sbaa(lp7494
g0
(g1153
g2
Ntp7495
Rp7496
(dp7497
g66
I10
sg67
I1
sg14
(I4
I4
I4
I4
tp7498
sbaa(lp7499
g0
(g1153
g2
Ntp7500
Rp7501
(dp7502
g66
I11
sg67
I1
sg14
(I4
I4
I4
I4
tp7503
sbaaa(lp7504
(lp7505
a(lp7506
a(lp7507
a(lp7508
a(lp7509
a(lp7510
a(lp7511
g7473
aa(lp7512
g0
(g1153
g2
Ntp7513
Rp7514
(dp7515
g66
I7
sg67
I2
sg14
(I1
I1
I4
I4
tp7516
sbaa(lp7517
g0
(g1153
g2
Ntp7518
Rp7519
(dp7520
g66
I8
sg67
I2
sg14
(I4
I4
I4
I4
tp7521
sbaa(lp7522
g0
(g1153
g2
Ntp7523
Rp7524
(dp7525
g66
I9
sg67
I2
sg14
(I4
I4
I4
I4
tp7526
sbaa(lp7527
g0
(g1153
g2
Ntp7528
Rp7529
(dp7530
g66
I10
sg67
I2
sg14
(I4
I4
I4
I4
tp7531
sbaa(lp7532
g0
(g1153
g2
Ntp7533
Rp7534
(dp7535
g66
I11
sg67
I2
sg14
(I4
I4
I4
I4
tp7536
sbaaa(lp7537
(lp7538
a(lp7539
a(lp7540
a(lp7541
a(lp7542
a(lp7543
g0
(g1177
g2
Ntp7544
Rp7545
(dp7546
g66
I5
sg67
I3
sg100
g0
(g964
g2
Ntp7547
Rp7548
(dp7549
g106
(lp7550
g7545
asbsbaa(lp7551
g0
(g1153
g2
Ntp7552
Rp7553
(dp7554
g66
I6
sg67
I3
sg14
(I0
I1
I2
I4
tp7555
sbaa(lp7556
g0
(g1153
g2
Ntp7557
Rp7558
(dp7559
g66
I7
sg67
I3
sg14
(I3
I4
I4
I4
tp7560
sbaa(lp7561
g0
(g1153
g2
Ntp7562
Rp7563
(dp7564
g66
I8
sg67
I3
sg14
(I4
I4
I4
I3
tp7565
sbaa(lp7566
g0
(g1153
g2
Ntp7567
Rp7568
(dp7569
g66
I9
sg67
I3
sg14
(I4
I2
I4
I2
tp7570
sbaa(lp7571
g0
(g1153
g2
Ntp7572
Rp7573
(dp7574
g66
I10
sg67
I3
sg14
(I4
I2
I4
I2
tp7575
sbaa(lp7576
g0
(g1153
g2
Ntp7577
Rp7578
(dp7579
g66
I11
sg67
I3
sg14
(I4
I2
I4
I2
tp7580
sbaaa(lp7581
(lp7582
a(lp7583
a(lp7584
a(lp7585
a(lp7586
a(lp7587
a(lp7588
g0
(g1153
g2
Ntp7589
Rp7590
(dp7591
g66
I6
sg67
I4
sg14
(I1
I0
I4
I2
tp7592
sbaa(lp7593
g0
(g1153
g2
Ntp7594
Rp7595
(dp7596
g66
I7
sg67
I4
sg14
(I4
I2
I4
I2
tp7597
sbaa(lp7598
g0
(g1153
g2
Ntp7599
Rp7600
(dp7601
g66
I8
sg67
I4
sg14
(I4
I2
I1
I0
tp7602
sbaa(lp7603
a(lp7604
a(lp7605
aa(lp7606
(lp7607
a(lp7608
a(lp7609
a(lp7610
a(lp7611
a(lp7612
a(lp7613
a(lp7614
a(lp7615
a(lp7616
a(lp7617
a(lp7618
aa(lp7619
(lp7620
a(lp7621
a(lp7622
a(lp7623
a(lp7624
a(lp7625
a(lp7626
a(lp7627
a(lp7628
a(lp7629
a(lp7630
a(lp7631
aa(lp7632
(lp7633
a(lp7634
a(lp7635
a(lp7636
a(lp7637
a(lp7638
a(lp7639
a(lp7640
a(lp7641
a(lp7642
a(lp7643
a(lp7644
aa(lp7645
(lp7646
a(lp7647
a(lp7648
g0
(g1153
g2
Ntp7649
Rp7650
(dp7651
g66
I2
sg67
I8
sg14
(I0
I1
I2
I3
tp7652
sbaa(lp7653
g0
(g1153
g2
Ntp7654
Rp7655
(dp7656
g66
I3
sg67
I8
sg14
(I2
I2
I0
I0
tp7657
sbaa(lp7658
a(lp7659
a(lp7660
g0
(g1153
g2
Ntp7661
Rp7662
(dp7663
g66
I6
sg67
I8
sg14
(I0
I1
I2
I4
tp7664
sbaa(lp7665
g0
(g1153
g2
Ntp7666
Rp7667
(dp7668
g66
I7
sg67
I8
sg14
(I2
I4
I2
I4
tp7669
sbaa(lp7670
g0
(g1153
g2
Ntp7671
Rp7672
(dp7673
g66
I8
sg67
I8
sg14
(I2
I4
I2
I4
tp7674
sbaa(lp7675
g0
(g1153
g2
Ntp7676
Rp7677
(dp7678
g66
I9
sg67
I8
sg14
(I2
I4
I0
I1
tp7679
sbaa(lp7680
a(lp7681
aa(lp7682
(lp7683
g0
(g960
g2
Ntp7684
Rp7685
(dp7686
g66
I0
sg67
I9
sg100
g0
(g964
g2
Ntp7687
Rp7688
(dp7689
g106
(lp7690
g7685
asbsbaa(lp7691
g0
(g1153
g2
Ntp7692
Rp7693
(dp7694
g66
I1
sg67
I9
sg14
(I0
I1
I2
I4
tp7695
sbaa(lp7696
g0
(g1153
g2
Ntp7697
Rp7698
(dp7699
g66
I2
sg67
I9
sg14
(I3
I4
I1
I1
tp7700
sbaa(lp7701
a(lp7702
a(lp7703
a(lp7704
g0
(g1153
g2
Ntp7705
Rp7706
(dp7707
g66
I6
sg67
I9
sg14
(I1
I1
I4
I4
tp7708
sbaa(lp7709
g0
(g1153
g2
Ntp7710
Rp7711
(dp7712
g66
I7
sg67
I9
sg14
(I4
I4
I4
I4
tp7713
sbaa(lp7714
g0
(g1153
g2
Ntp7715
Rp7716
(dp7717
g66
I8
sg67
I9
sg14
(I4
I4
I4
I4
tp7718
sbaa(lp7719
g0
(g1153
g2
Ntp7720
Rp7721
(dp7722
g66
I9
sg67
I9
sg14
(I4
I4
I3
I4
tp7723
sbaa(lp7724
g0
(g1153
g2
Ntp7725
Rp7726
(dp7727
g66
I10
sg67
I9
sg14
(I2
I4
I0
I1
tp7728
sbaa(lp7729
aa(lp7730
(lp7731
g0
(g1153
g2
Ntp7732
Rp7733
(dp7734
g66
I0
sg67
I10
sg14
(I2
I4
I2
I4
tp7735
sbaa(lp7736
g0
(g1153
g2
Ntp7737
Rp7738
(dp7739
g66
I1
sg67
I10
sg14
(I3
I4
I4
I4
tp7740
sbaa(lp7741
g0
(g1153
g2
Ntp7742
Rp7743
(dp7744
g66
I2
sg67
I10
sg14
(I4
I4
I1
I1
tp7745
sbaa(lp7746
a(lp7747
g0
(g277
g2
Ntp7748
Rp7749
(dp7750
g66
I4
sg67
I10
sg68
I01
sbaa(lp7751
a(lp7752
g0
(g1153
g2
Ntp7753
Rp7754
(dp7755
g66
I6
sg67
I10
sg14
(I1
I1
I4
I4
tp7756
sbaa(lp7757
g0
(g1153
g2
Ntp7758
Rp7759
(dp7760
g66
I7
sg67
I10
sg14
(I4
I4
I4
I4
tp7761
sbaa(lp7762
g0
(g1153
g2
Ntp7763
Rp7764
(dp7765
g66
I8
sg67
I10
sg14
(I4
I4
I4
I4
tp7766
sbaa(lp7767
g0
(g1153
g2
Ntp7768
Rp7769
(dp7770
g66
I9
sg67
I10
sg14
(I4
I4
I4
I4
tp7771
sbaa(lp7772
g0
(g1153
g2
Ntp7773
Rp7774
(dp7775
g66
I10
sg67
I10
sg14
(I4
I4
I1
I1
tp7776
sbaa(lp7777
aa(lp7778
(lp7779
g0
(g1153
g2
Ntp7780
Rp7781
(dp7782
g66
I0
sg67
I11
sg14
(I4
I4
I4
I4
tp7783
sbaa(lp7784
g0
(g1153
g2
Ntp7785
Rp7786
(dp7787
g66
I1
sg67
I11
sg14
(I4
I4
I4
I4
tp7788
sbaa(lp7789
g0
(g1153
g2
Ntp7790
Rp7791
(dp7792
g66
I2
sg67
I11
sg14
(I4
I4
I1
I1
tp7793
sbaa(lp7794
a(lp7795
a(lp7796
a(lp7797
g0
(g1153
g2
Ntp7798
Rp7799
(dp7800
g66
I6
sg67
I11
sg14
(I1
I1
I4
I4
tp7801
sbaa(lp7802
g0
(g1153
g2
Ntp7803
Rp7804
(dp7805
g66
I7
sg67
I11
sg14
(I4
I4
I4
I4
tp7806
sbaa(lp7807
g0
(g1153
g2
Ntp7808
Rp7809
(dp7810
g66
I8
sg67
I11
sg14
(I4
I4
I4
I4
tp7811
sbaa(lp7812
g0
(g1153
g2
Ntp7813
Rp7814
(dp7815
g66
I9
sg67
I11
sg14
(I4
I4
I4
I4
tp7816
sbaa(lp7817
g0
(g1153
g2
Ntp7818
Rp7819
(dp7820
g66
I10
sg67
I11
sg14
(I4
I4
I3
I4
tp7821
sbaa(lp7822
g0
(g1153
g2
Ntp7823
Rp7824
(dp7825
g66
I11
sg67
I11
sg14
(I2
I4
I2
I4
tp7826
sbaaasg416
I3
sbsg16
(lp7827
I00
aI00
aI0
aI00
asg14
(I3
I3
I1
I1
tp7828
sbaNaNaa(lp7829
Nag0
(g10
g2
Ntp7830
Rp7831
(dp7832
g18
I00
sg16
(lp7833
I0
aI00
aI0
aI00
asg14
(I1
I1
I1
I1
tp7834
sbaNaNaNag0
(g10
g2
Ntp7835
Rp7836
(dp7837
g18
I00
sg16
(lp7838
I0
aI00
aI0
aI00
asg14
(I1
I1
I1
I1
tp7839
sbaNaNaNaNaNag0
(g10
g2
Ntp7840
Rp7841
(dp7842
g18
I00
sg16
(lp7843
I0
aI01
aI0
aI00
asg14
(I1
I1
I1
I1
tp7844
sbaNaNaa(lp7845
Nag0
(g33
g2
Ntp7846
Rp7847
(dp7848
g37
S'tubular'
p7849
sg18
I00
sg39
g0
(g40
g2
Ntp7850
Rp7851
(dp7852
g46
I10
sg47
I20
sg48
I64
sg49
I4
sg50
(lp7853
(lp7854
(lp7855
a(lp7856
a(lp7857
a(lp7858
a(lp7859
g0
(g108
g2
Ntp7860
Rp7861
(dp7862
g100
g0
(g101
g2
Ntp7863
Rp7864
(dp7865
g105
I4
sg106
(lp7866
g0
(g108
g2
Ntp7867
Rp7868
(dp7869
g100
g7864
sg112
g7864
sg113
I0
sg66
I7
sg67
I0
sg114
Nsbag0
(g108
g2
Ntp7870
Rp7871
(dp7872
g100
g7864
sg112
g7864
sg113
I0
sg66
I6
sg67
I0
sg114
I2
sbag0
(g108
g2
Ntp7873
Rp7874
(dp7875
g100
g7864
sg112
g7864
sg113
I0
sg66
I5
sg67
I0
sg114
I2
sbag7861
ag0
(g96
g2
Ntp7876
Rp7877
(dp7878
g66
I4
sg67
I1
sg100
g7864
sg112
g7864
sg121
I1
sbasbsg112
g7864
sg113
I1
sg66
I4
sg67
I0
sg114
I2
sbaa(lp7879
g7874
aa(lp7880
g7871
aa(lp7881
g7868
aa(lp7882
g0
(g444
g2
Ntp7883
Rp7884
(dp7885
g66
I8
sg67
I0
sg14
(I1
I1
I1
I1
tp7886
sbaa(lp7887
g0
(g62
g2
Ntp7888
Rp7889
(dp7890
g66
I9
sg67
I0
sg68
I3
sbaaa(lp7891
(lp7892
a(lp7893
a(lp7894
a(lp7895
a(lp7896
g7877
aa(lp7897
g0
(g108
g2
Ntp7898
Rp7899
(dp7900
g100
g0
(g101
g2
Ntp7901
Rp7902
(dp7903
g105
I6
sg106
(lp7904
g7899
ag0
(g108
g2
Ntp7905
Rp7906
(dp7907
g100
g7902
sg112
g7902
sg113
I2
sg66
I6
sg67
I1
sg114
I0
sbag0
(g108
g2
Ntp7908
Rp7909
(dp7910
g100
g7902
sg112
g7902
sg113
I1
sg66
I7
sg67
I1
sg114
I0
sbag0
(g96
g2
Ntp7911
Rp7912
(dp7913
g66
I7
sg67
I2
sg100
g7902
sg112
g7902
sg121
I1
sbasg5805
I-1
sbsg112
g7902
sg113
I2
sg66
I5
sg67
I1
sg114
Nsbaa(lp7914
g7906
aa(lp7915
g7909
aa(lp7916
g0
(g444
g2
Ntp7917
Rp7918
(dp7919
g66
I8
sg67
I1
sg14
(I1
I0
I1
I0
tp7920
sbaa(lp7921
g0
(g62
g2
Ntp7922
Rp7923
(dp7924
g66
I9
sg67
I1
sg68
I11
sbaaa(lp7925
(lp7926
a(lp7927
a(lp7928
a(lp7929
a(lp7930
g0
(g62
g2
Ntp7931
Rp7932
(dp7933
g66
I4
sg67
I2
sg68
I2
sbaa(lp7934
a(lp7935
a(lp7936
g7912
aa(lp7937
a(lp7938
g0
(g62
g2
Ntp7939
Rp7940
(dp7941
g66
I9
sg67
I2
sg68
I10
sbaaa(lp7942
(lp7943
a(lp7944
a(lp7945
a(lp7946
a(lp7947
g0
(g62
g2
Ntp7948
Rp7949
(dp7950
g66
I4
sg67
I3
sg68
I10
sbaa(lp7951
a(lp7952
a(lp7953
a(lp7954
a(lp7955
g0
(g62
g2
Ntp7956
Rp7957
(dp7958
g66
I9
sg67
I3
sg68
I10
sbaaa(lp7959
(lp7960
a(lp7961
a(lp7962
a(lp7963
a(lp7964
g0
(g62
g2
Ntp7965
Rp7966
(dp7967
g66
I4
sg67
I4
sg68
I10
sbaa(lp7968
a(lp7969
a(lp7970
a(lp7971
a(lp7972
g0
(g62
g2
Ntp7973
Rp7974
(dp7975
g66
I9
sg67
I4
sg68
I10
sbaaa(lp7976
(lp7977
a(lp7978
a(lp7979
a(lp7980
a(lp7981
g0
(g62
g2
Ntp7982
Rp7983
(dp7984
g66
I4
sg67
I5
sg68
I10
sbaa(lp7985
a(lp7986
a(lp7987
a(lp7988
a(lp7989
g0
(g62
g2
Ntp7990
Rp7991
(dp7992
g66
I9
sg67
I5
sg68
I10
sbaaa(lp7993
(lp7994
a(lp7995
a(lp7996
a(lp7997
a(lp7998
g0
(g62
g2
Ntp7999
Rp8000
(dp8001
g66
I4
sg67
I6
sg68
I10
sbaa(lp8002
a(lp8003
g0
(g62
g2
Ntp8004
Rp8005
(dp8006
g66
I6
sg67
I6
sg68
I0
sbaa(lp8007
a(lp8008
a(lp8009
g0
(g62
g2
Ntp8010
Rp8011
(dp8012
g66
I9
sg67
I6
sg68
I10
sbaaa(lp8013
(lp8014
a(lp8015
g0
(g2181
g2
Ntp8016
Rp8017
(dp8018
g66
I1
sg67
I7
sg105
I2
sbaa(lp8019
a(lp8020
a(lp8021
g0
(g62
g2
Ntp8022
Rp8023
(dp8024
g66
I4
sg67
I7
sg68
I10
sbaa(lp8025
a(lp8026
a(lp8027
a(lp8028
a(lp8029
g0
(g62
g2
Ntp8030
Rp8031
(dp8032
g66
I9
sg67
I7
sg68
I10
sbaaa(lp8033
(lp8034
a(lp8035
a(lp8036
a(lp8037
a(lp8038
g0
(g62
g2
Ntp8039
Rp8040
(dp8041
g66
I4
sg67
I8
sg68
I10
sbaa(lp8042
a(lp8043
a(lp8044
a(lp8045
a(lp8046
g0
(g62
g2
Ntp8047
Rp8048
(dp8049
g66
I9
sg67
I8
sg68
I10
sbaaa(lp8050
(lp8051
g0
(g444
g2
Ntp8052
Rp8053
(dp8054
g66
I0
sg67
I9
sg14
(I2
I4
I2
I4
tp8055
sbaa(lp8056
g0
(g444
g2
Ntp8057
Rp8058
(dp8059
g66
I1
sg67
I9
sg14
(I2
I4
I2
I4
tp8060
sbaa(lp8061
g0
(g444
g2
Ntp8062
Rp8063
(dp8064
g66
I2
sg67
I9
sg14
(I2
I4
I2
I4
tp8065
sbaa(lp8066
g0
(g444
g2
Ntp8067
Rp8068
(dp8069
g66
I3
sg67
I9
sg14
(I2
I4
I0
I1
tp8070
sbaa(lp8071
g0
(g62
g2
Ntp8072
Rp8073
(dp8074
g66
I4
sg67
I9
sg68
I11
sbaa(lp8075
a(lp8076
a(lp8077
a(lp8078
a(lp8079
g0
(g62
g2
Ntp8080
Rp8081
(dp8082
g66
I9
sg67
I9
sg68
I10
sbaaa(lp8083
(lp8084
g0
(g444
g2
Ntp8085
Rp8086
(dp8087
g66
I0
sg67
I10
sg14
(I4
I2
I4
I2
tp8088
sbaa(lp8089
g0
(g444
g2
Ntp8090
Rp8091
(dp8092
g66
I1
sg67
I10
sg14
(I4
I2
I4
I2
tp8093
sbaa(lp8094
g0
(g444
g2
Ntp8095
Rp8096
(dp8097
g66
I2
sg67
I10
sg14
(I4
I2
I4
I2
tp8098
sbaa(lp8099
g0
(g444
g2
Ntp8100
Rp8101
(dp8102
g66
I3
sg67
I10
sg14
(I4
I2
I1
I0
tp8103
sbaa(lp8104
g0
(g62
g2
Ntp8105
Rp8106
(dp8107
g66
I4
sg67
I10
sg68
I11
sbaa(lp8108
a(lp8109
a(lp8110
a(lp8111
a(lp8112
g0
(g62
g2
Ntp8113
Rp8114
(dp8115
g66
I9
sg67
I10
sg68
I10
sbaaa(lp8116
(lp8117
a(lp8118
a(lp8119
a(lp8120
a(lp8121
g0
(g62
g2
Ntp8122
Rp8123
(dp8124
g66
I4
sg67
I11
sg68
I10
sbaa(lp8125
a(lp8126
a(lp8127
a(lp8128
a(lp8129
g0
(g62
g2
Ntp8130
Rp8131
(dp8132
g66
I9
sg67
I11
sg68
I10
sbaaa(lp8133
(lp8134
a(lp8135
a(lp8136
a(lp8137
a(lp8138
g0
(g62
g2
Ntp8139
Rp8140
(dp8141
g66
I4
sg67
I12
sg68
I10
sbaa(lp8142
a(lp8143
g0
(g62
g2
Ntp8144
Rp8145
(dp8146
g66
I6
sg67
I12
sg68
I4
sbaa(lp8147
g0
(g62
g2
Ntp8148
Rp8149
(dp8150
g66
I7
sg67
I12
sg68
I1
sbaa(lp8151
a(lp8152
g0
(g62
g2
Ntp8153
Rp8154
(dp8155
g66
I9
sg67
I12
sg68
I10
sbaaa(lp8156
(lp8157
a(lp8158
g0
(g277
g2
Ntp8159
Rp8160
(dp8161
g66
I1
sg67
I13
sg68
I01
sbaa(lp8162
a(lp8163
a(lp8164
g0
(g62
g2
Ntp8165
Rp8166
(dp8167
g66
I4
sg67
I13
sg68
I10
sbaa(lp8168
a(lp8169
a(lp8170
a(lp8171
a(lp8172
g0
(g62
g2
Ntp8173
Rp8174
(dp8175
g66
I9
sg67
I13
sg68
I10
sbaaa(lp8176
(lp8177
a(lp8178
a(lp8179
a(lp8180
a(lp8181
g0
(g62
g2
Ntp8182
Rp8183
(dp8184
g66
I4
sg67
I14
sg68
I10
sbaa(lp8185
a(lp8186
a(lp8187
a(lp8188
a(lp8189
g0
(g62
g2
Ntp8190
Rp8191
(dp8192
g66
I9
sg67
I14
sg68
I10
sbaaa(lp8193
(lp8194
a(lp8195
a(lp8196
a(lp8197
a(lp8198
g0
(g62
g2
Ntp8199
Rp8200
(dp8201
g66
I4
sg67
I15
sg68
I10
sbaa(lp8202
a(lp8203
a(lp8204
a(lp8205
a(lp8206
g0
(g62
g2
Ntp8207
Rp8208
(dp8209
g66
I9
sg67
I15
sg68
I10
sbaaa(lp8210
(lp8211
a(lp8212
a(lp8213
a(lp8214
a(lp8215
g0
(g62
g2
Ntp8216
Rp8217
(dp8218
g66
I4
sg67
I16
sg68
I10
sbaa(lp8219
a(lp8220
a(lp8221
a(lp8222
a(lp8223
g0
(g62
g2
Ntp8224
Rp8225
(dp8226
g66
I9
sg67
I16
sg68
I10
sbaaa(lp8227
(lp8228
a(lp8229
a(lp8230
a(lp8231
a(lp8232
g0
(g62
g2
Ntp8233
Rp8234
(dp8235
g66
I4
sg67
I17
sg68
I8
sbaa(lp8236
a(lp8237
a(lp8238
a(lp8239
a(lp8240
g0
(g62
g2
Ntp8241
Rp8242
(dp8243
g66
I9
sg67
I17
sg68
I10
sbaaa(lp8244
(lp8245
a(lp8246
a(lp8247
a(lp8248
a(lp8249
a(lp8250
a(lp8251
a(lp8252
a(lp8253
g0
(g444
g2
Ntp8254
Rp8255
(dp8256
g66
I8
sg67
I18
sg14
(I0
I1
I0
I1
tp8257
sbaa(lp8258
g0
(g62
g2
Ntp8259
Rp8260
(dp8261
g66
I9
sg67
I18
sg68
I11
sbaaa(lp8262
(lp8263
a(lp8264
a(lp8265
a(lp8266
a(lp8267
a(lp8268
a(lp8269
a(lp8270
a(lp8271
g0
(g444
g2
Ntp8272
Rp8273
(dp8274
g66
I8
sg67
I19
sg14
(I1
I1
I1
I1
tp8275
sbaa(lp8276
g0
(g62
g2
Ntp8277
Rp8278
(dp8279
g66
I9
sg67
I19
sg68
I9
sbaaasg416
I3
sbsg16
(lp8280
I0
aI0
aI00
aI00
asg14
(I1
I0
I3
I2
tp8281
sbag0
(g10
g2
Ntp8282
Rp8283
(dp8284
g18
I00
sg16
(lp8285
I00
aI0
aI00
aI0
asg14
(I2
I2
I2
I2
tp8286
sbag0
(g10
g2
Ntp8287
Rp8288
(dp8289
g18
I00
sg16
(lp8290
I00
aI0
aI00
aI0
asg14
(I2
I2
I2
I2
tp8291
sbag0
(g10
g2
Ntp8292
Rp8293
(dp8294
g18
I00
sg16
(lp8295
I00
aI0
aI00
aI0
asg14
(I2
I2
I2
I2
tp8296
sbag0
(g33
g2
Ntp8297
Rp8298
(dp8299
g37
S'spikyday'
p8300
sg18
I00
sg39
g0
(g40
g2
Ntp8301
Rp8302
(dp8303
g46
I12
sg47
I12
sg48
I64
sg49
I4
sg50
(lp8304
(lp8305
(lp8306
a(lp8307
a(lp8308
a(lp8309
a(lp8310
a(lp8311
a(lp8312
a(lp8313
g0
(g444
g2
Ntp8314
Rp8315
(dp8316
g66
I7
sg67
I0
sg14
(I1
I0
I4
I2
tp8317
sbaa(lp8318
g0
(g444
g2
Ntp8319
Rp8320
(dp8321
g66
I8
sg67
I0
sg14
(I4
I2
I1
I0
tp8322
sbaa(lp8323
g0
(g62
g2
Ntp8324
Rp8325
(dp8326
g66
I9
sg67
I0
sg68
I5
sbaa(lp8327
g0
(g62
g2
Ntp8328
Rp8329
(dp8330
g66
I10
sg67
I0
sg68
I5
sbaa(lp8331
g0
(g62
g2
Ntp8332
Rp8333
(dp8334
g66
I11
sg67
I0
sg68
I3
sbaaa(lp8335
(lp8336
a(lp8337
a(lp8338
a(lp8339
a(lp8340
a(lp8341
a(lp8342
a(lp8343
a(lp8344
a(lp8345
a(lp8346
a(lp8347
g0
(g62
g2
Ntp8348
Rp8349
(dp8350
g66
I11
sg67
I1
sg68
I10
sbaaa(lp8351
(lp8352
a(lp8353
a(lp8354
a(lp8355
a(lp8356
a(lp8357
a(lp8358
a(lp8359
a(lp8360
g0
(g108
g2
Ntp8361
Rp8362
(dp8363
g100
g0
(g101
g2
Ntp8364
Rp8365
(dp8366
g105
I6
sg106
(lp8367
g8362
ag0
(g108
g2
Ntp8368
Rp8369
(dp8370
g100
g8365
sg112
g8365
sg113
I1
sg66
I8
sg67
I3
sg114
I3
sbag0
(g108
g2
Ntp8371
Rp8372
(dp8373
g100
g8365
sg112
g8365
sg113
I1
sg66
I8
sg67
I4
sg114
I3
sbag0
(g108
g2
Ntp8374
Rp8375
(dp8376
g100
g8365
sg112
g8365
sg113
I1
sg66
I8
sg67
I5
sg114
I3
sbag0
(g96
g2
Ntp8377
Rp8378
(dp8379
g66
I8
sg67
I6
sg100
g8365
sg112
g8365
sg121
I1
sbasbsg112
g8365
sg113
I1
sg66
I8
sg67
I2
sg114
Nsbaa(lp8380
g0
(g444
g2
Ntp8381
Rp8382
(dp8383
g66
I9
sg67
I2
sg14
(I0
I1
I0
I1
tp8384
sbaa(lp8385
a(lp8386
g0
(g62
g2
Ntp8387
Rp8388
(dp8389
g66
I11
sg67
I2
sg68
I10
sbaaa(lp8390
(lp8391
a(lp8392
a(lp8393
g0
(g2181
g2
Ntp8394
Rp8395
(dp8396
g66
I2
sg67
I3
sg105
I1
sbaa(lp8397
a(lp8398
a(lp8399
a(lp8400
a(lp8401
a(lp8402
g8369
aa(lp8403
g0
(g444
g2
Ntp8404
Rp8405
(dp8406
g66
I9
sg67
I3
sg14
(I1
I1
I1
I1
tp8407
sbaa(lp8408
a(lp8409
g0
(g62
g2
Ntp8410
Rp8411
(dp8412
g66
I11
sg67
I3
sg68
I10
sbaaa(lp8413
(lp8414
a(lp8415
a(lp8416
a(lp8417
a(lp8418
a(lp8419
a(lp8420
a(lp8421
a(lp8422
g8372
aa(lp8423
g0
(g444
g2
Ntp8424
Rp8425
(dp8426
g66
I9
sg67
I4
sg14
(I1
I1
I1
I1
tp8427
sbaa(lp8428
a(lp8429
g0
(g62
g2
Ntp8430
Rp8431
(dp8432
g66
I11
sg67
I4
sg68
I10
sbaaa(lp8433
(lp8434
a(lp8435
a(lp8436
a(lp8437
a(lp8438
a(lp8439
a(lp8440
a(lp8441
a(lp8442
g8375
aa(lp8443
g0
(g444
g2
Ntp8444
Rp8445
(dp8446
g66
I9
sg67
I5
sg14
(I1
I1
I1
I1
tp8447
sbaa(lp8448
a(lp8449
g0
(g62
g2
Ntp8450
Rp8451
(dp8452
g66
I11
sg67
I5
sg68
I10
sbaaa(lp8453
(lp8454
a(lp8455
a(lp8456
a(lp8457
a(lp8458
a(lp8459
a(lp8460
a(lp8461
a(lp8462
g8378
aa(lp8463
g0
(g444
g2
Ntp8464
Rp8465
(dp8466
g66
I9
sg67
I6
sg14
(I1
I1
I1
I1
tp8467
sbaa(lp8468
a(lp8469
g0
(g62
g2
Ntp8470
Rp8471
(dp8472
g66
I11
sg67
I6
sg68
I10
sbaaa(lp8473
(lp8474
a(lp8475
a(lp8476
a(lp8477
a(lp8478
a(lp8479
a(lp8480
a(lp8481
a(lp8482
g0
(g4847
g2
Ntp8483
Rp8484
(dp8485
g100
g0
(g4842
g2
Ntp8486
Rp8487
(dp8488
g105
I2
sg106
(lp8489
g8484
ag0
(g4838
g2
Ntp8490
Rp8491
(dp8492
g66
I8
sg67
I8
sg100
g8487
sg112
g8487
sg121
I1
sbasbsg112
g8487
sg113
I1
sg66
I8
sg67
I7
sg114
Nsbaa(lp8493
g0
(g444
g2
Ntp8494
Rp8495
(dp8496
g66
I9
sg67
I7
sg14
(I1
I1
I1
I1
tp8497
sbaa(lp8498
a(lp8499
g0
(g62
g2
Ntp8500
Rp8501
(dp8502
g66
I11
sg67
I7
sg68
I10
sbaaa(lp8503
(lp8504
a(lp8505
a(lp8506
a(lp8507
a(lp8508
a(lp8509
a(lp8510
a(lp8511
a(lp8512
g8491
aa(lp8513
g0
(g444
g2
Ntp8514
Rp8515
(dp8516
g66
I9
sg67
I8
sg14
(I1
I1
I1
I1
tp8517
sbaa(lp8518
a(lp8519
g0
(g62
g2
Ntp8520
Rp8521
(dp8522
g66
I11
sg67
I8
sg68
I10
sbaaa(lp8523
(lp8524
g0
(g277
g2
Ntp8525
Rp8526
(dp8527
g66
I0
sg67
I9
sg68
I01
sbaa(lp8528
g0
(g444
g2
Ntp8529
Rp8530
(dp8531
g66
I1
sg67
I9
sg14
(I0
I1
I0
I1
tp8532
sbaa(lp8533
g0
(g62
g2
Ntp8534
Rp8535
(dp8536
g66
I2
sg67
I9
sg68
I7
sbaa(lp8537
g0
(g62
g2
Ntp8538
Rp8539
(dp8540
g66
I3
sg67
I9
sg68
I7
sbaa(lp8541
g0
(g62
g2
Ntp8542
Rp8543
(dp8544
g66
I4
sg67
I9
sg68
I3
sbaa(lp8545
a(lp8546
g0
(g62
g2
Ntp8547
Rp8548
(dp8549
g66
I6
sg67
I9
sg68
I6
sbaa(lp8550
g0
(g62
g2
Ntp8551
Rp8552
(dp8553
g66
I7
sg67
I9
sg68
I7
sbaa(lp8554
g0
(g62
g2
Ntp8555
Rp8556
(dp8557
g66
I8
sg67
I9
sg68
I7
sbaa(lp8558
g0
(g444
g2
Ntp8559
Rp8560
(dp8561
g66
I9
sg67
I9
sg14
(I1
I1
I1
I1
tp8562
sbaa(lp8563
a(lp8564
g0
(g62
g2
Ntp8565
Rp8566
(dp8567
g66
I11
sg67
I9
sg68
I10
sbaaa(lp8568
(lp8569
a(lp8570
g0
(g444
g2
Ntp8571
Rp8572
(dp8573
g66
I1
sg67
I10
sg14
(I1
I1
I3
I4
tp8574
sbaa(lp8575
g0
(g444
g2
Ntp8576
Rp8577
(dp8578
g66
I2
sg67
I10
sg14
(I2
I4
I2
I4
tp8579
sbaa(lp8580
g0
(g444
g2
Ntp8581
Rp8582
(dp8583
g66
I3
sg67
I10
sg14
(I2
I4
I2
I4
tp8584
sbaa(lp8585
g0
(g444
g2
Ntp8586
Rp8587
(dp8588
g66
I4
sg67
I10
sg14
(I2
I4
I0
I1
tp8589
sbaa(lp8590
g0
(g62
g2
Ntp8591
Rp8592
(dp8593
g66
I5
sg67
I10
sg68
I7
sbaa(lp8594
g0
(g444
g2
Ntp8595
Rp8596
(dp8597
g66
I6
sg67
I10
sg14
(I0
I1
I2
I3
tp8598
sbaa(lp8599
g0
(g444
g2
Ntp8600
Rp8601
(dp8602
g66
I7
sg67
I10
sg14
(I2
I2
I2
I2
tp8603
sbaa(lp8604
g0
(g444
g2
Ntp8605
Rp8606
(dp8607
g66
I8
sg67
I10
sg14
(I2
I2
I2
I2
tp8608
sbaa(lp8609
g0
(g444
g2
Ntp8610
Rp8611
(dp8612
g66
I9
sg67
I10
sg14
(I3
I2
I1
I0
tp8613
sbaa(lp8614
a(lp8615
g0
(g62
g2
Ntp8616
Rp8617
(dp8618
g66
I11
sg67
I10
sg68
I10
sbaaa(lp8619
(lp8620
g0
(g444
g2
Ntp8621
Rp8622
(dp8623
g66
I0
sg67
I11
sg14
(I2
I4
I2
I4
tp8624
sbaa(lp8625
g0
(g444
g2
Ntp8626
Rp8627
(dp8628
g66
I1
sg67
I11
sg14
(I3
I4
I4
I4
tp8629
sbaa(lp8630
g0
(g444
g2
Ntp8631
Rp8632
(dp8633
g66
I2
sg67
I11
sg14
(I4
I4
I4
I4
tp8634
sbaa(lp8635
g0
(g444
g2
Ntp8636
Rp8637
(dp8638
g66
I3
sg67
I11
sg14
(I4
I4
I4
I4
tp8639
sbaa(lp8640
g0
(g444
g2
Ntp8641
Rp8642
(dp8643
g66
I4
sg67
I11
sg14
(I4
I4
I3
I4
tp8644
sbaa(lp8645
g0
(g444
g2
Ntp8646
Rp8647
(dp8648
g66
I5
sg67
I11
sg14
(I2
I4
I2
I4
tp8649
sbaa(lp8650
g0
(g444
g2
Ntp8651
Rp8652
(dp8653
g66
I6
sg67
I11
sg14
(I3
I4
I1
I1
tp8654
sbaa(lp8655
g0
(g277
g2
Ntp8656
Rp8657
(dp8658
g66
I7
sg67
I11
sg68
I01
sbaa(lp8659
a(lp8660
a(lp8661
a(lp8662
g0
(g444
g2
Ntp8663
Rp8664
(dp8665
g66
I11
sg67
I11
sg14
(I0
I1
I2
I4
tp8666
sbaaasg416
I3
sbsg16
(lp8667
I00
aI0
aI00
aI00
asg14
(I3
I2
I3
I2
tp8668
sbag0
(g10
g2
Ntp8669
Rp8670
(dp8671
g18
I00
sg16
(lp8672
I00
aI0
aI01
aI0
asg14
(I2
I2
I2
I2
tp8673
sbag0
(g10
g2
Ntp8674
Rp8675
(dp8676
g18
I01
sg14
(I2
I2
I2
I2
tp8677
sbag0
(g10
g2
Ntp8678
Rp8679
(dp8680
g18
I01
sg14
(I2
I2
I2
I2
tp8681
sbag0
(g10
g2
Ntp8682
Rp8683
(dp8684
g18
I01
sg14
(I2
I2
I2
I2
tp8685
sbag0
(g10
g2
Ntp8686
Rp8687
(dp8688
g18
I01
sg14
(I2
I2
I2
I2
tp8689
sbag0
(g10
g2
Ntp8690
Rp8691
(dp8692
g18
I01
sg14
(I3
I2
I1
I0
tp8693
sbaNaNaasg46
I14
sg47
I14
sg48
I64
sS'terrain'
p8694
(lp8695
(lp8696
NaNaNaNaNaNaNaNaNaNaNaNaNaNaa(lp8697
NaNag0
(cWMObjects
Dirt
p8698
g2
Ntp8699
Rp8700
(dp8701
g14
(I0
I1
I2
I4
tp8702
sbag0
(g8698
g2
Ntp8703
Rp8704
(dp8705
g14
(I2
I4
I2
I4
tp8706
sbag0
(g8698
g2
Ntp8707
Rp8708
(dp8709
g14
(I2
I4
I2
I4
tp8710
sbag0
(g8698
g2
Ntp8711
Rp8712
(dp8713
g14
(I2
I4
I2
I4
tp8714
sbag0
(g8698
g2
Ntp8715
Rp8716
(dp8717
g14
(I2
I4
I0
I1
tp8718
sbaNaNaNag0
(cWMObjects
Snow
p8719
g2
Ntp8720
Rp8721
(dp8722
g14
(I0
I1
I2
I4
tp8723
sbag0
(g8719
g2
Ntp8724
Rp8725
(dp8726
g14
(I2
I4
I0
I1
tp8727
sbaNaNaa(lp8728
Nag0
(g8698
g2
Ntp8729
Rp8730
(dp8731
g14
(I0
I1
I2
I4
tp8732
sbag0
(g8698
g2
Ntp8733
Rp8734
(dp8735
g14
(I3
I4
I4
I4
tp8736
sbag0
(g8698
g2
Ntp8737
Rp8738
(dp8739
g14
(I4
I4
I4
I4
tp8740
sbag0
(g8698
g2
Ntp8741
Rp8742
(dp8743
g14
(I4
I4
I4
I4
tp8744
sbag0
(g8698
g2
Ntp8745
Rp8746
(dp8747
g14
(I4
I4
I4
I4
tp8748
sbag0
(g8698
g2
Ntp8749
Rp8750
(dp8751
g14
(I4
I4
I3
I4
tp8752
sbag0
(g8698
g2
Ntp8753
Rp8754
(dp8755
g14
(I2
I4
I0
I1
tp8756
sbaNaNag0
(g8719
g2
Ntp8757
Rp8758
(dp8759
g14
(I1
I1
I4
I4
tp8760
sbag0
(g8719
g2
Ntp8761
Rp8762
(dp8763
g14
(I4
I4
I3
I4
tp8764
sbag0
(g8719
g2
Ntp8765
Rp8766
(dp8767
g14
(I2
I4
I0
I1
tp8768
sbaNaa(lp8769
Nag0
(g8698
g2
Ntp8770
Rp8771
(dp8772
g14
(I1
I1
I4
I4
tp8773
sbag0
(g8698
g2
Ntp8774
Rp8775
(dp8776
g14
(I4
I4
I4
I4
tp8777
sbag0
(g8698
g2
Ntp8778
Rp8779
(dp8780
g14
(I4
I4
I4
I4
tp8781
sbag0
(g8698
g2
Ntp8782
Rp8783
(dp8784
g14
(I4
I4
I4
I4
tp8785
sbag0
(g8698
g2
Ntp8786
Rp8787
(dp8788
g14
(I4
I4
I4
I4
tp8789
sbag0
(g8698
g2
Ntp8790
Rp8791
(dp8792
g14
(I4
I4
I4
I4
tp8793
sbag0
(g8698
g2
Ntp8794
Rp8795
(dp8796
g14
(I4
I4
I1
I1
tp8797
sbaNag0
(g8719
g2
Ntp8798
Rp8799
(dp8800
g14
(I0
I1
I2
I4
tp8801
sbag0
(g8719
g2
Ntp8802
Rp8803
(dp8804
g14
(I3
I4
I4
I4
tp8805
sbag0
(g8719
g2
Ntp8806
Rp8807
(dp8808
g14
(I4
I4
I4
I4
tp8809
sbag0
(g8719
g2
Ntp8810
Rp8811
(dp8812
g14
(I4
I4
I1
I1
tp8813
sbaNaa(lp8814
Nag0
(g8698
g2
Ntp8815
Rp8816
(dp8817
g14
(I1
I1
I4
I4
tp8818
sbag0
(g8698
g2
Ntp8819
Rp8820
(dp8821
g14
(I4
I4
I4
I4
tp8822
sbag0
(g8698
g2
Ntp8823
Rp8824
(dp8825
g14
(I4
I4
I4
I4
tp8826
sbag0
(g8698
g2
Ntp8827
Rp8828
(dp8829
g14
(I4
I4
I4
I4
tp8830
sbag0
(g8698
g2
Ntp8831
Rp8832
(dp8833
g14
(I4
I4
I4
I4
tp8834
sbag0
(g8698
g2
Ntp8835
Rp8836
(dp8837
g14
(I4
I4
I4
I4
tp8838
sbag0
(g8698
g2
Ntp8839
Rp8840
(dp8841
g14
(I4
I4
I1
I1
tp8842
sbaNag0
(g8719
g2
Ntp8843
Rp8844
(dp8845
g14
(I1
I1
I4
I4
tp8846
sbag0
(g8719
g2
Ntp8847
Rp8848
(dp8849
g14
(I4
I4
I4
I4
tp8850
sbag0
(g8719
g2
Ntp8851
Rp8852
(dp8853
g14
(I4
I4
I4
I3
tp8854
sbag0
(g8719
g2
Ntp8855
Rp8856
(dp8857
g14
(I4
I2
I1
I0
tp8858
sbaNaa(lp8859
Nag0
(g8698
g2
Ntp8860
Rp8861
(dp8862
g14
(I1
I1
I4
I4
tp8863
sbag0
(g8698
g2
Ntp8864
Rp8865
(dp8866
g14
(I4
I4
I4
I4
tp8867
sbag0
(g8698
g2
Ntp8868
Rp8869
(dp8870
g14
(I4
I4
I4
I4
tp8871
sbag0
(g8698
g2
Ntp8872
Rp8873
(dp8874
g14
(I4
I4
I4
I4
tp8875
sbag0
(g8698
g2
Ntp8876
Rp8877
(dp8878
g14
(I4
I4
I4
I4
tp8879
sbag0
(g8698
g2
Ntp8880
Rp8881
(dp8882
g14
(I4
I4
I4
I4
tp8883
sbag0
(g8698
g2
Ntp8884
Rp8885
(dp8886
g14
(I4
I4
I1
I1
tp8887
sbaNag0
(g8719
g2
Ntp8888
Rp8889
(dp8890
g14
(I1
I1
I4
I4
tp8891
sbag0
(g8719
g2
Ntp8892
Rp8893
(dp8894
g14
(I4
I4
I4
I4
tp8895
sbag0
(g8719
g2
Ntp8896
Rp8897
(dp8898
g14
(I4
I4
I1
I1
tp8899
sbaNaNaa(lp8900
Nag0
(g8698
g2
Ntp8901
Rp8902
(dp8903
g14
(I1
I0
I4
I2
tp8904
sbag0
(g8698
g2
Ntp8905
Rp8906
(dp8907
g14
(I4
I2
I4
I2
tp8908
sbag0
(g8698
g2
Ntp8909
Rp8910
(dp8911
g14
(I4
I2
I4
I2
tp8912
sbag0
(g8698
g2
Ntp8913
Rp8914
(dp8915
g14
(I4
I2
I4
I2
tp8916
sbag0
(g8698
g2
Ntp8917
Rp8918
(dp8919
g14
(I4
I2
I4
I2
tp8920
sbag0
(g8698
g2
Ntp8921
Rp8922
(dp8923
g14
(I4
I2
I4
I2
tp8924
sbag0
(g8698
g2
Ntp8925
Rp8926
(dp8927
g14
(I4
I2
I1
I0
tp8928
sbaNag0
(g8719
g2
Ntp8929
Rp8930
(dp8931
g14
(I1
I0
I4
I2
tp8932
sbag0
(g8719
g2
Ntp8933
Rp8934
(dp8935
g14
(I4
I3
I4
I4
tp8936
sbag0
(g8719
g2
Ntp8937
Rp8938
(dp8939
g14
(I4
I4
I1
I1
tp8940
sbaNaNaa(lp8941
NaNaNaNaNaNaNaNaNaNag0
(g8719
g2
Ntp8942
Rp8943
(dp8944
g14
(I1
I1
I4
I4
tp8945
sbag0
(g8719
g2
Ntp8946
Rp8947
(dp8948
g14
(I4
I4
I3
I4
tp8949
sbag0
(g8719
g2
Ntp8950
Rp8951
(dp8952
g14
(I2
I4
I0
I1
tp8953
sbaNaa(lp8954
Nag0
(g8698
g2
Ntp8955
Rp8956
(dp8957
g14
(I0
I1
I2
I4
tp8958
sbag0
(g8698
g2
Ntp8959
Rp8960
(dp8961
g14
(I2
I4
I2
I4
tp8962
sbag0
(g8698
g2
Ntp8963
Rp8964
(dp8965
g14
(I2
I4
I2
I4
tp8966
sbag0
(g8698
g2
Ntp8967
Rp8968
(dp8969
g14
(I2
I4
I2
I4
tp8970
sbag0
(g8698
g2
Ntp8971
Rp8972
(dp8973
g14
(I2
I4
I2
I4
tp8974
sbag0
(g8698
g2
Ntp8975
Rp8976
(dp8977
g14
(I2
I4
I2
I4
tp8978
sbag0
(g8698
g2
Ntp8979
Rp8980
(dp8981
g14
(I2
I4
I2
I4
tp8982
sbag0
(g8698
g2
Ntp8983
Rp8984
(dp8985
g14
(I2
I4
I0
I1
tp8986
sbaNag0
(g8719
g2
Ntp8987
Rp8988
(dp8989
g14
(I1
I0
I4
I2
tp8990
sbag0
(g8719
g2
Ntp8991
Rp8992
(dp8993
g14
(I4
I2
I4
I2
tp8994
sbag0
(g8719
g2
Ntp8995
Rp8996
(dp8997
g14
(I4
I2
I1
I0
tp8998
sbaNaa(lp8999
Nag0
(g8698
g2
Ntp9000
Rp9001
(dp9002
g14
(I1
I1
I4
I4
tp9003
sbag0
(g8698
g2
Ntp9004
Rp9005
(dp9006
g14
(I4
I4
I4
I4
tp9007
sbag0
(g8698
g2
Ntp9008
Rp9009
(dp9010
g14
(I4
I4
I4
I4
tp9011
sbag0
(g8698
g2
Ntp9012
Rp9013
(dp9014
g14
(I4
I4
I4
I4
tp9015
sbag0
(g8698
g2
Ntp9016
Rp9017
(dp9018
g14
(I4
I4
I4
I4
tp9019
sbag0
(g8698
g2
Ntp9020
Rp9021
(dp9022
g14
(I4
I4
I4
I4
tp9023
sbag0
(g8698
g2
Ntp9024
Rp9025
(dp9026
g14
(I4
I4
I4
I4
tp9027
sbag0
(g8698
g2
Ntp9028
Rp9029
(dp9030
g14
(I4
I4
I1
I1
tp9031
sbaNaNaNaNaNaa(lp9032
Nag0
(g8698
g2
Ntp9033
Rp9034
(dp9035
g14
(I1
I1
I4
I4
tp9036
sbag0
(g8698
g2
Ntp9037
Rp9038
(dp9039
g14
(I4
I4
I4
I4
tp9040
sbag0
(g8698
g2
Ntp9041
Rp9042
(dp9043
g14
(I4
I4
I4
I4
tp9044
sbag0
(g8698
g2
Ntp9045
Rp9046
(dp9047
g14
(I4
I4
I4
I4
tp9048
sbag0
(g8698
g2
Ntp9049
Rp9050
(dp9051
g14
(I4
I4
I4
I4
tp9052
sbag0
(g8698
g2
Ntp9053
Rp9054
(dp9055
g14
(I4
I4
I4
I4
tp9056
sbag0
(g8698
g2
Ntp9057
Rp9058
(dp9059
g14
(I4
I4
I4
I4
tp9060
sbag0
(g8698
g2
Ntp9061
Rp9062
(dp9063
g14
(I4
I4
I3
I4
tp9064
sbag0
(g8698
g2
Ntp9065
Rp9066
(dp9067
g14
(I2
I4
I0
I1
tp9068
sbag0
(g8719
g2
Ntp9069
Rp9070
(dp9071
g14
(I0
I1
I2
I4
tp9072
sbag0
(g8719
g2
Ntp9073
Rp9074
(dp9075
g14
(I2
I4
I2
I4
tp9076
sbag0
(g8719
g2
Ntp9077
Rp9078
(dp9079
g14
(I2
I4
I0
I1
tp9080
sbaNaa(lp9081
Nag0
(g8698
g2
Ntp9082
Rp9083
(dp9084
g14
(I1
I1
I4
I4
tp9085
sbag0
(g8698
g2
Ntp9086
Rp9087
(dp9088
g14
(I4
I4
I4
I3
tp9089
sbag0
(g8698
g2
Ntp9090
Rp9091
(dp9092
g14
(I4
I2
I4
I2
tp9093
sbag0
(g8698
g2
Ntp9094
Rp9095
(dp9096
g14
(I4
I3
I4
I4
tp9097
sbag0
(g8698
g2
Ntp9098
Rp9099
(dp9100
g14
(I4
I4
I4
I4
tp9101
sbag0
(g8698
g2
Ntp9102
Rp9103
(dp9104
g14
(I4
I4
I4
I4
tp9105
sbag0
(g8698
g2
Ntp9106
Rp9107
(dp9108
g14
(I4
I4
I4
I4
tp9109
sbag0
(g8698
g2
Ntp9110
Rp9111
(dp9112
g14
(I4
I4
I4
I4
tp9113
sbag0
(g8698
g2
Ntp9114
Rp9115
(dp9116
g14
(I4
I4
I1
I1
tp9117
sbag0
(g8719
g2
Ntp9118
Rp9119
(dp9120
g14
(I1
I1
I4
I4
tp9121
sbag0
(g8719
g2
Ntp9122
Rp9123
(dp9124
g14
(I4
I4
I4
I4
tp9125
sbag0
(g8719
g2
Ntp9126
Rp9127
(dp9128
g14
(I4
I4
I1
I1
tp9129
sbaNaa(lp9130
Nag0
(g8698
g2
Ntp9131
Rp9132
(dp9133
g14
(I1
I1
I4
I4
tp9134
sbag0
(g8698
g2
Ntp9135
Rp9136
(dp9137
g14
(I4
I4
I1
I1
tp9138
sbaNag0
(g8698
g2
Ntp9139
Rp9140
(dp9141
g14
(I1
I1
I4
I4
tp9142
sbag0
(g8698
g2
Ntp9143
Rp9144
(dp9145
g14
(I4
I4
I4
I4
tp9146
sbag0
(g8698
g2
Ntp9147
Rp9148
(dp9149
g14
(I4
I4
I4
I3
tp9150
sbag0
(g8698
g2
Ntp9151
Rp9152
(dp9153
g14
(I4
I2
I4
I2
tp9154
sbag0
(g8698
g2
Ntp9155
Rp9156
(dp9157
g14
(I4
I2
I4
I2
tp9158
sbag0
(g8698
g2
Ntp9159
Rp9160
(dp9161
g14
(I4
I2
I1
I0
tp9162
sbag0
(g8719
g2
Ntp9163
Rp9164
(dp9165
g14
(I1
I0
I4
I2
tp9166
sbag0
(g8719
g2
Ntp9167
Rp9168
(dp9169
g14
(I4
I2
I4
I2
tp9170
sbag0
(g8719
g2
Ntp9171
Rp9172
(dp9173
g14
(I4
I2
I1
I0
tp9174
sbaNaa(lp9175
Nag0
(g8698
g2
Ntp9176
Rp9177
(dp9178
g14
(I1
I1
I4
I4
tp9179
sbag0
(g8698
g2
Ntp9180
Rp9181
(dp9182
g14
(I4
I4
I3
I4
tp9183
sbag0
(g8698
g2
Ntp9184
Rp9185
(dp9186
g14
(I2
I4
I2
I4
tp9187
sbag0
(g8698
g2
Ntp9188
Rp9189
(dp9190
g14
(I3
I4
I4
I4
tp9191
sbag0
(g8698
g2
Ntp9192
Rp9193
(dp9194
g14
(I4
I4
I4
I4
tp9195
sbag0
(g8698
g2
Ntp9196
Rp9197
(dp9198
g14
(I4
I4
I1
I1
tp9199
sbaNaNaNaNaNaNaNaasg49
I4
sS'completed'
p9200
c__builtin__
set
p9201
((lp9202
tp9203
Rp9204
sg416
I3
sS'unodes'
p9205
(lp9206
sb.